
bin/mykernel.bin:     file format elf64-x86-64

Contents of section .multiboot2:
 100000 d65052e8 00000000 30000000 faaead17  .PR.....0.......
 100010 05000000 14000000 80070000 38040000  ............8...
 100020 20000000 90909090 00000000 08000000   ...............
Contents of section .sysvar:
 100030 00000000 00000000 00000000 00000000  ................
 100040 00000000 00000000 00000000 00000000  ................
 100050 00000000 00000000 00000000 00000000  ................
 100060 00000000 00000000 00000000 00000000  ................
 100070 00000000 00000000 00000000 00000000  ................
 100080 00000000 00000000 00000000 00000000  ................
 100090 00000000 00000000 00000000 00000000  ................
 1000a0 00000000 00000000 00000000 00000000  ................
 1000b0 00000000 00000000 00000000 00000000  ................
 1000c0 00000000 00000000 00000000 00000000  ................
 1000d0 00000000 00000000 00000000 00000000  ................
 1000e0 00000000 00000000 00000000 00000000  ................
 1000f0 00000000 00000000 00000000 00000000  ................
 100100 00000000 00000000 00000000 00000000  ................
 100110 00000000 00000000 00000000 00000000  ................
 100120 00000000 00000000 00000000 00000000  ................
Contents of section .text:
 100130 bc001020 00bd0010 2000891d 08802000  ... .... ..... .
 100140 a3048020 00e85200 0000e85c 000000e8  ... ..R....\....
 100150 72000000 e8920000 00e8ff00 00000f01  r...............
 100160 15aa2c10 00ea6c01 10000800 66b81000  ..,...l.....f...
 100170 8ed88ec0 8ee08ee8 8ed0e902 0b000031  ...............1
 100180 c931ff48 31f68b3c 25088020 008b3425  .1.H1..<%.. ..4%
 100190 04802000 e8d71100 00f4ebfd 3d8962d7  .. .........=.b.
 1001a0 367501c3 b030e9c2 0e00009c 5889c135  6u...0......X..5
 1001b0 00002000 509d9c58 519d39c8 7401c3b0  .. .P..XQ.9.t...
 1001c0 31e9a70e 0000b800 0000800f a23d0100  1............=..
 1001d0 00807210 b8010000 800fa2f7 c2000000  ..r.............
 1001e0 207401c3 b032e982 0e0000b8 00202000   t...2.......  .
 1001f0 83c803a3 00102000 b8003020 0083c803  ...... ...0 ....
 100200 a3002020 00b80030 20000500 10000083  ..  ...0 .......
 100210 c803a308 202000b8 00302000 05002000  ....  ...0 ... .
 100220 0083c803 a3102020 00b80030 20000500  ......  ...0 ...
 100230 30000083 c803a318 202000b9 00000000  0.......  ......
 100240 b8000020 00f7e10d 83000000 8904cd00  ... ............
 100250 30200041 81f90008 000075e4 c3b80010  0 .A......u.....
 100260 20000f22 d80f20e0 0db00000 000f22e0   ..".. .......".
 100270 b9800000 c00f320d 00010000 0f300f20  ......2......0. 
 100280 c00d0000 00800f22 c0c3fafc 50535152  ......."....PSQR
 100290 56575541 50415141 52415341 54415541  VWUAPAQARASATAUA
 1002a0 56415748 89e7e805 13000041 5f415e41  VAWH.......A_A^A
 1002b0 5d415c41 5b415a41 5941585d 5f5e5a59  ]A\A[AZAYAX]_^ZY
 1002c0 5b58cffa fc505351 52565755 41504151  [X...PSQRVWUAPAQ
 1002d0 41524153 41544155 41564157 4889e7e8  ARASATAUAVAWH...
 1002e0 ec120000 415f415e 415d415c 415b415a  ....A_A^A]A\A[AZ
 1002f0 41594158 5d5f5e5a 595b58cf fafc5053  AYAX]_^ZY[X...PS
 100300 51525657 55415041 51415241 53415441  QRVWUAPAQARASATA
 100310 55415641 574889e7 e8d31200 00415f41  UAVAWH.......A_A
 100320 5e415d41 5c415b41 5a415941 585d5f5e  ^A]A\A[AZAYAX]_^
 100330 5a595b58 cffafc50 53515256 57554150  ZY[X...PSQRVWUAP
 100340 41514152 41534154 41554156 41574889  AQARASATAUAVAWH.
 100350 e7e8ba12 0000415f 415e415d 415c415b  ......A_A^A]A\A[
 100360 415a4159 41585d5f 5e5a595b 58cffafc  AZAYAX]_^ZY[X...
 100370 50535152 56575541 50415141 52415341  PSQRVWUAPAQARASA
 100380 54415541 56415748 89e7e8a1 12000041  TAUAVAWH.......A
 100390 5f415e41 5d415c41 5b415a41 5941585d  _A^A]A\A[AZAYAX]
 1003a0 5f5e5a59 5b58cffa fc505351 52565755  _^ZY[X...PSQRVWU
 1003b0 41504151 41524153 41544155 41564157  APAQARASATAUAVAW
 1003c0 4889e7e8 88120000 415f415e 415d415c  H.......A_A^A]A\
 1003d0 415b415a 41594158 5d5f5e5a 595b58cf  A[AZAYAX]_^ZY[X.
 1003e0 fafc5053 51525657 55415041 51415241  ..PSQRVWUAPAQARA
 1003f0 53415441 55415641 574889e7 e86f1200  SATAUAVAWH...o..
 100400 00415f41 5e415d41 5c415b41 5a415941  .A_A^A]A\A[AZAYA
 100410 585d5f5e 5a595b58 cffafc50 53515256  X]_^ZY[X...PSQRV
 100420 57554150 41514152 41534154 41554156  WUAPAQARASATAUAV
 100430 41574889 e7e85612 0000415f 415e415d  AWH...V...A_A^A]
 100440 415c415b 415a4159 41585d5f 5e5a595b  A\A[AZAYAX]_^ZY[
 100450 58cffafc 50535152 56575541 50415141  X...PSQRVWUAPAQA
 100460 52415341 54415541 56415748 89e7e83d  RASATAUAVAWH...=
 100470 12000041 5f415e41 5d415c41 5b415a41  ...A_A^A]A\A[AZA
 100480 5941585d 5f5e5a59 5b58cffa fc505351  YAX]_^ZY[X...PSQ
 100490 52565755 41504151 41524153 41544155  RVWUAPAQARASATAU
 1004a0 41564157 4889e7e8 24120000 415f415e  AVAWH...$...A_A^
 1004b0 415d415c 415b415a 41594158 5d5f5e5a  A]A\A[AZAYAX]_^Z
 1004c0 595b58cf fafc5053 51525657 55415041  Y[X...PSQRVWUAPA
 1004d0 51415241 53415441 55415641 574889e7  QARASATAUAVAWH..
 1004e0 e80b1200 00415f41 5e415d41 5c415b41  .....A_A^A]A\A[A
 1004f0 5a415941 585d5f5e 5a595b58 cffafc50  ZAYAX]_^ZY[X...P
 100500 53515256 57554150 41514152 41534154  SQRVWUAPAQARASAT
 100510 41554156 41574889 e7e8f211 0000415f  AUAVAWH.......A_
 100520 415e415d 415c415b 415a4159 41585d5f  A^A]A\A[AZAYAX]_
 100530 5e5a595b 58cffafc 50535152 56575541  ^ZY[X...PSQRVWUA
 100540 50415141 52415341 54415541 56415748  PAQARASATAUAVAWH
 100550 89e7e8d9 11000041 5f415e41 5d415c41  .......A_A^A]A\A
 100560 5b415a41 5941585d 5f5e5a59 5b58cffa  [AZAYAX]_^ZY[X..
 100570 fc505351 52565755 41504151 41524153  .PSQRVWUAPAQARAS
 100580 41544155 41564157 4889e7e8 c0110000  ATAUAVAWH.......
 100590 415f415e 415d415c 415b415a 41594158  A_A^A]A\A[AZAYAX
 1005a0 5d5f5e5a 595b58cf fafc5053 51525657  ]_^ZY[X...PSQRVW
 1005b0 55415041 51415241 53415441 55415641  UAPAQARASATAUAVA
 1005c0 574889e7 e8a71100 00415f41 5e415d41  WH.......A_A^A]A
 1005d0 5c415b41 5a415941 585d5f5e 5a595b58  \A[AZAYAX]_^ZY[X
 1005e0 cffafc50 53515256 57554150 41514152  ...PSQRVWUAPAQAR
 1005f0 41534154 41554156 41574889 e7e88e11  ASATAUAVAWH.....
 100600 0000415f 415e415d 415c415b 415a4159  ..A_A^A]A\A[AZAY
 100610 41585d5f 5e5a595b 58cffafc 50535152  AX]_^ZY[X...PSQR
 100620 56575541 50415141 52415341 54415541  VWUAPAQARASATAUA
 100630 56415748 89e7e875 11000041 5f415e41  VAWH...u...A_A^A
 100640 5d415c41 5b415a41 5941585d 5f5e5a59  ]A\A[AZAYAX]_^ZY
 100650 5b58cffa fc505351 52565755 41504151  [X...PSQRVWUAPAQ
 100660 41524153 41544155 41564157 4889e7e8  ARASATAUAVAWH...
 100670 5c110000 415f415e 415d415c 415b415a  \...A_A^A]A\A[AZ
 100680 41594158 5d5f5e5a 595b58cf fafc5053  AYAX]_^ZY[X...PS
 100690 51525657 55415041 51415241 53415441  QRVWUAPAQARASATA
 1006a0 55415641 574889e7 e8431100 00415f41  UAVAWH...C...A_A
 1006b0 5e415d41 5c415b41 5a415941 585d5f5e  ^A]A\A[AZAYAX]_^
 1006c0 5a595b58 cffafc50 53515256 57554150  ZY[X...PSQRVWUAP
 1006d0 41514152 41534154 41554156 41574889  AQARASATAUAVAWH.
 1006e0 e7e82a11 0000415f 415e415d 415c415b  ..*...A_A^A]A\A[
 1006f0 415a4159 41585d5f 5e5a595b 58cffafc  AZAYAX]_^ZY[X...
 100700 50535152 56575541 50415141 52415341  PSQRVWUAPAQARASA
 100710 54415541 56415748 89e7e811 11000041  TAUAVAWH.......A
 100720 5f415e41 5d415c41 5b415a41 5941585d  _A^A]A\A[AZAYAX]
 100730 5f5e5a59 5b58cffa fc505351 52565755  _^ZY[X...PSQRVWU
 100740 41504151 41524153 41544155 41564157  APAQARASATAUAVAW
 100750 4889e7e8 f8100000 415f415e 415d415c  H.......A_A^A]A\
 100760 415b415a 41594158 5d5f5e5a 595b58cf  A[AZAYAX]_^ZY[X.
 100770 fafc5053 51525657 55415041 51415241  ..PSQRVWUAPAQARA
 100780 53415441 55415641 574889e7 e8df1000  SATAUAVAWH......
 100790 00415f41 5e415d41 5c415b41 5a415941  .A_A^A]A\A[AZAYA
 1007a0 585d5f5e 5a595b58 cffafc50 53515256  X]_^ZY[X...PSQRV
 1007b0 57554150 41514152 41534154 41554156  WUAPAQARASATAUAV
 1007c0 41574889 e7e8c610 0000415f 415e415d  AWH.......A_A^A]
 1007d0 415c415b 415a4159 41585d5f 5e5a595b  A\A[AZAYAX]_^ZY[
 1007e0 58cffafc 50535152 56575541 50415141  X...PSQRVWUAPAQA
 1007f0 52415341 54415541 564157bf 20000000  RASATAUAVAW. ...
 100800 e8eb0b00 00415f41 5e415d41 5c415b41  .....A_A^A]A\A[A
 100810 5a415941 585d5f5e 5a595b58 fb48cffa  ZAYAX]_^ZY[X.H..
 100820 fc505351 52565755 41504151 41524153  .PSQRVWUAPAQARAS
 100830 41544155 41564157 bf210000 00e8ae0b  ATAUAVAW.!......
 100840 0000415f 415e415d 415c415b 415a4159  ..A_A^A]A\A[AZAY
 100850 41585d5f 5e5a595b 58fb48cf fafc5053  AX]_^ZY[X.H...PS
 100860 51525657 55415041 51415241 53415441  QRVWUAPAQARASATA
 100870 55415641 57bf2200 0000e871 0b000041  UAVAW."....q...A
 100880 5f415e41 5d415c41 5b415a41 5941585d  _A^A]A\A[AZAYAX]
 100890 5f5e5a59 5b5848cf fafc5053 51525657  _^ZY[XH...PSQRVW
 1008a0 55415041 51415241 53415441 55415641  UAPAQARASATAUAVA
 1008b0 57bf2300 0000e835 0b000041 5f415e41  W.#....5...A_A^A
 1008c0 5d415c41 5b415a41 5941585d 5f5e5a59  ]A\A[AZAYAX]_^ZY
 1008d0 5b5848cf fafc5053 51525657 55415041  [XH...PSQRVWUAPA
 1008e0 51415241 53415441 55415641 57bf2400  QARASATAUAVAW.$.
 1008f0 0000e8f9 0a000041 5f415e41 5d415c41  .......A_A^A]A\A
 100900 5b415a41 5941585d 5f5e5a59 5b5848cf  [AZAYAX]_^ZY[XH.
 100910 fafc5053 51525657 55415041 51415241  ..PSQRVWUAPAQARA
 100920 53415441 55415641 57bf2500 0000e8bd  SATAUAVAW.%.....
 100930 0a000041 5f415e41 5d415c41 5b415a41  ...A_A^A]A\A[AZA
 100940 5941585d 5f5e5a59 5b5848cf fafc5053  YAX]_^ZY[XH...PS
 100950 51525657 55415041 51415241 53415441  QRVWUAPAQARASATA
 100960 55415641 57bf2600 0000e881 0a000041  UAVAW.&........A
 100970 5f415e41 5d415c41 5b415a41 5941585d  _A^A]A\A[AZAYAX]
 100980 5f5e5a59 5b5848cf fafc5053 51525657  _^ZY[XH...PSQRVW
 100990 55415041 51415241 53415441 55415641  UAPAQARASATAUAVA
 1009a0 57bf2700 0000e845 0a000041 5f415e41  W.'....E...A_A^A
 1009b0 5d415c41 5b415a41 5941585d 5f5e5a59  ]A\A[AZAYAX]_^ZY
 1009c0 5b5848cf fafc5053 51525657 55415041  [XH...PSQRVWUAPA
 1009d0 51415241 53415441 55415641 57bf2800  QARASATAUAVAW.(.
 1009e0 0000e809 0a000041 5f415e41 5d415c41  .......A_A^A]A\A
 1009f0 5b415a41 5941585d 5f5e5a59 5b5848cf  [AZAYAX]_^ZY[XH.
 100a00 fafc5053 51525657 55415041 51415241  ..PSQRVWUAPAQARA
 100a10 53415441 55415641 57bf2900 0000e8cd  SATAUAVAW.).....
 100a20 09000041 5f415e41 5d415c41 5b415a41  ...A_A^A]A\A[AZA
 100a30 5941585d 5f5e5a59 5b58cffa fc505351  YAX]_^ZY[X...PSQ
 100a40 52565755 41504151 41524153 41544155  RVWUAPAQARASATAU
 100a50 41564157 bf2a0000 00e89209 0000415f  AVAW.*........A_
 100a60 415e415d 415c415b 415a4159 41585d5f  A^A]A\A[AZAYAX]_
 100a70 5e5a595b 58cffafc 50535152 56575541  ^ZY[X...PSQRVWUA
 100a80 50415141 52415341 54415541 564157bf  PAQARASATAUAVAW.
 100a90 2b000000 e8570900 00415f41 5e415d41  +....W...A_A^A]A
 100aa0 5c415b41 5a415941 585d5f5e 5a595b58  \A[AZAYAX]_^ZY[X
 100ab0 cffafc50 53515256 57554150 41514152  ...PSQRVWUAPAQAR
 100ac0 41534154 41554156 4157bf2c 000000e8  ASATAUAVAW.,....
 100ad0 1c090000 415f415e 415d415c 415b415a  ....A_A^A]A\A[AZ
 100ae0 41594158 5d5f5e5a 595b58cf fafc5053  AYAX]_^ZY[X...PS
 100af0 51525657 55415041 51415241 53415441  QRVWUAPAQARASATA
 100b00 55415641 57bf2d00 0000e8e1 08000041  UAVAW.-........A
 100b10 5f415e41 5d415c41 5b415a41 5941585d  _A^A]A\A[AZAYAX]
 100b20 5f5e5a59 5b58cffa fc505351 52565755  _^ZY[X...PSQRVWU
 100b30 41504151 41524153 41544155 41564157  APAQARASATAUAVAW
 100b40 bf2e0000 00e8a608 0000415f 415e415d  ..........A_A^A]
 100b50 415c415b 415a4159 41585d5f 5e5a595b  A\A[AZAYAX]_^ZY[
 100b60 58cffafc 50535152 56575541 50415141  X...PSQRVWUAPAQA
 100b70 52415341 54415541 564157bf 2f000000  RASATAUAVAW./...
 100b80 e86b0800 00415f41 5e415d41 5c415b41  .k...A_A^A]A\A[A
 100b90 5a415941 585d5f5e 5a595b58 cffafc50  ZAYAX]_^ZY[X...P
 100ba0 53515256 57554150 41514152 41534154  SQRVWUAPAQARASAT
 100bb0 41554156 4157bf30 000000e8 30080000  AUAVAW.0....0...
 100bc0 415f415e 415d415c 415b415a 41594158  A_A^A]A\A[AZAYAX
 100bd0 5d5f5e5a 595b58cf fafc5053 51525657  ]_^ZY[X...PSQRVW
 100be0 55415041 51415241 53415441 55415641  UAPAQARASATAUAVA
 100bf0 57bf3100 0000e8f5 07000041 5f415e41  W.1........A_A^A
 100c00 5d415c41 5b415a41 5941585d 5f5e5a59  ]A\A[AZAYAX]_^ZY
 100c10 5b58cffa f4ebfc48 ba007020 00000000  [X.....H..p ....
 100c20 004801ca 66890266 c7420208 00c64204  .H..f..f.B....B.
 100c30 00c64205 8f48c1e8 10668942 0648c1e8  ..B..H...f.B.H..
 100c40 10894208 c7420c00 000000c3 48ba0070  ..B..B......H..p
 100c50 20000000 00004801 ca668902 66c74202   .....H..f..f.B.
 100c60 0800c642 0400c642 058e48c1 e8106689  ...B...B..H...f.
 100c70 420648c1 e8108942 08c7420c 00000000  B.H....B..B.....
 100c80 c3eb0c66 ba2100b0 ffee66ba a100ee48  ...f.!....f....H
 100c90 31c0b900 02000048 bf007020 00000000  1......H..p ....
 100ca0 00f348ab 48b88a02 10000000 0000b900  ..H.H...........
 100cb0 000000e8 5fffffff 48b8c302 10000000  ...._...H.......
 100cc0 0000b910 000000e8 4bffffff 48b88a02  ........K...H...
 100cd0 10000000 0000b900 000000e8 37ffffff  ............7...
 100ce0 48b8c302 10000000 0000b910 000000e8  H...............
 100cf0 23ffffff 48b8fc02 10000000 0000b920  #...H.......... 
 100d00 000000e8 0fffffff 48b83503 10000000  ........H.5.....
 100d10 0000b930 000000e8 fbfeffff 48b86e03  ...0........H.n.
 100d20 10000000 0000b940 000000e8 e7feffff  .......@........
 100d30 48b8a703 10000000 0000b950 000000e8  H..........P....
 100d40 d3feffff 48b8e003 10000000 0000b960  ....H..........`
 100d50 000000e8 bffeffff 48b81904 10000000  ........H.......
 100d60 0000b970 000000e8 abfeffff 48b85204  ...p........H.R.
 100d70 10000000 0000b980 000000e8 97feffff  ................
 100d80 48b88b04 10000000 0000b990 000000e8  H...............
 100d90 83feffff 48b8c404 10000000 0000b9a0  ....H...........
 100da0 000000e8 6ffeffff 48b8fd04 10000000  ....o...H.......
 100db0 0000b9b0 000000e8 5bfeffff 48b83605  ........[...H.6.
 100dc0 10000000 0000b9c0 000000e8 47feffff  ............G...
 100dd0 48b86f05 10000000 0000b9d0 000000e8  H.o.............
 100de0 33feffff 48b8a805 10000000 0000b9e0  3...H...........
 100df0 000000e8 1ffeffff 48b8e105 10000000  ........H.......
 100e00 0000b900 010000e8 0bfeffff 48b81a06  ............H...
 100e10 10000000 0000b910 010000e8 f7fdffff  ................
 100e20 48b85306 10000000 0000b920 010000e8  H.S........ ....
 100e30 e3fdffff 48b88c06 10000000 0000b930  ....H..........0
 100e40 010000e8 cffdffff 48b8c506 10000000  ........H.......
 100e50 0000b940 010000e8 bbfdffff 48b8fe06  ...@........H...
 100e60 10000000 0000b950 010000e8 a7fdffff  .......P........
 100e70 48b83707 10000000 0000b9c0 010000e8  H.7.............
 100e80 93fdffff 48b87007 10000000 0000b9d0  ....H.p.........
 100e90 010000e8 7ffdffff 48b8a907 10000000  ........H.......
 100ea0 0000b9e0 010000e8 6bfdffff 48b8e207  ........k...H...
 100eb0 10000000 0000b900 020000e8 57fdffff  ............W...
 100ec0 48b81f08 10000000 0000b910 020000e8  H...............
 100ed0 43fdffff 48b85c08 10000000 0000b920  C...H.\........ 
 100ee0 020000e8 2ffdffff 48b89808 10000000  ..../...H.......
 100ef0 0000b930 020000e8 1bfdffff 48b8d408  ...0........H...
 100f00 10000000 0000b940 020000e8 07fdffff  .......@........
 100f10 48b81009 10000000 0000b950 020000e8  H..........P....
 100f20 f3fcffff 48b84c09 10000000 0000b960  ....H.L........`
 100f30 020000e8 dffcffff 48b88809 10000000  ........H.......
 100f40 0000b970 020000e8 cbfcffff 48b8c409  ...p........H...
 100f50 10000000 0000b980 020000e8 b7fcffff  ................
 100f60 48b8000a 10000000 0000b990 020000e8  H...............
 100f70 a3fcffff 48b83b0a 10000000 0000b9a0  ....H.;.........
 100f80 020000e8 8ffcffff 48b8760a 10000000  ........H.v.....
 100f90 0000b9b0 020000e8 7bfcffff 48b8b10a  ........{...H...
 100fa0 10000000 0000b9c0 020000e8 67fcffff  ............g...
 100fb0 48b8ec0a 10000000 0000b9d0 020000e8  H...............
 100fc0 53fcffff 48b8270b 10000000 0000b9e0  S...H.'.........
 100fd0 020000e8 3ffcffff 48b8620b 10000000  ....?...H.b.....
 100fe0 0000b9f0 020000e8 2bfcffff fa0f011c  ........+.......
 100ff0 25b02c10 0066b810 008ed88e c08ee08e  %.,..f..........
 101000 e88ed048 bc001020 00000000 0048bd00  ...H... .....H..
 101010 10200000 000000fb e962f1ff ffb80100  . .......b......
 101020 00000fa2 0fbae209 73180fba e2057318  ........s.....s.
 101030 b91b0000 000f320d 00080000 0f304831  ......2......0H1
 101040 c0c3b801 000000c3 b8020000 00c35150  ..............QP
 101050 b800f0ff ff4821c7 b91b0000 000f3248  .....H!.......2H
 101060 25ff0f00 004809f8 0f305859 c366baf8  %....H...0XY.f..
 101070 03eef466 2e0f1f84 00000000 000f1f00  ...f............
 101080 f30f1efa 448b0749 83f80876 5eba0800  ....D..I...v^...
 101090 0000488d 35831100 0041b908 00000090  ..H.5....A......
 1010a0 488d0417 83381577 278b0848 630c8e48  H....8.w'..Hc..H
 1010b0 01f13eff e10f1f00 48830c25 80001000  ..>.....H..%....
 1010c0 02488904 25880010 000f1f80 00000000  .H..%...........
 1010d0 8b480448 89c84801 ca83e007 74084489  .H.H..H.....t.D.
 1010e0 c929c148 01ca4c39 c272b5c3 0f1f4000  .).H..L9.r....@.
 1010f0 48810c25 80001000 00002000 48890425  H..%...... .H..%
 101100 28011000 ebca662e 0f1f8400 00000000  (.....f.........
 101110 48810c25 80001000 00001000 48890425  H..%........H..%
 101120 20011000 ebaa662e 0f1f8400 00000000   .....f.........
 101130 48810c25 80001000 00000800 48890425  H..%........H..%
 101140 18011000 eb8a662e 0f1f8400 00000000  ......f.........
 101150 48810c25 80001000 00000400 48890425  H..%........H..%
 101160 10011000 e967ffff ff0f1f80 00000000  .....g..........
 101170 48810c25 80001000 00000200 48890425  H..%........H..%
 101180 08011000 e947ffff ff0f1f80 00000000  .....G..........
 101190 48810c25 80001000 00000100 48890425  H..%........H..%
 1011a0 00011000 e927ffff ff0f1f80 00000000  .....'..........
 1011b0 48810c25 80001000 00800000 488d4808  H..%........H.H.
 1011c0 48890c25 f8001000 e903ffff ff0f1f00  H..%............
 1011d0 48810c25 80001000 00400000 488d4808  H..%.....@..H.H.
 1011e0 48890c25 f0001000 e9e3feff ff0f1f00  H..%............
 1011f0 48810c25 80001000 00200000 48890425  H..%..... ..H..%
 101200 e8001000 e9c7feff ff0f1f80 00000000  ................
 101210 48810c25 80001000 00100000 48890425  H..%........H..%
 101220 e0001000 e9a7feff ff0f1f80 00000000  ................
 101230 48810c25 80001000 00080000 48890425  H..%........H..%
 101240 d8001000 e987feff ff0f1f80 00000000  ................
 101250 48810c25 80001000 00040000 48890425  H..%........H..%
 101260 d0001000 e967feff ff0f1f80 00000000  .....g..........
 101270 48810c25 80001000 00020000 48890425  H..%........H..%
 101280 c8001000 e947feff ff0f1f80 00000000  .....G..........
 101290 48810c25 80001000 00010000 48890425  H..%........H..%
 1012a0 c0001000 e927feff ff0f1f80 00000000  .....'..........
 1012b0 48810c25 80001000 80000000 48890425  H..%........H..%
 1012c0 b8001000 e907feff ff0f1f80 00000000  ................
 1012d0 48830c25 80001000 40488904 25b00010  H..%....@H..%...
 1012e0 00e9eafd ffff662e 0f1f8400 00000000  ......f.........
 1012f0 48830c25 80001000 20488904 25a80010  H..%.... H..%...
 101300 00e9cafd ffff662e 0f1f8400 00000000  ......f.........
 101310 48830c25 80001000 10488904 25a00010  H..%.....H..%...
 101320 00e9aafd ffff662e 0f1f8400 00000000  ......f.........
 101330 48830c25 80001000 08488904 25980010  H..%.....H..%...
 101340 00e98afd ffff662e 0f1f8400 00000000  ......f.........
 101350 48830c25 80001000 04488904 25900010  H..%.....H..%...
 101360 00e96afd ffff662e 0f1f8400 00000000  ..j...f.........
 101370 f30f1efa 4883ec08 e803fdff fff60425  ....H..........%
 101380 81001000 017509eb fe0f1f80 00000000  .....u..........
 101390 488b3c25 c0001000 e8630800 00488b3c  H.<%.....c...H.<
 1013a0 25c00010 00e8f607 0000bfff 000000e8  %...............
 1013b0 3c060000 488d3dd1 0e0000e8 40060000  <...H.=.....@...
 1013c0 488b0425 90001000 488d7808 e82f0600  H..%....H.x../..
 1013d0 00488d3d 03100000 4883c408 e91f0600  .H.=....H.......
 1013e0 00662e0f 1f840000 0000000f 1f440000  .f...........D..
 1013f0 f30f1efa 4883ec08 488d3da4 0e0000e8  ....H...H.=.....
 101400 fc050000 b8b000e0 eec70000 00000048  ...............H
 101410 83c408c3 66662e0f 1f840000 00000090  ....ff..........
 101420 f30f1efa 41554154 4989fcbf 0000ff00  ....AUATI.......
 101430 554889d5 5389f331 f64881ec a8000000  UH..S..1.H......
 101440 e83b0700 0031ffe8 a4050000 4c89e748  .;...1......L..H
 101450 c7042548 00100000 000000e8 a0050000  ..%H............
 101460 488d053e 0e0000f7 db488904 24488d05  H..>.....H..$H..
 101470 3c0e0000 4519e431 db488944 2408488d  <...E..1.H.D$.H.
 101480 05360e00 004183c4 10488944 2410488d  .6...A...H.D$.H.
 101490 05310e00 00458d6c 24014d63 e4488944  .1...E.l$.Mc.H.D
 1014a0 2418488d 05280e00 00488944 2420488d  $.H..(...H.D$ H.
 1014b0 05270e00 00488944 2428488d 05260e00  .'...H.D$(H..&..
 1014c0 00488944 2430488d 05250e00 00488944  .H.D$0H..%...H.D
 1014d0 2438488d 05240e00 00488944 2440488d  $8H..$...H.D$@H.
 1014e0 05230e00 00488944 2448488d 05220e00  .#...H.D$HH.."..
 1014f0 00488944 2450488d 05210e00 00488944  .H.D$PH..!...H.D
 101500 2458488d 05200e00 00488944 2460488d  $XH.. ...H.D$`H.
 101510 051f0e00 00488944 2468488d 051e0e00  .....H.D$hH.....
 101520 00488944 2470488d 051d0e00 00488944  .H.D$pH......H.D
 101530 2478488d 051c0e00 00488984 24800000  $xH......H..$...
 101540 00488d05 180e0000 48898424 88000000  .H......H..$....
 101550 488d0514 0e000048 89842490 000000eb  H......H..$.....
 101560 280f1f80 00000000 4863c383 c301488b  (.......Hc....H.
 101570 3cc4e889 04000048 8b7d00e8 e0040000  <......H.}......
 101580 83fb1374 204883c5 0883fb0f 75da4a8b  ...t H......u.J.
 101590 3ce44489 ebe86604 0000488b 7d00e8bd  <.D...f...H.}...
 1015a0 040000eb e0ebfe66 0f1f8400 00000000  .......f........
 1015b0 f30f1efa 505831f6 4889fa48 83ec0848  ....PX1.H..H...H
 1015c0 8d3db00d 0000e855 feffff0f 1f440000  .=.....U.....D..
 1015d0 f30f1efa 505831f6 4889fa48 83ec0848  ....PX1.H..H...H
 1015e0 8d3da20d 0000e835 feffff0f 1f440000  .=.....5.....D..
 1015f0 f30f1efa 505831f6 4889fa48 83ec0848  ....PX1.H..H...H
 101600 8d3d8b0d 0000e815 feffff0f 1f440000  .=...........D..
 101610 f30f1efa 505831f6 4889fa48 83ec0848  ....PX1.H..H...H
 101620 8d3d850d 0000e8f5 fdffff0f 1f440000  .=...........D..
 101630 f30f1efa 505831f6 4889fa48 83ec0848  ....PX1.H..H...H
 101640 8d3d730d 0000e8d5 fdffff0f 1f440000  .=s..........D..
 101650 f30f1efa 505831f6 4889fa48 83ec0848  ....PX1.H..H...H
 101660 8d3d5f0d 0000e8b5 fdffff0f 1f440000  .=_..........D..
 101670 f30f1efa 505831f6 4889fa48 83ec0848  ....PX1.H..H...H
 101680 8d3d570d 0000e895 fdffff0f 1f440000  .=W..........D..
 101690 f30f1efa 505831f6 4889fa48 83ec0848  ....PX1.H..H...H
 1016a0 8d3d490d 0000e875 fdffff0f 1f440000  .=I....u.....D..
 1016b0 f30f1efa 5058be01 00000048 89fa4883  ....PX.....H..H.
 1016c0 ec08488d 3d3e0d00 00e852fd ffff6690  ..H.=>....R...f.
 1016d0 f30f1efa 505831f6 4889fa48 83ec0848  ....PX1.H..H...H
 1016e0 8d3d4a14 0000e835 fdffff0f 1f440000  .=J....5.....D..
 1016f0 f30f1efa 5058be01 00000048 89fa4883  ....PX.....H..H.
 101700 ec08488d 3d0e0d00 00e812fd ffff6690  ..H.=.........f.
 101710 f30f1efa 5058be01 00000048 89fa4883  ....PX.....H..H.
 101720 ec08488d 3dfd0c00 00e8f2fc ffff6690  ..H.=.........f.
 101730 f30f1efa 5058be01 00000048 89fa4883  ....PX.....H..H.
 101740 ec08488d 3df40c00 00e8d2fc ffff6690  ..H.=.........f.
 101750 f30f1efa 5058be01 00000048 89fa4883  ....PX.....H..H.
 101760 ec08488d 3deb0c00 00e8b2fc ffff6690  ..H.=.........f.
 101770 f30f1efa 5058be01 00000048 89fa4883  ....PX.....H..H.
 101780 ec08488d 3de70c00 00e892fc ffff6690  ..H.=.........f.
 101790 f30f1efa 505831f6 4889fa48 83ec0848  ....PX1.H..H...H
 1017a0 8d3daa13 0000e875 fcffff0f 1f440000  .=.....u.....D..
 1017b0 f30f1efa 5058be01 00000048 89fa4883  ....PX.....H..H.
 1017c0 ec08488d 3db50c00 00e852fc ffff6690  ..H.=.....R...f.
 1017d0 f30f1efa 505831f6 4889fa48 83ec0848  ....PX1.H..H...H
 1017e0 8d3dab0c 0000e835 fcffff0f 1f440000  .=.....5.....D..
 1017f0 f30f1efa 505831f6 4889fa48 83ec0848  ....PX1.H..H...H
 101800 8d3d6a13 0000e815 fcffff0f 1f440000  .=j..........D..
 101810 f30f1efa 505831f6 4889fa48 83ec0848  ....PX1.H..H...H
 101820 8d3d7c0c 0000e8f5 fbffff0f 1f440000  .=|..........D..
 101830 f30f1efa 5058be01 00000048 89fa4883  ....PX.....H..H.
 101840 ec08488d 3d6e0c00 00e8d2fb ffff6690  ..H.=n........f.
 101850 f30f1efa 505831f6 4889fa48 83ec0848  ....PX1.H..H...H
 101860 8d3d3213 0000e8b5 fbffff0f 1f440000  .=2..........D..
 101870 f30f1efa 5058be01 00000048 89fa4883  ....PX.....H..H.
 101880 ec08488d 3d371300 00e892fb ffff6690  ..H.=7........f.
 101890 f30f1efa 505831f6 4889fa48 83ec0848  ....PX1.H..H...H
 1018a0 8d3d2f0c 0000e875 fbffff0f 1f440000  .=/....u.....D..
 1018b0 f30f1efa 505831f6 4889fa48 83ec0848  ....PX1.H..H...H
 1018c0 8d3d250c 0000e855 fbffff0f 1f440000  .=%....U.....D..
 1018d0 f30f1efa 0faf3425 70001000 488b0425  ......4%p...H..%
 1018e0 60001000 01fe4863 f68914b0 c30f1f00  `.....Hc........
 1018f0 f30f1efa 4157480f bec7488d 15df1700  ....AWH...H.....
 101900 0041ba01 00000041 56415541 5455bd08  .A.....AVAUATU..
 101910 00000053 4c8b2c25 48001000 bb010000  ...SL.,%H.......
 101920 004c8b24 25400010 00488b34 c24489ef  .L.$%@...H.4.D..
 101930 4c8b0c25 70001000 4c8b0425 60001000  L..%p...L..%`...
 101940 c1e70446 8d1ce500 0000000f 1f440000  ...F.........D..
 101950 89e989d8 478d3413 4429d1d3 e089c131  ....G.4.D).....1
 101960 c0eb250f 1f440000 410fafd1 448b3c25  ..%..D..A...D.<%
 101970 50001000 4883c001 4401f248 63d24589  P...H...D..Hc.E.
 101980 3c904883 f810742b 0fbe1406 85ca8d14  <.H...t+........
 101990 0775d541 0fafd144 8b3c2558 00100048  .u.A...D.<%X...H
 1019a0 83c00144 01f24863 d245893c 904883f8  ...D..Hc.E.<.H..
 1019b0 1075d541 83c20141 83fa0975 93498d44  .u.A...A...u.I.D
 1019c0 24014c3b 24253000 1000750e 4983c501  $.L;$%0...u.I...
 1019d0 31c04c89 2c254800 10004889 04254000  1.L.,%H...H..%@.
 1019e0 10005b5d 415c415d 415e415f c30f1f00  ..[]A\A]A^A_....
 1019f0 f30f1efa 0f1f4000 ebfe660f 1f440000  ......@...f..D..
 101a00 f30f1efa 0fb60784 c0744d53 488d5f01  .........tMSH._.
 101a10 eb27660f 1f440000 48830425 48001000  .'f..D..H..%H...
 101a20 014883c3 0148c704 25400010 00000000  .H...H..%@......
 101a30 000fb643 ff84c074 183c0a74 db0fbef8  ...C...t.<.t....
 101a40 4883c301 e8a7feff ff0fb643 ff84c075  H..........C...u
 101a50 e85bc30f 1f440000 c30f1f80 00000000  .[...D..........
 101a60 f30f1efa 554889fd bf300000 0053488d  ....UH...0...SH.
 101a70 1d8e0a00 00eb2b66 0f1f8400 00000000  ......+f........
 101a80 48830425 48001000 014883c3 0148c704  H..%H....H...H..
 101a90 25400010 00000000 000fbe7b ff4084ff  %@.........{.@..
 101aa0 74174080 ff0a74d8 e843feff ff0fbe3b  t.@...t..C.....;
 101ab0 4883c301 4084ff75 e9bb3c00 0000eb10  H...@..u..<.....
 101ac0 83c73083 eb04e825 feffff83 fbfc7424  ..0....%......t$
 101ad0 4889ef89 d948d3ef 83e70f83 ff097ee0  H....H........~.
 101ae0 83c75783 eb04400f b6ffe801 feffff83  ..W...@.........
 101af0 fbfc75dc 5b5dc366 0f1f8400 00000000  ..u.[].f........
 101b00 f30f1efa 554889fd bf300000 0053488d  ....UH...0...SH.
 101b10 1df10900 00eb2b66 0f1f8400 00000000  ......+f........
 101b20 48830425 48001000 014883c3 0148c704  H..%H....H...H..
 101b30 25400010 00000000 000fbe7b ff4084ff  %@.........{.@..
 101b40 74174080 ff0a74d8 e8a3fdff ff0fbe3b  t.@...t........;
 101b50 4883c301 4084ff75 e9bb3f00 00006690  H...@..u..?...f.
 101b60 89d94889 e848d3e8 83e0018d 7830e87d  ..H..H......x0.}
 101b70 fdffff83 eb0173e8 5b5dc30f 1f440000  ......s.[]...D..
 101b80 f30f1efa 89f84889 04255000 100089f0  ......H..%P.....
 101b90 48890425 58001000 c30f1f80 00000000  H..%X...........
 101ba0 f30f1efa 0fb74714 66c1e803 0fb7c048  ......G.f......H
 101bb0 89042530 0010008b 471848c7 04254000  ..%0....G.H..%@.
 101bc0 10000000 000048c7 04254800 10000000  ......H..%H.....
 101bd0 000066c1 e80448c7 04255000 100000ff  ..f...H..%P.....
 101be0 00000fb7 c0488904 25380010 0048c704  .....H..%8...H..
 101bf0 25580010 00000000 00c3660f 1f440000  %X........f..D..
 101c00 f30f1efa 488b4708 48890425 60001000  ....H.G.H..%`...
 101c10 8b471448 89042570 0010008b 47184889  .G.H..%p....G.H.
 101c20 04257800 10008b47 10488904 25680010  .%x....G.H..%h..
 101c30 00c3662e 0f1f8400 00000000 0f1f4000  ..f...........@.
 101c40 f30f1efa baf80300 0089f8ee c30f1f00  ................
 101c50 f30f1efa 0fb60784 c0741948 83c701ba  .........t.H....
 101c60 f8030000 0f1f4000 ee0fb607 4883c701  ......@.....H...
 101c70 84c075f4 c366662e 0f1f8400 00000000  ..u..ff.........
 101c80 f30f1efa 488d0d78 080000b8 30000000  ....H..x....0...
 101c90 baf80300 000f1f00 ee0fb601 4883c101  ............H...
 101ca0 84c075f4 b93c0000 00baf803 0000eb0c  ..u..<..........
 101cb0 83c030ee 83e90483 f9fc741a 4889f848  ..0.......t.H..H
 101cc0 d3e883e0 0f83f809 7ee683c0 57ee83e9  ........~...W...
 101cd0 0483f9fc 75e6c366 0f1f8400 00000000  ....u..f........
 101ce0 f30f1efa 488d4f14 0f1f8400 00000000  ....H.O.........
 101cf0 0fb61748 83c70101 d04839cf 75f2a811  ...H.....H9.u...
 101d00 7501c3bf 0000ff00 4883ec08 31f6e86d  u.......H...1..m
 101d10 feffff48 8d3dc60e 0000e8e1 fcffffeb  ...H.=..........
 101d20 fe66662e 0f1f8400 00000000 0f1f4000  .ff...........@.
 101d30 f30f1efa 4883ec08 488d4f14 4889f831  ....H...H.O.H..1
 101d40 d20f1f80 00000000 02104883 c0014839  ..........H...H9
 101d50 c875f548 8d4f2484 d275350f 1f440000  .u.H.O$..u5..D..
 101d60 02104883 c0014839 c875f584 d2750548  ..H...H9.u...u.H
 101d70 83c408c3 bf0000ff 0031f6e8 00feffff  .........1......
 101d80 488d3d81 0e0000e8 74fcffff ebfe6690  H.=.....t.....f.
 101d90 bf0000ff 0031f6e8 e4fdffff 488d3d65  .....1......H.=e
 101da0 0e0000e8 58fcffff ebfe660f 1f440000  ....X.....f..D..
 101db0 f30f1efa 8b470485 c0741c83 e801488d  .....G...t....H.
 101dc0 54070131 c00f1f00 02074883 c7014839  T..1......H...H9
 101dd0 d775f584 c07509c3 0f1f8400 00000000  .u...u..........
 101de0 bf0000ff 004883ec 0831f6e8 90fdffff  .....H...1......
 101df0 488d3d39 0e0000e8 04fcffff ebfe6690  H.=9..........f.
 101e00 f30f1efa 85d27e20 4863d231 c0eb0a90  ......~ Hc.1....
 101e10 4883c001 4839d074 0f0fb60c 06380c07  H...H9.t.....8..
 101e20 74ee31c0 c30f1f00 b8010000 00c36690  t.1...........f.
 101e30 f30f1efa 8b770483 fe2c7664 53ba2c00  .....w...,vdS.,.
 101e40 0000488d 0d2b0400 000f1f80 00000000  ..H..+..........
 101e50 4863da48 01fb803b 0577210f b6034863  Hc.H...;.w!...Hc
 101e60 04814801 c83effe0 0f1f8400 00000000  ..H..>..........
 101e70 0fb64301 01c239f2 72d65bc3 31f6bf00  ..C...9.r.[.1...
 101e80 00ff00e8 f8fcffff 488d3dc9 0d0000e8  ........H.=.....
 101e90 6cfbffff 0fb63be8 c4fbffff ebfe6690  l.....;.......f.
 101ea0 c366662e 0f1f8400 00000000 0f1f4000  .ff...........@.
 101eb0 f30f1efa c366662e 0f1f8400 00000000  .....ff.........
 101ec0 f30f1efa 41574156 41554154 55534883  ....AWAVAUATUSH.
 101ed0 ec28837f 042c4889 7c241848 c7442410  .(...,H.|$.H.D$.
 101ee0 2c000000 0f861301 00004c8d 2dea0400  ,.........L.-...
 101ef0 00488b74 2418488b 4c241048 8d2df903  .H.t$.H.L$.H.-..
 101f00 00000fb6 540e0a4c 8b3c0e89 54240c3a  ....T..L.<..T$.:
 101f10 540e0b0f 83cb0000 008b4424 0cc74424  T.........D$..D$
 101f20 04000000 00c1e014 89442408 0f1f4000  .........D$...@.
 101f30 448b6424 084531f6 440b6424 040f1f00  D.d$.E1.D.d$....
 101f40 4489e344 09f34863 db4c01fb 66833bff  D..D..Hc.L..f.;.
 101f50 744b4c89 efe8a6fa ffff0fb7 3be8fefa  tKL.........;...
 101f60 ffff4889 efe896fa ffff0fb7 7b02e8ed  ..H.........{...
 101f70 faffff48 89efe885 faffff0f b67b0be8  ...H.........{..
 101f80 dcfaffff 4889efe8 74faffff 0fb67b0a  ....H...t.....{.
 101f90 e8cbfaff ff4c89ef e863faff ff4181c6  .....L...c...A..
 101fa0 00100000 4181fe00 80000075 93814424  ....A......u..D$
 101fb0 04008000 008b4424 043d0000 10000f85  ......D$.=......
 101fc0 6cffffff 488b4424 18488b4c 24108344  l...H.D$.H.L$..D
 101fd0 240c018b 54240c0f b644080b 39d00f8f  $...T$...D..9...
 101fe0 35ffffff 488b7424 18488344 24101048  5...H.t$.H.D$..H
 101ff0 8b442410 3946040f 87f4feff ff4883c4  .D$.9F.......H..
 102000 285b5d41 5c415d41 5e415fc3 0f1f4000  ([]A\A]A^A_...@.
 102010 f30f1efa 41574156 41554154 55534883  ....AWAVAUATUSH.
 102020 ec088b77 0485f60f 84130100 008d46ff  ...w..........F.
 102030 31d2488d 4c070148 89f8660f 1f440000  1.H.L..H..f..D..
 102040 02104883 c0014839 c875f584 d20f85cd  ..H...H9.u......
 102050 0000008d 6edc488d 5f24c1ed 0374504c  ....n.H._$...tPL
 102060 8d3db304 00004531 ed4c8d35 9c040000  .=....E1.L.5....
 102070 4d8d67fc 0f1f4000 4a8b3ceb 488d0592  M.g...@.J.<.H...
 102080 040000ba 41000000 4889f94c 29e1eb03  ....A...H..L)...
 102090 0fb61038 14017528 4883c001 4c39f875  ...8..u(H...L9.u
 1020a0 efe88afd ffff4983 c5014439 ed7fc948  ......I...D9...H
 1020b0 83c4085b 5d415c41 5d415e41 5fc36690  ...[]A\A]A^A_.f.
 1020c0 488d0541 04000048 89f9ba46 00000048  H..A...H...F...H
 1020d0 29c1eb10 0f1f4000 4883c001 4939c674  ).....@.H...I9.t
 1020e0 c50fb610 38140174 ef4c8d0d 21040000  ....8..t.L..!...
 1020f0 4889f9ba 4d000000 498d41fc 4829c1eb  H...M...I.A.H)..
 102100 0a0f1f80 00000000 0fb61038 14017596  ...........8..u.
 102110 4883c001 4939c175 efe8a2fd ffffeb86  H...I9.u........
 102120 bf0000ff 0031f6e8 54faffff 488d3dfd  .....1..T...H.=.
 102130 0a0000e8 c8f8ffff ebfe660f 1f440000  ..........f..D..
 102140 488d5f24 bdfbffff 1fe911ff ffff6690  H._$..........f.
 102150 f30f1efa 4883ec08 e8c0eeff ff85c074  ....H..........t
 102160 0f83f801 742683f8 027413eb fe0f1f00  ....t&...t......
 102170 bf0000e0 ee4883c4 08e9d0ee ffff488d  .....H........H.
 102180 3d950300 00e876f8 ffffebdf 488d3d7f  =.....v.....H.=.
 102190 030000e8 68f8ffff ebd1660f 1f440000  ....h.....f..D..
 1021a0 f30f1efa b8f000e0 ee4883ec 08c70020  .........H..... 
 1021b0 010000e8 65eeffff 85c07414 83f80174  ....e.....t....t
 1021c0 4a83f802 7437ebfe 0f1f8400 00000000  J...t7..........
 1021d0 bf0000e0 eee874ee ffffba20 03e0ee8b  ......t.... ....
 1021e0 022500ff f8ff0d20 00020089 02b88003  .%..... ........
 1021f0 e0eec700 00000010 4883c408 c3488d3d  ........H....H.=
 102200 16030000 e8f7f7ff ffebbb48 8d3d0003  ...........H.=..
 102210 0000e8e9 f7ffffeb ad                 .........       
Contents of section .rodata:
 10221c b4eeffff 9ceeffff 34f1ffff 14f1ffff  ........4.......
 10222c f4f0ffff d4f0ffff b4f0ffff 94f0ffff  ................
 10223c 74f0ffff 54f0ffff 34f0ffff 14f0ffff  t...T...4.......
 10224c f4efffff d4efffff b4efffff 94efffff  ................
 10225c 74efffff 54efffff 34efffff 14efffff  t...T...4.......
 10226c f4eeffff d4eeffff fcfbffff fcfbffff  ................
 10227c fcfbffff fcfbffff fcfbffff fcfbffff  ................
Contents of section .rodata.str1.1:
 10228c 6b65726e 656c2077 61732062 6f6f7465  kernel was boote
 10229c 64206279 3a20002e 000a2052 31352020  d by: .... R15  
 1022ac 203a2000 0a205231 34202020 3a20000a   : .. R14   : ..
 1022bc 20523133 2020203a 20000a20 52313220   R13   : .. R12 
 1022cc 20203a20 000a2052 31312020 203a2000    : .. R11   : .
 1022dc 0a205231 30202020 3a20000a 20523920  . R10   : .. R9 
 1022ec 2020203a 20000a20 52382020 20203a20     : .. R8    : 
 1022fc 000a2052 42502020 203a2000 0a205244  .. RBP   : .. RD
 10230c 49202020 3a20000a 20525349 2020203a  I   : .. RSI   :
 10231c 20000a20 52445820 20203a20 000a2052   .. RDX   : .. R
 10232c 43582020 203a2000 0a205242 58202020  CX   : .. RBX   
 10233c 3a20000a 20524158 2020203a 20000a20  : .. RAX   : .. 
 10234c 45525220 20203a20 000a2052 49502020  ERR   : .. RIP  
 10235c 203a2000 0a204353 20202020 3a20000a   : .. CS    : ..
 10236c 2045464c 4147533a 20000a20 44495649   EFLAGS: .. DIVI
 10237c 53494f4e 20455252 4f520a00 0a204445  SION ERROR... DE
 10238c 4255470a 000a204e 4f4e204d 41534b41  BUG... NON MASKA
 10239c 424c4520 494e5445 52525550 540a000a  BLE INTERRUPT...
 1023ac 20425245 414b504f 494e540a 000a204f   BREAKPOINT... O
 1023bc 56455246 4c4f570a 000a2042 4f554e44  VERFLOW... BOUND
 1023cc 2052414e 47452045 58434545 4445440a   RANGE EXCEEDED.
 1023dc 000a2049 4e56414c 4944204f 50434f44  .. INVALID OPCOD
 1023ec 450a000a 20444556 49434520 4e4f5420  E... DEVICE NOT 
 1023fc 41564149 4c41424c 450a000a 20444f55  AVAILABLE... DOU
 10240c 424c4520 4641554c 540a000a 20494e56  BLE FAULT... INV
 10241c 414c4944 20545353 0a000a20 5345474d  ALID TSS... SEGM
 10242c 454e5420 4e4f5420 50524553 454e540a  ENT NOT PRESENT.
 10243c 000a2053 5441434b 20534547 4d454e54  .. STACK SEGMENT
 10244c 20464155 4c540a00 0a204745 4e455241   FAULT... GENERA
 10245c 4c205052 4f544543 54494f4e 20464155  L PROTECTION FAU
 10246c 4c540a00 0a205041 47452046 41554c54  LT... PAGE FAULT
 10247c 0a000a20 414c4947 4e4d454e 54204348  ... ALIGNMENT CH
 10248c 45434b0a 000a204d 41434849 4e452043  ECK... MACHINE C
 10249c 4845434b 0a000a20 56495254 55414c20  HECK... VIRTUAL 
 1024ac 45584345 5054494f 4e0a000a 20434f4e  EXCEPTION... CON
 1024bc 54524f4c 2050524f 54454354 494f4e20  TROL PROTECTION 
 1024cc 4f564552 52554e0a 000a2053 45435552  OVERRUN... SECUR
 1024dc 49545920 45584345 5054494f 4e0a000a  ITY EXCEPTION...
 1024ec 20465055 20455252 4f522049 4e544552   FPU ERROR INTER
 1024fc 52555054 0a003078 00306200 46414350  RUPT..0x.0b.FACP
 10250c 004d4346 47006e6f 20415049 43006e6f  .MCFG.no APIC.no
 10251c 204d5352 00                           MSR.           
Contents of section .eh_frame:
 102528 14000000 00000000 017a5200 01781001  .........zR..x..
 102538 1b0c0708 90010000 10000000 1c000000  ................
 102548 38ebffff e6020000 00000000 18000000  8...............
 102558 30000000 14eeffff 71000000 00480e10  0.......q....H..
 102568 02640e08 00000000 14000000 4c000000  .d..........L...
 102578 78eeffff 24000000 00480e10 5b0e0800  x...$....H..[...
 102588 28000000 64000000 90eeffff 87010000  (...d...........
 102598 00460e10 8d02420e 188c0349 0e208604  .F....B....I. ..
 1025a8 440e2883 054b0ed0 01000000 18000000  D.(..K..........
 1025b8 90000000 f4efffff 1b000000 00450e10  .............E..
 1025c8 410e0849 0e100000 18000000 ac000000  A..I............
 1025d8 f8efffff 1b000000 00450e10 410e0849  .........E..A..I
 1025e8 0e100000 18000000 c8000000 fcefffff  ................
 1025f8 1b000000 00450e10 410e0849 0e100000  .....E..A..I....
 102608 18000000 e4000000 00f0ffff 1b000000  ................
 102618 00450e10 410e0849 0e100000 18000000  .E..A..I........
 102628 00010000 04f0ffff 1b000000 00450e10  .............E..
 102638 410e0849 0e100000 18000000 1c010000  A..I............
 102648 08f0ffff 1b000000 00450e10 410e0849  .........E..A..I
 102658 0e100000 18000000 38010000 0cf0ffff  ........8.......
 102668 1b000000 00450e10 410e0849 0e100000  .....E..A..I....
 102678 18000000 54010000 10f0ffff 1b000000  ....T...........
 102688 00450e10 410e0849 0e100000 18000000  .E..A..I........
 102698 70010000 14f0ffff 1e000000 00450e10  p............E..
 1026a8 410e084c 0e100000 18000000 8c010000  A..L............
 1026b8 18f0ffff 1b000000 00450e10 410e0849  .........E..A..I
 1026c8 0e100000 18000000 a8010000 1cf0ffff  ................
 1026d8 1e000000 00450e10 410e084c 0e100000  .....E..A..L....
 1026e8 18000000 c4010000 20f0ffff 1e000000  ........ .......
 1026f8 00450e10 410e084c 0e100000 18000000  .E..A..L........
 102708 e0010000 24f0ffff 1e000000 00450e10  ....$........E..
 102718 410e084c 0e100000 18000000 fc010000  A..L............
 102728 28f0ffff 1e000000 00450e10 410e084c  (........E..A..L
 102738 0e100000 18000000 18020000 2cf0ffff  ............,...
 102748 1e000000 00450e10 410e084c 0e100000  .....E..A..L....
 102758 18000000 34020000 30f0ffff 1b000000  ....4...0.......
 102768 00450e10 410e0849 0e100000 18000000  .E..A..I........
 102778 50020000 34f0ffff 1e000000 00450e10  P...4........E..
 102788 410e084c 0e100000 18000000 6c020000  A..L........l...
 102798 38f0ffff 1b000000 00450e10 410e0849  8........E..A..I
 1027a8 0e100000 18000000 88020000 3cf0ffff  ............<...
 1027b8 1b000000 00450e10 410e0849 0e100000  .....E..A..I....
 1027c8 18000000 a4020000 40f0ffff 1b000000  ........@.......
 1027d8 00450e10 410e0849 0e100000 18000000  .E..A..I........
 1027e8 c0020000 44f0ffff 1e000000 00450e10  ....D........E..
 1027f8 410e084c 0e100000 18000000 dc020000  A..L............
 102808 48f0ffff 1b000000 00450e10 410e0849  H........E..A..I
 102818 0e100000 18000000 f8020000 4cf0ffff  ............L...
 102828 1e000000 00450e10 410e084c 0e100000  .....E..A..L....
 102838 18000000 14030000 50f0ffff 1b000000  ........P.......
 102848 00450e10 410e0849 0e100000 18000000  .E..A..I........
 102858 30030000 54f0ffff 1b000000 00450e10  0...T........E..
 102868 410e0849 0e100000 10000000 4c030000  A..I........L...
 102878 58f0ffff 1d000000 00000000 44000000  X...........D...
 102888 60030000 64f0ffff fd000000 00460e10  `...d........F..
 102898 8f02530e 188e0342 0e208d04 420e288c  ..S....B. ..B.(.
 1028a8 05410e30 8606460e 38830702 cfc30e30  .A.0..F.8......0
 1028b8 41c60e28 42cc0e20 42cd0e18 42ce0e10  A..(B.. B...B...
 1028c8 42cf0e08 10000000 a8030000 1cf1ffff  B...............
 1028d8 0a000000 00000000 18000000 bc030000  ................
 1028e8 18f1ffff 59000000 004c0e10 83020246  ....Y....L.....F
 1028f8 c30e0800 20000000 d8030000 5cf1ffff  .... .......\...
 102908 97000000 00450e10 8602490e 18830302  .....E....I.....
 102918 87c30e10 41c60e08 20000000 fc030000  ....A... .......
 102928 d8f1ffff 7b000000 00450e10 8602490e  ....{....E....I.
 102938 18830302 6bc30e10 41c60e08 10000000  ....k...A.......
 102948 20040000 34f2ffff 19000000 00000000   ...4...........
 102958 10000000 34040000 40f2ffff 5a000000  ....4...@...Z...
 102968 00000000 10000000 48040000 8cf2ffff  ........H.......
 102978 32000000 00000000 10000000 5c040000  2...........\...
 102988 b8f2ffff 0d000000 00000000 10000000  ................
 102998 70040000 b4f2ffff 25000000 00000000  p.......%.......
 1029a8 14000000 84040000 d0f2ffff 57000000  ............W...
 1029b8 00000000 00000000 10000000 9c040000  ................
 1029c8 18f3ffff 41000000 006c0e10 18000000  ....A....l......
 1029d8 b0040000 54f3ffff 7a000000 00480e10  ....T...z....H..
 1029e8 7b0a0e08 410b0000 10000000 cc040000  {...A...........
 1029f8 b8f3ffff 4e000000 00790e10 10000000  ....N....y......
 102a08 e0040000 f4f3ffff 2e000000 00000000  ................
 102a18 20000000 f4040000 10f4ffff 71000000   ...........q...
 102a28 004d0e10 83027e0a c30e0841 0b640e08  .M....~....A.d..
 102a38 c3000000 10000000 18050000 6cf4ffff  ............l...
 102a48 05000000 00000000 4c000000 2c050000  ........L...,...
 102a58 68f4ffff 4c010000 00460e10 8f02420e  h...L....F....B.
 102a68 188e0342 0e208d04 420e288c 05410e30  ...B. ..B.(..A.0
 102a78 8606410e 38830744 0e60032f 010e3841  ..A.8..D.`./..8A
 102a88 c30e3041 c60e2842 cc0e2042 cd0e1842  ..0A..(B.. B...B
 102a98 ce0e1042 cf0e0800 54000000 7c050000  ...B....T...|...
 102aa8 68f5ffff 3e010000 00460e10 8f02420e  h...>....F....B.
 102ab8 188e0342 0e208d04 420e288c 05410e30  ...B. ..B.(..A.0
 102ac8 8606410e 38830744 0e400291 0a0e3841  ..A.8..D.@....8A
 102ad8 c30e3041 c60e2842 cc0e2042 cd0e1842  ..0A..(B.. B...B
 102ae8 ce0e1042 cf0e0843 0b000000 00000000  ...B...C........
 102af8 18000000 d4050000 50f6ffff 4a000000  ........P...J...
 102b08 00480e10 610a0e08 450b0000 18000000  .H..a...E.......
 102b18 f0050000 84f6ffff 79000000 004d0e10  ........y....M..
 102b28 024f0a0e 08410b00                    .O...A..        
Contents of section .rodata.str1.8:
 102b30 0a20434f 50524f43 4553534f 52205345  . COPROCESSOR SE
 102b40 474d454e 54204f56 45525255 4e0a0000  GMENT OVERRUN...
 102b50 0a205838 3720464c 4f415449 4e472050  . X87 FLOATING P
 102b60 4f494e54 20455843 45505449 4f4e0a00  OINT EXCEPTION..
 102b70 0a205349 4d442046 4c4f4154 494e4720  . SIMD FLOATING 
 102b80 504f494e 54204558 43455054 494f4e0a  POINT EXCEPTION.
 102b90 00000000 00000000 0a204859 50455256  ......... HYPERV
 102ba0 49534f52 20494e4a 45435449 4f4e2045  ISOR INJECTION E
 102bb0 58434550 54494f4e 0a000000 00000000  XCEPTION........
 102bc0 0a20564d 4d20434f 4d4d554e 49434154  . VMM COMMUNICAT
 102bd0 494f4e20 45584345 5054494f 4e0a0000  ION EXCEPTION...
 102be0 4552524f 523a2052 5344505f 74206368  ERROR: RSDP_t ch
 102bf0 65636b73 756d2069 73206e6f 74207661  ecksum is not va
 102c00 6c696400 00000000 4552524f 523a2058  lid.....ERROR: X
 102c10 5344505f 74206368 65636b73 756d2069  SDP_t checksum i
 102c20 73206e6f 74207661 6c696400 00000000  s not valid.....
 102c30 4552524f 523a2058 53445420 63686563  ERROR: XSDT chec
 102c40 6b73756d 20697320 6e6f7420 76616c69  ksum is not vali
 102c50 64000000 00000000 0a455252 4f523a20  d........ERROR: 
 102c60 63616e6e 6f742070 61727365 204d4144  cannot parse MAD
 102c70 5420656e 74727920 6f662074 7970653a  T entry of type:
 102c80 2000                                  .              
Contents of section .data:
 102c90 00000000 00000000 00000000 009a2000  .............. .
 102ca0 00000000 00920000 00001900 902c1000  .............,..
 102cb0 ff0f0070 20000000 00000000 00000000  ...p ...........
 102cc0 00000000 0000007c 00000000 00000000  .......|........
 102cd0 00000000 00000000 00001818 00000000  ................
 102ce0 00000000 00000606 00000606 0c000000  ................
 102cf0 00000000 00000606 00000606 00000000  ................
 102d00 0000007c c6c6c67c 0606060c 78000000  ...|...|....x...
 102d10 0000007c c6c6c67c c6c6c6c6 7c000000  ...|...|....|...
 102d20 000000fe c606060c 18303030 30000000  .........0000...
 102d30 00000038 60c0c0fc c6c6c6c6 7c000000  ...8`.......|...
 102d40 000000fe c0c0c0fc 060606c6 7c000000  ............|...
 102d50 0000000c 1c3c6ccc ccfe0c0c 1e000000  .....<l.........
 102d60 0000007c c606063c 060606c6 7c000000  ...|...<....|...
 102d70 0000007c c6060c18 3060c0c6 fe000000  ...|....0`......
 102d80 00000018 38781818 18181818 7e000000  ....8x......~...
 102d90 00000038 6cc6c6d6 d6c6c66c 38000000  ...8l......l8...
 102da0 00000000 0000fecc 183060c6 fe000000  .........0`.....
 102db0 00000000 0000c6c6 c6c6c6c6 7e060cf8  ............~...
 102dc0 00000000 0000c66c 3838386c c6000000  .......l888l....
 102dd0 00000000 0000c6c6 d6d6d6fe 6c000000  ............l...
 102de0 00000000 0000c6c6 c6c6c66c 38000000  ...........l8...
 102df0 00000000 0000cccc cccccccc 76000000  ............v...
 102e00 00000010 3030fc30 30303036 1c000000  ....00.00006....
 102e10 00000000 00007cc6 60380cc6 7c000000  ......|.`8..|...
 102e20 00000000 0000dc76 66606060 f0000000  .......vf```....
 102e30 00000000 000076cc cccccccc 7c0c0c1e  ......v.....|...
 102e40 00000000 0000dc66 66666666 7c6060f0  .......fffff|``.
 102e50 00000000 00007cc6 c6c6c6c6 7c000000  ......|.....|...
 102e60 00000000 0000dc66 66666666 66000000  .......ffffff...
 102e70 00000000 0000ecfe d6d6d6d6 c6000000  ................
 102e80 00000038 18181818 18181818 3c000000  ...8........<...
 102e90 000000e0 6060666c 78786c66 e6000000  ....``flxxlf....
 102ea0 00000006 06000e06 06060606 06c6c67c  ...............|
 102eb0 00000018 18003818 18181818 3c000000  ......8.....<...
 102ec0 000000e0 60606c76 66666666 e6000000  ....``lvffff....
 102ed0 00000000 000076cc cccccccc 7c0ccc78  ......v.....|..x
 102ee0 0000001c 36323078 30303030 78000000  ....620x0000x...
 102ef0 00000000 00007cc6 fec0c0c6 7c000000  ......|.....|...
 102f00 0000001c 0c0c3c6c cccccccc 76000000  ......<l....v...
 102f10 00000000 00007cc6 c0c0c0c6 7c000000  ......|.....|...
 102f20 000000e0 6060786c 66666666 7c000000  ....``xlffff|...
 102f30 00000000 0000780c 7ccccccc 76000000  ......x.|...v...
 102f40 000000fe c6860c18 3060c2c6 fe000000  ........0`......
 102f50 000000c6 c6c6c6c6 7c303030 78000000  ........|000x...
 102f60 000000c6 c66c7c38 387c6cc6 c6000000  .....l|88|l.....
 102f70 000000c6 c6c6c6d6 d6d6feee 6c000000  ............l...
 102f80 000000c6 c6c6c6c6 c6c66c38 10000000  ..........l8....
 102f90 000000c6 c6c6c6c6 c6c6c6c6 7c000000  ............|...
 102fa0 0000007e 7e5a1818 18181818 3c000000  ...~~Z......<...
 102fb0 0000007c c6c66038 0c06c6c6 7c000000  ...|..`8....|...
 102fc0 000000fc 6666667c 6c666666 f6000000  ....fff|lfff....
 102fd0 0000007c c6c6c6c6 c6c6d6de 7c0c0e00  ...|........|...
 102fe0 000000fc 6666667c 60606060 f0000000  ....fff|````....
 102ff0 0000007c c6c6c6c6 c6c6c6c6 7c000000  ...|........|...
 103000 000000c6 e6f6fede cec6c6c6 c6000000  ................
 103010 000000c6 eefefed6 c6c6c6c6 c6000000  ................
 103020 00000078 60606060 60606266 fe000000  ...x``````bf....
 103030 000000e6 66646c78 786c6666 e6000000  ....fdlxxlff....
 103040 0000001e 0c0c0c0c 0ccccccc 78000000  ............x...
 103050 0000003c 18181818 18181818 3c000000  ...<........<...
 103060 000000c6 c6c6c6fe c6c6c6c6 c6000000  ................
 103070 0000003c 66c2c0c0 dec6c666 3a000000  ...<f......f:...
 103080 000000fe 66626878 68606060 f0000000  ....fbhxh```....
 103090 000000fe 66626878 68606266 fe000000  ....fbhxh`bf....
 1030a0 000000f8 6c666666 6666666c f8000000  ....lffffffl....
 1030b0 0000003c 66c2c0c0 c0c0c266 3c000000  ...<f......f<...
 1030c0 000000fc 6666667c 66666666 fc000000  ....fff|ffff....
 1030d0 00000010 386cc6c6 fec6c6c6 c6000000  ....8l..........
Contents of section .data.rel.local:
 1030e0 10802000 00000000 10802000 00000000  .. ....... .....
 1030f0 10802000 00000000 10802000 00000000  .. ....... .....
 103100 10802000 00000000 10802000 00000000  .. ....... .....
 103110 10802000 00000000 10802000 00000000  .. ....... .....
 103120 10802000 00000000 10802000 00000000  .. ....... .....
 103130 10802000 00000000 10802000 00000000  .. ....... .....
 103140 10802000 00000000 10802000 00000000  .. ....... .....
 103150 10802000 00000000 10802000 00000000  .. ....... .....
 103160 10802000 00000000 10802000 00000000  .. ....... .....
 103170 10802000 00000000 10802000 00000000  .. ....... .....
 103180 10802000 00000000 10802000 00000000  .. ....... .....
 103190 10802000 00000000 10802000 00000000  .. ....... .....
 1031a0 10802000 00000000 10802000 00000000  .. ....... .....
 1031b0 10802000 00000000 10802000 00000000  .. ....... .....
 1031c0 10802000 00000000 10802000 00000000  .. ....... .....
 1031d0 10802000 00000000 10802000 00000000  .. ....... .....
 1031e0 10802000 00000000 10802000 00000000  .. ....... .....
 1031f0 10802000 00000000 10802000 00000000  .. ....... .....
 103200 10802000 00000000 10802000 00000000  .. ....... .....
 103210 10802000 00000000 10802000 00000000  .. ....... .....
 103220 10802000 00000000 10802000 00000000  .. ....... .....
 103230 10802000 00000000 10802000 00000000  .. ....... .....
 103240 10802000 00000000 c02c1000 00000000  .. ......,......
 103250 d02c1000 00000000 10802000 00000000  .,........ .....
 103260 902d1000 00000000 802d1000 00000000  .-.......-......
 103270 702d1000 00000000 602d1000 00000000  p-......`-......
 103280 502d1000 00000000 402d1000 00000000  P-......@-......
 103290 302d1000 00000000 202d1000 00000000  0-...... -......
 1032a0 102d1000 00000000 002d1000 00000000  .-.......-......
 1032b0 f02c1000 00000000 e02c1000 00000000  .,.......,......
 1032c0 10802000 00000000 10802000 00000000  .. ....... .....
 1032d0 10802000 00000000 10802000 00000000  .. ....... .....
 1032e0 10802000 00000000 d0301000 00000000  .. ......0......
 1032f0 c0301000 00000000 b0301000 00000000  .0.......0......
 103300 a0301000 00000000 90301000 00000000  .0.......0......
 103310 80301000 00000000 70301000 00000000  .0......p0......
 103320 60301000 00000000 50301000 00000000  `0......P0......
 103330 40301000 00000000 30301000 00000000  @0......00......
 103340 20301000 00000000 10301000 00000000   0.......0......
 103350 00301000 00000000 f02f1000 00000000  .0......./......
 103360 e02f1000 00000000 d02f1000 00000000  ./......./......
 103370 c02f1000 00000000 b02f1000 00000000  ./......./......
 103380 a02f1000 00000000 902f1000 00000000  ./......./......
 103390 802f1000 00000000 702f1000 00000000  ./......p/......
 1033a0 602f1000 00000000 502f1000 00000000  `/......P/......
 1033b0 402f1000 00000000 10802000 00000000  @/........ .....
 1033c0 10802000 00000000 10802000 00000000  .. ....... .....
 1033d0 10802000 00000000 10802000 00000000  .. ....... .....
 1033e0 10802000 00000000 302f1000 00000000  .. .....0/......
 1033f0 202f1000 00000000 102f1000 00000000   /......./......
 103400 002f1000 00000000 f02e1000 00000000  ./..............
 103410 e02e1000 00000000 d02e1000 00000000  ................
 103420 c02e1000 00000000 b02e1000 00000000  ................
 103430 a02e1000 00000000 902e1000 00000000  ................
 103440 802e1000 00000000 702e1000 00000000  ........p.......
 103450 602e1000 00000000 502e1000 00000000  `.......P.......
 103460 402e1000 00000000 302e1000 00000000  @.......0.......
 103470 202e1000 00000000 102e1000 00000000   ...............
 103480 002e1000 00000000 f02d1000 00000000  .........-......
 103490 e02d1000 00000000 d02d1000 00000000  .-.......-......
 1034a0 c02d1000 00000000 b02d1000 00000000  .-.......-......
 1034b0 a02d1000 00000000 10802000 00000000  .-........ .....
 1034c0 10802000 00000000 10802000 00000000  .. ....... .....
 1034d0 10802000 00000000 10802000 00000000  .. ....... .....

Disassembly of section .multiboot2:

0000000000100000 <header_start>:
  100000:	d6                   	(bad)  
  100001:	50                   	push   %rax
  100002:	52                   	push   %rdx
  100003:	e8 00 00 00 00       	call   100008 <header_start+0x8>
  100008:	30 00                	xor    %al,(%rax)
  10000a:	00 00                	add    %al,(%rax)
  10000c:	fa                   	cli    
  10000d:	ae                   	scas   %es:(%rdi),%al
  10000e:	ad                   	lods   %ds:(%rsi),%eax
  10000f:	17                   	(bad)  
  100010:	05 00 00 00 14       	add    $0x14000000,%eax
  100015:	00 00                	add    %al,(%rax)
  100017:	00 80 07 00 00 38    	add    %al,0x38000007(%rax)
  10001d:	04 00                	add    $0x0,%al
  10001f:	00 20                	add    %ah,(%rax)
  100021:	00 00                	add    %al,(%rax)
  100023:	00 90 90 90 90 00    	add    %dl,0x909090(%rax)
  100029:	00 00                	add    %al,(%rax)
  10002b:	00 08                	add    %cl,(%rax)
  10002d:	00 00                	add    %al,(%rax)
	...

Disassembly of section .sysvar:

0000000000100030 <.sysvar>:
	...

Disassembly of section .text:

0000000000100130 <loader>:
  100130:	bc 00 10 20 00       	mov    $0x201000,%esp
  100135:	bd 00 10 20 00       	mov    $0x201000,%ebp
  10013a:	89 1d 08 80 20 00    	mov    %ebx,0x208008(%rip)        # 308148 <Not_implemented_yet+0x100138>
  100140:	a3 04 80 20 00 e8 52 	movabs %eax,0x52e800208004
  100147:	00 00 
  100149:	00 e8                	add    %ch,%al
  10014b:	5c                   	pop    %rsp
  10014c:	00 00                	add    %al,(%rax)
  10014e:	00 e8                	add    %ch,%al
  100150:	72 00                	jb     100152 <loader+0x22>
  100152:	00 00                	add    %al,(%rax)
  100154:	e8 92 00 00 00       	call   1001eb <set_up_page_tables>
  100159:	e8 ff 00 00 00       	call   10025d <enable_paging>
  10015e:	0f 01 15 aa 2c 10 00 	lgdt   0x102caa(%rip)        # 202e0f <p3_table+0xe0f>
  100165:	ea                   	(bad)  
  100166:	6c                   	insb   (%dx),%es:(%rdi)
  100167:	01 10                	add    %edx,(%rax)
  100169:	00 08                	add    %cl,(%rax)
	...

000000000010016c <longmode>:
  10016c:	66 b8 10 00          	mov    $0x10,%ax
  100170:	8e d8                	mov    %eax,%ds
  100172:	8e c0                	mov    %eax,%es
  100174:	8e e0                	mov    %eax,%fs
  100176:	8e e8                	mov    %eax,%gs
  100178:	8e d0                	mov    %eax,%ss
  10017a:	e9 02 0b 00 00       	jmp    100c81 <enable_interrupts>

000000000010017f <interrupts_enabled>:
  10017f:	31 c9                	xor    %ecx,%ecx
  100181:	31 ff                	xor    %edi,%edi
  100183:	48 31 f6             	xor    %rsi,%rsi
  100186:	8b 3c 25 08 80 20 00 	mov    0x208008,%edi
  10018d:	8b 34 25 04 80 20 00 	mov    0x208004,%esi
  100194:	e8 d7 11 00 00       	call   101370 <kernelmain>

0000000000100199 <loop>:
  100199:	f4                   	hlt    
  10019a:	eb fd                	jmp    100199 <loop>

000000000010019c <check_multiboot>:
  10019c:	3d 89 62 d7 36       	cmp    $0x36d76289,%eax
  1001a1:	75 01                	jne    1001a4 <check_multiboot.no_multiboot>
  1001a3:	c3                   	ret    

00000000001001a4 <check_multiboot.no_multiboot>:
  1001a4:	b0 30                	mov    $0x30,%al
  1001a6:	e9 c2 0e 00 00       	jmp    10106d <error>

00000000001001ab <check_cpuid>:
  1001ab:	9c                   	pushf  
  1001ac:	58                   	pop    %rax
  1001ad:	89 c1                	mov    %eax,%ecx
  1001af:	35 00 00 20 00       	xor    $0x200000,%eax
  1001b4:	50                   	push   %rax
  1001b5:	9d                   	popf   
  1001b6:	9c                   	pushf  
  1001b7:	58                   	pop    %rax
  1001b8:	51                   	push   %rcx
  1001b9:	9d                   	popf   
  1001ba:	39 c8                	cmp    %ecx,%eax
  1001bc:	74 01                	je     1001bf <check_cpuid.no_cpuid>
  1001be:	c3                   	ret    

00000000001001bf <check_cpuid.no_cpuid>:
  1001bf:	b0 31                	mov    $0x31,%al
  1001c1:	e9 a7 0e 00 00       	jmp    10106d <error>

00000000001001c6 <check_long_mode>:
  1001c6:	b8 00 00 00 80       	mov    $0x80000000,%eax
  1001cb:	0f a2                	cpuid  
  1001cd:	3d 01 00 00 80       	cmp    $0x80000001,%eax
  1001d2:	72 10                	jb     1001e4 <check_long_mode.no_long_mode>
  1001d4:	b8 01 00 00 80       	mov    $0x80000001,%eax
  1001d9:	0f a2                	cpuid  
  1001db:	f7 c2 00 00 00 20    	test   $0x20000000,%edx
  1001e1:	74 01                	je     1001e4 <check_long_mode.no_long_mode>
  1001e3:	c3                   	ret    

00000000001001e4 <check_long_mode.no_long_mode>:
  1001e4:	b0 32                	mov    $0x32,%al
  1001e6:	e9 82 0e 00 00       	jmp    10106d <error>

00000000001001eb <set_up_page_tables>:
  1001eb:	b8 00 20 20 00       	mov    $0x202000,%eax
  1001f0:	83 c8 03             	or     $0x3,%eax
  1001f3:	a3 00 10 20 00 b8 00 	movabs %eax,0x203000b800201000
  1001fa:	30 20 
  1001fc:	00 83 c8 03 a3 00    	add    %al,0xa303c8(%rbx)
  100202:	20 20                	and    %ah,(%rax)
  100204:	00 b8 00 30 20 00    	add    %bh,0x203000(%rax)
  10020a:	05 00 10 00 00       	add    $0x1000,%eax
  10020f:	83 c8 03             	or     $0x3,%eax
  100212:	a3 08 20 20 00 b8 00 	movabs %eax,0x203000b800202008
  100219:	30 20 
  10021b:	00 05 00 20 00 00    	add    %al,0x2000(%rip)        # 102221 <set_timer+0x81>
  100221:	83 c8 03             	or     $0x3,%eax
  100224:	a3 10 20 20 00 b8 00 	movabs %eax,0x203000b800202010
  10022b:	30 20 
  10022d:	00 05 00 30 00 00    	add    %al,0x3000(%rip)        # 103233 <ascii_chars+0x153>
  100233:	83 c8 03             	or     $0x3,%eax
  100236:	a3 18 20 20 00 b9 00 	movabs %eax,0xb900202018
  10023d:	00 00 
	...

0000000000100240 <set_up_page_tables.map_p2_table>:
  100240:	b8 00 00 20 00       	mov    $0x200000,%eax
  100245:	f7 e1                	mul    %ecx
  100247:	0d 83 00 00 00       	or     $0x83,%eax
  10024c:	89 04 cd 00 30 20 00 	mov    %eax,0x203000(,%rcx,8)
  100253:	41 81 f9 00 08 00 00 	cmp    $0x800,%r9d
  10025a:	75 e4                	jne    100240 <set_up_page_tables.map_p2_table>
  10025c:	c3                   	ret    

000000000010025d <enable_paging>:
  10025d:	b8 00 10 20 00       	mov    $0x201000,%eax
  100262:	0f 22 d8             	mov    %rax,%cr3
  100265:	0f 20 e0             	mov    %cr4,%rax
  100268:	0d b0 00 00 00       	or     $0xb0,%eax
  10026d:	0f 22 e0             	mov    %rax,%cr4
  100270:	b9 80 00 00 c0       	mov    $0xc0000080,%ecx
  100275:	0f 32                	rdmsr  
  100277:	0d 00 01 00 00       	or     $0x100,%eax
  10027c:	0f 30                	wrmsr  
  10027e:	0f 20 c0             	mov    %cr0,%rax
  100281:	0d 00 00 00 80       	or     $0x80000000,%eax
  100286:	0f 22 c0             	mov    %rax,%cr0
  100289:	c3                   	ret    

000000000010028a <int0>:
  10028a:	fa                   	cli    
  10028b:	fc                   	cld    
  10028c:	50                   	push   %rax
  10028d:	53                   	push   %rbx
  10028e:	51                   	push   %rcx
  10028f:	52                   	push   %rdx
  100290:	56                   	push   %rsi
  100291:	57                   	push   %rdi
  100292:	55                   	push   %rbp
  100293:	41 50                	push   %r8
  100295:	41 51                	push   %r9
  100297:	41 52                	push   %r10
  100299:	41 53                	push   %r11
  10029b:	41 54                	push   %r12
  10029d:	41 55                	push   %r13
  10029f:	41 56                	push   %r14
  1002a1:	41 57                	push   %r15
  1002a3:	48 89 e7             	mov    %rsp,%rdi
  1002a6:	e8 05 13 00 00       	call   1015b0 <division_error>
  1002ab:	41 5f                	pop    %r15
  1002ad:	41 5e                	pop    %r14
  1002af:	41 5d                	pop    %r13
  1002b1:	41 5c                	pop    %r12
  1002b3:	41 5b                	pop    %r11
  1002b5:	41 5a                	pop    %r10
  1002b7:	41 59                	pop    %r9
  1002b9:	41 58                	pop    %r8
  1002bb:	5d                   	pop    %rbp
  1002bc:	5f                   	pop    %rdi
  1002bd:	5e                   	pop    %rsi
  1002be:	5a                   	pop    %rdx
  1002bf:	59                   	pop    %rcx
  1002c0:	5b                   	pop    %rbx
  1002c1:	58                   	pop    %rax
  1002c2:	cf                   	iret   

00000000001002c3 <int1>:
  1002c3:	fa                   	cli    
  1002c4:	fc                   	cld    
  1002c5:	50                   	push   %rax
  1002c6:	53                   	push   %rbx
  1002c7:	51                   	push   %rcx
  1002c8:	52                   	push   %rdx
  1002c9:	56                   	push   %rsi
  1002ca:	57                   	push   %rdi
  1002cb:	55                   	push   %rbp
  1002cc:	41 50                	push   %r8
  1002ce:	41 51                	push   %r9
  1002d0:	41 52                	push   %r10
  1002d2:	41 53                	push   %r11
  1002d4:	41 54                	push   %r12
  1002d6:	41 55                	push   %r13
  1002d8:	41 56                	push   %r14
  1002da:	41 57                	push   %r15
  1002dc:	48 89 e7             	mov    %rsp,%rdi
  1002df:	e8 ec 12 00 00       	call   1015d0 <debug>
  1002e4:	41 5f                	pop    %r15
  1002e6:	41 5e                	pop    %r14
  1002e8:	41 5d                	pop    %r13
  1002ea:	41 5c                	pop    %r12
  1002ec:	41 5b                	pop    %r11
  1002ee:	41 5a                	pop    %r10
  1002f0:	41 59                	pop    %r9
  1002f2:	41 58                	pop    %r8
  1002f4:	5d                   	pop    %rbp
  1002f5:	5f                   	pop    %rdi
  1002f6:	5e                   	pop    %rsi
  1002f7:	5a                   	pop    %rdx
  1002f8:	59                   	pop    %rcx
  1002f9:	5b                   	pop    %rbx
  1002fa:	58                   	pop    %rax
  1002fb:	cf                   	iret   

00000000001002fc <int2>:
  1002fc:	fa                   	cli    
  1002fd:	fc                   	cld    
  1002fe:	50                   	push   %rax
  1002ff:	53                   	push   %rbx
  100300:	51                   	push   %rcx
  100301:	52                   	push   %rdx
  100302:	56                   	push   %rsi
  100303:	57                   	push   %rdi
  100304:	55                   	push   %rbp
  100305:	41 50                	push   %r8
  100307:	41 51                	push   %r9
  100309:	41 52                	push   %r10
  10030b:	41 53                	push   %r11
  10030d:	41 54                	push   %r12
  10030f:	41 55                	push   %r13
  100311:	41 56                	push   %r14
  100313:	41 57                	push   %r15
  100315:	48 89 e7             	mov    %rsp,%rdi
  100318:	e8 d3 12 00 00       	call   1015f0 <non_maskable_interrupt>
  10031d:	41 5f                	pop    %r15
  10031f:	41 5e                	pop    %r14
  100321:	41 5d                	pop    %r13
  100323:	41 5c                	pop    %r12
  100325:	41 5b                	pop    %r11
  100327:	41 5a                	pop    %r10
  100329:	41 59                	pop    %r9
  10032b:	41 58                	pop    %r8
  10032d:	5d                   	pop    %rbp
  10032e:	5f                   	pop    %rdi
  10032f:	5e                   	pop    %rsi
  100330:	5a                   	pop    %rdx
  100331:	59                   	pop    %rcx
  100332:	5b                   	pop    %rbx
  100333:	58                   	pop    %rax
  100334:	cf                   	iret   

0000000000100335 <int3>:
  100335:	fa                   	cli    
  100336:	fc                   	cld    
  100337:	50                   	push   %rax
  100338:	53                   	push   %rbx
  100339:	51                   	push   %rcx
  10033a:	52                   	push   %rdx
  10033b:	56                   	push   %rsi
  10033c:	57                   	push   %rdi
  10033d:	55                   	push   %rbp
  10033e:	41 50                	push   %r8
  100340:	41 51                	push   %r9
  100342:	41 52                	push   %r10
  100344:	41 53                	push   %r11
  100346:	41 54                	push   %r12
  100348:	41 55                	push   %r13
  10034a:	41 56                	push   %r14
  10034c:	41 57                	push   %r15
  10034e:	48 89 e7             	mov    %rsp,%rdi
  100351:	e8 ba 12 00 00       	call   101610 <breakpoint>
  100356:	41 5f                	pop    %r15
  100358:	41 5e                	pop    %r14
  10035a:	41 5d                	pop    %r13
  10035c:	41 5c                	pop    %r12
  10035e:	41 5b                	pop    %r11
  100360:	41 5a                	pop    %r10
  100362:	41 59                	pop    %r9
  100364:	41 58                	pop    %r8
  100366:	5d                   	pop    %rbp
  100367:	5f                   	pop    %rdi
  100368:	5e                   	pop    %rsi
  100369:	5a                   	pop    %rdx
  10036a:	59                   	pop    %rcx
  10036b:	5b                   	pop    %rbx
  10036c:	58                   	pop    %rax
  10036d:	cf                   	iret   

000000000010036e <int4>:
  10036e:	fa                   	cli    
  10036f:	fc                   	cld    
  100370:	50                   	push   %rax
  100371:	53                   	push   %rbx
  100372:	51                   	push   %rcx
  100373:	52                   	push   %rdx
  100374:	56                   	push   %rsi
  100375:	57                   	push   %rdi
  100376:	55                   	push   %rbp
  100377:	41 50                	push   %r8
  100379:	41 51                	push   %r9
  10037b:	41 52                	push   %r10
  10037d:	41 53                	push   %r11
  10037f:	41 54                	push   %r12
  100381:	41 55                	push   %r13
  100383:	41 56                	push   %r14
  100385:	41 57                	push   %r15
  100387:	48 89 e7             	mov    %rsp,%rdi
  10038a:	e8 a1 12 00 00       	call   101630 <overflow>
  10038f:	41 5f                	pop    %r15
  100391:	41 5e                	pop    %r14
  100393:	41 5d                	pop    %r13
  100395:	41 5c                	pop    %r12
  100397:	41 5b                	pop    %r11
  100399:	41 5a                	pop    %r10
  10039b:	41 59                	pop    %r9
  10039d:	41 58                	pop    %r8
  10039f:	5d                   	pop    %rbp
  1003a0:	5f                   	pop    %rdi
  1003a1:	5e                   	pop    %rsi
  1003a2:	5a                   	pop    %rdx
  1003a3:	59                   	pop    %rcx
  1003a4:	5b                   	pop    %rbx
  1003a5:	58                   	pop    %rax
  1003a6:	cf                   	iret   

00000000001003a7 <int5>:
  1003a7:	fa                   	cli    
  1003a8:	fc                   	cld    
  1003a9:	50                   	push   %rax
  1003aa:	53                   	push   %rbx
  1003ab:	51                   	push   %rcx
  1003ac:	52                   	push   %rdx
  1003ad:	56                   	push   %rsi
  1003ae:	57                   	push   %rdi
  1003af:	55                   	push   %rbp
  1003b0:	41 50                	push   %r8
  1003b2:	41 51                	push   %r9
  1003b4:	41 52                	push   %r10
  1003b6:	41 53                	push   %r11
  1003b8:	41 54                	push   %r12
  1003ba:	41 55                	push   %r13
  1003bc:	41 56                	push   %r14
  1003be:	41 57                	push   %r15
  1003c0:	48 89 e7             	mov    %rsp,%rdi
  1003c3:	e8 88 12 00 00       	call   101650 <bound_range_exceeded>
  1003c8:	41 5f                	pop    %r15
  1003ca:	41 5e                	pop    %r14
  1003cc:	41 5d                	pop    %r13
  1003ce:	41 5c                	pop    %r12
  1003d0:	41 5b                	pop    %r11
  1003d2:	41 5a                	pop    %r10
  1003d4:	41 59                	pop    %r9
  1003d6:	41 58                	pop    %r8
  1003d8:	5d                   	pop    %rbp
  1003d9:	5f                   	pop    %rdi
  1003da:	5e                   	pop    %rsi
  1003db:	5a                   	pop    %rdx
  1003dc:	59                   	pop    %rcx
  1003dd:	5b                   	pop    %rbx
  1003de:	58                   	pop    %rax
  1003df:	cf                   	iret   

00000000001003e0 <int6>:
  1003e0:	fa                   	cli    
  1003e1:	fc                   	cld    
  1003e2:	50                   	push   %rax
  1003e3:	53                   	push   %rbx
  1003e4:	51                   	push   %rcx
  1003e5:	52                   	push   %rdx
  1003e6:	56                   	push   %rsi
  1003e7:	57                   	push   %rdi
  1003e8:	55                   	push   %rbp
  1003e9:	41 50                	push   %r8
  1003eb:	41 51                	push   %r9
  1003ed:	41 52                	push   %r10
  1003ef:	41 53                	push   %r11
  1003f1:	41 54                	push   %r12
  1003f3:	41 55                	push   %r13
  1003f5:	41 56                	push   %r14
  1003f7:	41 57                	push   %r15
  1003f9:	48 89 e7             	mov    %rsp,%rdi
  1003fc:	e8 6f 12 00 00       	call   101670 <invalid_opcode>
  100401:	41 5f                	pop    %r15
  100403:	41 5e                	pop    %r14
  100405:	41 5d                	pop    %r13
  100407:	41 5c                	pop    %r12
  100409:	41 5b                	pop    %r11
  10040b:	41 5a                	pop    %r10
  10040d:	41 59                	pop    %r9
  10040f:	41 58                	pop    %r8
  100411:	5d                   	pop    %rbp
  100412:	5f                   	pop    %rdi
  100413:	5e                   	pop    %rsi
  100414:	5a                   	pop    %rdx
  100415:	59                   	pop    %rcx
  100416:	5b                   	pop    %rbx
  100417:	58                   	pop    %rax
  100418:	cf                   	iret   

0000000000100419 <int7>:
  100419:	fa                   	cli    
  10041a:	fc                   	cld    
  10041b:	50                   	push   %rax
  10041c:	53                   	push   %rbx
  10041d:	51                   	push   %rcx
  10041e:	52                   	push   %rdx
  10041f:	56                   	push   %rsi
  100420:	57                   	push   %rdi
  100421:	55                   	push   %rbp
  100422:	41 50                	push   %r8
  100424:	41 51                	push   %r9
  100426:	41 52                	push   %r10
  100428:	41 53                	push   %r11
  10042a:	41 54                	push   %r12
  10042c:	41 55                	push   %r13
  10042e:	41 56                	push   %r14
  100430:	41 57                	push   %r15
  100432:	48 89 e7             	mov    %rsp,%rdi
  100435:	e8 56 12 00 00       	call   101690 <device_not_available>
  10043a:	41 5f                	pop    %r15
  10043c:	41 5e                	pop    %r14
  10043e:	41 5d                	pop    %r13
  100440:	41 5c                	pop    %r12
  100442:	41 5b                	pop    %r11
  100444:	41 5a                	pop    %r10
  100446:	41 59                	pop    %r9
  100448:	41 58                	pop    %r8
  10044a:	5d                   	pop    %rbp
  10044b:	5f                   	pop    %rdi
  10044c:	5e                   	pop    %rsi
  10044d:	5a                   	pop    %rdx
  10044e:	59                   	pop    %rcx
  10044f:	5b                   	pop    %rbx
  100450:	58                   	pop    %rax
  100451:	cf                   	iret   

0000000000100452 <int8>:
  100452:	fa                   	cli    
  100453:	fc                   	cld    
  100454:	50                   	push   %rax
  100455:	53                   	push   %rbx
  100456:	51                   	push   %rcx
  100457:	52                   	push   %rdx
  100458:	56                   	push   %rsi
  100459:	57                   	push   %rdi
  10045a:	55                   	push   %rbp
  10045b:	41 50                	push   %r8
  10045d:	41 51                	push   %r9
  10045f:	41 52                	push   %r10
  100461:	41 53                	push   %r11
  100463:	41 54                	push   %r12
  100465:	41 55                	push   %r13
  100467:	41 56                	push   %r14
  100469:	41 57                	push   %r15
  10046b:	48 89 e7             	mov    %rsp,%rdi
  10046e:	e8 3d 12 00 00       	call   1016b0 <double_fault>
  100473:	41 5f                	pop    %r15
  100475:	41 5e                	pop    %r14
  100477:	41 5d                	pop    %r13
  100479:	41 5c                	pop    %r12
  10047b:	41 5b                	pop    %r11
  10047d:	41 5a                	pop    %r10
  10047f:	41 59                	pop    %r9
  100481:	41 58                	pop    %r8
  100483:	5d                   	pop    %rbp
  100484:	5f                   	pop    %rdi
  100485:	5e                   	pop    %rsi
  100486:	5a                   	pop    %rdx
  100487:	59                   	pop    %rcx
  100488:	5b                   	pop    %rbx
  100489:	58                   	pop    %rax
  10048a:	cf                   	iret   

000000000010048b <int9>:
  10048b:	fa                   	cli    
  10048c:	fc                   	cld    
  10048d:	50                   	push   %rax
  10048e:	53                   	push   %rbx
  10048f:	51                   	push   %rcx
  100490:	52                   	push   %rdx
  100491:	56                   	push   %rsi
  100492:	57                   	push   %rdi
  100493:	55                   	push   %rbp
  100494:	41 50                	push   %r8
  100496:	41 51                	push   %r9
  100498:	41 52                	push   %r10
  10049a:	41 53                	push   %r11
  10049c:	41 54                	push   %r12
  10049e:	41 55                	push   %r13
  1004a0:	41 56                	push   %r14
  1004a2:	41 57                	push   %r15
  1004a4:	48 89 e7             	mov    %rsp,%rdi
  1004a7:	e8 24 12 00 00       	call   1016d0 <coprocessor_segment_overrun>
  1004ac:	41 5f                	pop    %r15
  1004ae:	41 5e                	pop    %r14
  1004b0:	41 5d                	pop    %r13
  1004b2:	41 5c                	pop    %r12
  1004b4:	41 5b                	pop    %r11
  1004b6:	41 5a                	pop    %r10
  1004b8:	41 59                	pop    %r9
  1004ba:	41 58                	pop    %r8
  1004bc:	5d                   	pop    %rbp
  1004bd:	5f                   	pop    %rdi
  1004be:	5e                   	pop    %rsi
  1004bf:	5a                   	pop    %rdx
  1004c0:	59                   	pop    %rcx
  1004c1:	5b                   	pop    %rbx
  1004c2:	58                   	pop    %rax
  1004c3:	cf                   	iret   

00000000001004c4 <int10>:
  1004c4:	fa                   	cli    
  1004c5:	fc                   	cld    
  1004c6:	50                   	push   %rax
  1004c7:	53                   	push   %rbx
  1004c8:	51                   	push   %rcx
  1004c9:	52                   	push   %rdx
  1004ca:	56                   	push   %rsi
  1004cb:	57                   	push   %rdi
  1004cc:	55                   	push   %rbp
  1004cd:	41 50                	push   %r8
  1004cf:	41 51                	push   %r9
  1004d1:	41 52                	push   %r10
  1004d3:	41 53                	push   %r11
  1004d5:	41 54                	push   %r12
  1004d7:	41 55                	push   %r13
  1004d9:	41 56                	push   %r14
  1004db:	41 57                	push   %r15
  1004dd:	48 89 e7             	mov    %rsp,%rdi
  1004e0:	e8 0b 12 00 00       	call   1016f0 <invalid_tss>
  1004e5:	41 5f                	pop    %r15
  1004e7:	41 5e                	pop    %r14
  1004e9:	41 5d                	pop    %r13
  1004eb:	41 5c                	pop    %r12
  1004ed:	41 5b                	pop    %r11
  1004ef:	41 5a                	pop    %r10
  1004f1:	41 59                	pop    %r9
  1004f3:	41 58                	pop    %r8
  1004f5:	5d                   	pop    %rbp
  1004f6:	5f                   	pop    %rdi
  1004f7:	5e                   	pop    %rsi
  1004f8:	5a                   	pop    %rdx
  1004f9:	59                   	pop    %rcx
  1004fa:	5b                   	pop    %rbx
  1004fb:	58                   	pop    %rax
  1004fc:	cf                   	iret   

00000000001004fd <int11>:
  1004fd:	fa                   	cli    
  1004fe:	fc                   	cld    
  1004ff:	50                   	push   %rax
  100500:	53                   	push   %rbx
  100501:	51                   	push   %rcx
  100502:	52                   	push   %rdx
  100503:	56                   	push   %rsi
  100504:	57                   	push   %rdi
  100505:	55                   	push   %rbp
  100506:	41 50                	push   %r8
  100508:	41 51                	push   %r9
  10050a:	41 52                	push   %r10
  10050c:	41 53                	push   %r11
  10050e:	41 54                	push   %r12
  100510:	41 55                	push   %r13
  100512:	41 56                	push   %r14
  100514:	41 57                	push   %r15
  100516:	48 89 e7             	mov    %rsp,%rdi
  100519:	e8 f2 11 00 00       	call   101710 <segment_not_present>
  10051e:	41 5f                	pop    %r15
  100520:	41 5e                	pop    %r14
  100522:	41 5d                	pop    %r13
  100524:	41 5c                	pop    %r12
  100526:	41 5b                	pop    %r11
  100528:	41 5a                	pop    %r10
  10052a:	41 59                	pop    %r9
  10052c:	41 58                	pop    %r8
  10052e:	5d                   	pop    %rbp
  10052f:	5f                   	pop    %rdi
  100530:	5e                   	pop    %rsi
  100531:	5a                   	pop    %rdx
  100532:	59                   	pop    %rcx
  100533:	5b                   	pop    %rbx
  100534:	58                   	pop    %rax
  100535:	cf                   	iret   

0000000000100536 <int12>:
  100536:	fa                   	cli    
  100537:	fc                   	cld    
  100538:	50                   	push   %rax
  100539:	53                   	push   %rbx
  10053a:	51                   	push   %rcx
  10053b:	52                   	push   %rdx
  10053c:	56                   	push   %rsi
  10053d:	57                   	push   %rdi
  10053e:	55                   	push   %rbp
  10053f:	41 50                	push   %r8
  100541:	41 51                	push   %r9
  100543:	41 52                	push   %r10
  100545:	41 53                	push   %r11
  100547:	41 54                	push   %r12
  100549:	41 55                	push   %r13
  10054b:	41 56                	push   %r14
  10054d:	41 57                	push   %r15
  10054f:	48 89 e7             	mov    %rsp,%rdi
  100552:	e8 d9 11 00 00       	call   101730 <stack_segment_fault>
  100557:	41 5f                	pop    %r15
  100559:	41 5e                	pop    %r14
  10055b:	41 5d                	pop    %r13
  10055d:	41 5c                	pop    %r12
  10055f:	41 5b                	pop    %r11
  100561:	41 5a                	pop    %r10
  100563:	41 59                	pop    %r9
  100565:	41 58                	pop    %r8
  100567:	5d                   	pop    %rbp
  100568:	5f                   	pop    %rdi
  100569:	5e                   	pop    %rsi
  10056a:	5a                   	pop    %rdx
  10056b:	59                   	pop    %rcx
  10056c:	5b                   	pop    %rbx
  10056d:	58                   	pop    %rax
  10056e:	cf                   	iret   

000000000010056f <int13>:
  10056f:	fa                   	cli    
  100570:	fc                   	cld    
  100571:	50                   	push   %rax
  100572:	53                   	push   %rbx
  100573:	51                   	push   %rcx
  100574:	52                   	push   %rdx
  100575:	56                   	push   %rsi
  100576:	57                   	push   %rdi
  100577:	55                   	push   %rbp
  100578:	41 50                	push   %r8
  10057a:	41 51                	push   %r9
  10057c:	41 52                	push   %r10
  10057e:	41 53                	push   %r11
  100580:	41 54                	push   %r12
  100582:	41 55                	push   %r13
  100584:	41 56                	push   %r14
  100586:	41 57                	push   %r15
  100588:	48 89 e7             	mov    %rsp,%rdi
  10058b:	e8 c0 11 00 00       	call   101750 <general_protection_fault>
  100590:	41 5f                	pop    %r15
  100592:	41 5e                	pop    %r14
  100594:	41 5d                	pop    %r13
  100596:	41 5c                	pop    %r12
  100598:	41 5b                	pop    %r11
  10059a:	41 5a                	pop    %r10
  10059c:	41 59                	pop    %r9
  10059e:	41 58                	pop    %r8
  1005a0:	5d                   	pop    %rbp
  1005a1:	5f                   	pop    %rdi
  1005a2:	5e                   	pop    %rsi
  1005a3:	5a                   	pop    %rdx
  1005a4:	59                   	pop    %rcx
  1005a5:	5b                   	pop    %rbx
  1005a6:	58                   	pop    %rax
  1005a7:	cf                   	iret   

00000000001005a8 <int14>:
  1005a8:	fa                   	cli    
  1005a9:	fc                   	cld    
  1005aa:	50                   	push   %rax
  1005ab:	53                   	push   %rbx
  1005ac:	51                   	push   %rcx
  1005ad:	52                   	push   %rdx
  1005ae:	56                   	push   %rsi
  1005af:	57                   	push   %rdi
  1005b0:	55                   	push   %rbp
  1005b1:	41 50                	push   %r8
  1005b3:	41 51                	push   %r9
  1005b5:	41 52                	push   %r10
  1005b7:	41 53                	push   %r11
  1005b9:	41 54                	push   %r12
  1005bb:	41 55                	push   %r13
  1005bd:	41 56                	push   %r14
  1005bf:	41 57                	push   %r15
  1005c1:	48 89 e7             	mov    %rsp,%rdi
  1005c4:	e8 a7 11 00 00       	call   101770 <page_fault>
  1005c9:	41 5f                	pop    %r15
  1005cb:	41 5e                	pop    %r14
  1005cd:	41 5d                	pop    %r13
  1005cf:	41 5c                	pop    %r12
  1005d1:	41 5b                	pop    %r11
  1005d3:	41 5a                	pop    %r10
  1005d5:	41 59                	pop    %r9
  1005d7:	41 58                	pop    %r8
  1005d9:	5d                   	pop    %rbp
  1005da:	5f                   	pop    %rdi
  1005db:	5e                   	pop    %rsi
  1005dc:	5a                   	pop    %rdx
  1005dd:	59                   	pop    %rcx
  1005de:	5b                   	pop    %rbx
  1005df:	58                   	pop    %rax
  1005e0:	cf                   	iret   

00000000001005e1 <int15>:
  1005e1:	fa                   	cli    
  1005e2:	fc                   	cld    
  1005e3:	50                   	push   %rax
  1005e4:	53                   	push   %rbx
  1005e5:	51                   	push   %rcx
  1005e6:	52                   	push   %rdx
  1005e7:	56                   	push   %rsi
  1005e8:	57                   	push   %rdi
  1005e9:	55                   	push   %rbp
  1005ea:	41 50                	push   %r8
  1005ec:	41 51                	push   %r9
  1005ee:	41 52                	push   %r10
  1005f0:	41 53                	push   %r11
  1005f2:	41 54                	push   %r12
  1005f4:	41 55                	push   %r13
  1005f6:	41 56                	push   %r14
  1005f8:	41 57                	push   %r15
  1005fa:	48 89 e7             	mov    %rsp,%rdi
  1005fd:	e8 8e 11 00 00       	call   101790 <x87_floating_point_exception>
  100602:	41 5f                	pop    %r15
  100604:	41 5e                	pop    %r14
  100606:	41 5d                	pop    %r13
  100608:	41 5c                	pop    %r12
  10060a:	41 5b                	pop    %r11
  10060c:	41 5a                	pop    %r10
  10060e:	41 59                	pop    %r9
  100610:	41 58                	pop    %r8
  100612:	5d                   	pop    %rbp
  100613:	5f                   	pop    %rdi
  100614:	5e                   	pop    %rsi
  100615:	5a                   	pop    %rdx
  100616:	59                   	pop    %rcx
  100617:	5b                   	pop    %rbx
  100618:	58                   	pop    %rax
  100619:	cf                   	iret   

000000000010061a <int17>:
  10061a:	fa                   	cli    
  10061b:	fc                   	cld    
  10061c:	50                   	push   %rax
  10061d:	53                   	push   %rbx
  10061e:	51                   	push   %rcx
  10061f:	52                   	push   %rdx
  100620:	56                   	push   %rsi
  100621:	57                   	push   %rdi
  100622:	55                   	push   %rbp
  100623:	41 50                	push   %r8
  100625:	41 51                	push   %r9
  100627:	41 52                	push   %r10
  100629:	41 53                	push   %r11
  10062b:	41 54                	push   %r12
  10062d:	41 55                	push   %r13
  10062f:	41 56                	push   %r14
  100631:	41 57                	push   %r15
  100633:	48 89 e7             	mov    %rsp,%rdi
  100636:	e8 75 11 00 00       	call   1017b0 <alignment_check>
  10063b:	41 5f                	pop    %r15
  10063d:	41 5e                	pop    %r14
  10063f:	41 5d                	pop    %r13
  100641:	41 5c                	pop    %r12
  100643:	41 5b                	pop    %r11
  100645:	41 5a                	pop    %r10
  100647:	41 59                	pop    %r9
  100649:	41 58                	pop    %r8
  10064b:	5d                   	pop    %rbp
  10064c:	5f                   	pop    %rdi
  10064d:	5e                   	pop    %rsi
  10064e:	5a                   	pop    %rdx
  10064f:	59                   	pop    %rcx
  100650:	5b                   	pop    %rbx
  100651:	58                   	pop    %rax
  100652:	cf                   	iret   

0000000000100653 <int18>:
  100653:	fa                   	cli    
  100654:	fc                   	cld    
  100655:	50                   	push   %rax
  100656:	53                   	push   %rbx
  100657:	51                   	push   %rcx
  100658:	52                   	push   %rdx
  100659:	56                   	push   %rsi
  10065a:	57                   	push   %rdi
  10065b:	55                   	push   %rbp
  10065c:	41 50                	push   %r8
  10065e:	41 51                	push   %r9
  100660:	41 52                	push   %r10
  100662:	41 53                	push   %r11
  100664:	41 54                	push   %r12
  100666:	41 55                	push   %r13
  100668:	41 56                	push   %r14
  10066a:	41 57                	push   %r15
  10066c:	48 89 e7             	mov    %rsp,%rdi
  10066f:	e8 5c 11 00 00       	call   1017d0 <machine_check>
  100674:	41 5f                	pop    %r15
  100676:	41 5e                	pop    %r14
  100678:	41 5d                	pop    %r13
  10067a:	41 5c                	pop    %r12
  10067c:	41 5b                	pop    %r11
  10067e:	41 5a                	pop    %r10
  100680:	41 59                	pop    %r9
  100682:	41 58                	pop    %r8
  100684:	5d                   	pop    %rbp
  100685:	5f                   	pop    %rdi
  100686:	5e                   	pop    %rsi
  100687:	5a                   	pop    %rdx
  100688:	59                   	pop    %rcx
  100689:	5b                   	pop    %rbx
  10068a:	58                   	pop    %rax
  10068b:	cf                   	iret   

000000000010068c <int19>:
  10068c:	fa                   	cli    
  10068d:	fc                   	cld    
  10068e:	50                   	push   %rax
  10068f:	53                   	push   %rbx
  100690:	51                   	push   %rcx
  100691:	52                   	push   %rdx
  100692:	56                   	push   %rsi
  100693:	57                   	push   %rdi
  100694:	55                   	push   %rbp
  100695:	41 50                	push   %r8
  100697:	41 51                	push   %r9
  100699:	41 52                	push   %r10
  10069b:	41 53                	push   %r11
  10069d:	41 54                	push   %r12
  10069f:	41 55                	push   %r13
  1006a1:	41 56                	push   %r14
  1006a3:	41 57                	push   %r15
  1006a5:	48 89 e7             	mov    %rsp,%rdi
  1006a8:	e8 43 11 00 00       	call   1017f0 <simd_floating_point_exception>
  1006ad:	41 5f                	pop    %r15
  1006af:	41 5e                	pop    %r14
  1006b1:	41 5d                	pop    %r13
  1006b3:	41 5c                	pop    %r12
  1006b5:	41 5b                	pop    %r11
  1006b7:	41 5a                	pop    %r10
  1006b9:	41 59                	pop    %r9
  1006bb:	41 58                	pop    %r8
  1006bd:	5d                   	pop    %rbp
  1006be:	5f                   	pop    %rdi
  1006bf:	5e                   	pop    %rsi
  1006c0:	5a                   	pop    %rdx
  1006c1:	59                   	pop    %rcx
  1006c2:	5b                   	pop    %rbx
  1006c3:	58                   	pop    %rax
  1006c4:	cf                   	iret   

00000000001006c5 <int20>:
  1006c5:	fa                   	cli    
  1006c6:	fc                   	cld    
  1006c7:	50                   	push   %rax
  1006c8:	53                   	push   %rbx
  1006c9:	51                   	push   %rcx
  1006ca:	52                   	push   %rdx
  1006cb:	56                   	push   %rsi
  1006cc:	57                   	push   %rdi
  1006cd:	55                   	push   %rbp
  1006ce:	41 50                	push   %r8
  1006d0:	41 51                	push   %r9
  1006d2:	41 52                	push   %r10
  1006d4:	41 53                	push   %r11
  1006d6:	41 54                	push   %r12
  1006d8:	41 55                	push   %r13
  1006da:	41 56                	push   %r14
  1006dc:	41 57                	push   %r15
  1006de:	48 89 e7             	mov    %rsp,%rdi
  1006e1:	e8 2a 11 00 00       	call   101810 <virtualization_exception>
  1006e6:	41 5f                	pop    %r15
  1006e8:	41 5e                	pop    %r14
  1006ea:	41 5d                	pop    %r13
  1006ec:	41 5c                	pop    %r12
  1006ee:	41 5b                	pop    %r11
  1006f0:	41 5a                	pop    %r10
  1006f2:	41 59                	pop    %r9
  1006f4:	41 58                	pop    %r8
  1006f6:	5d                   	pop    %rbp
  1006f7:	5f                   	pop    %rdi
  1006f8:	5e                   	pop    %rsi
  1006f9:	5a                   	pop    %rdx
  1006fa:	59                   	pop    %rcx
  1006fb:	5b                   	pop    %rbx
  1006fc:	58                   	pop    %rax
  1006fd:	cf                   	iret   

00000000001006fe <int21>:
  1006fe:	fa                   	cli    
  1006ff:	fc                   	cld    
  100700:	50                   	push   %rax
  100701:	53                   	push   %rbx
  100702:	51                   	push   %rcx
  100703:	52                   	push   %rdx
  100704:	56                   	push   %rsi
  100705:	57                   	push   %rdi
  100706:	55                   	push   %rbp
  100707:	41 50                	push   %r8
  100709:	41 51                	push   %r9
  10070b:	41 52                	push   %r10
  10070d:	41 53                	push   %r11
  10070f:	41 54                	push   %r12
  100711:	41 55                	push   %r13
  100713:	41 56                	push   %r14
  100715:	41 57                	push   %r15
  100717:	48 89 e7             	mov    %rsp,%rdi
  10071a:	e8 11 11 00 00       	call   101830 <control_protection_exception>
  10071f:	41 5f                	pop    %r15
  100721:	41 5e                	pop    %r14
  100723:	41 5d                	pop    %r13
  100725:	41 5c                	pop    %r12
  100727:	41 5b                	pop    %r11
  100729:	41 5a                	pop    %r10
  10072b:	41 59                	pop    %r9
  10072d:	41 58                	pop    %r8
  10072f:	5d                   	pop    %rbp
  100730:	5f                   	pop    %rdi
  100731:	5e                   	pop    %rsi
  100732:	5a                   	pop    %rdx
  100733:	59                   	pop    %rcx
  100734:	5b                   	pop    %rbx
  100735:	58                   	pop    %rax
  100736:	cf                   	iret   

0000000000100737 <int22>:
  100737:	fa                   	cli    
  100738:	fc                   	cld    
  100739:	50                   	push   %rax
  10073a:	53                   	push   %rbx
  10073b:	51                   	push   %rcx
  10073c:	52                   	push   %rdx
  10073d:	56                   	push   %rsi
  10073e:	57                   	push   %rdi
  10073f:	55                   	push   %rbp
  100740:	41 50                	push   %r8
  100742:	41 51                	push   %r9
  100744:	41 52                	push   %r10
  100746:	41 53                	push   %r11
  100748:	41 54                	push   %r12
  10074a:	41 55                	push   %r13
  10074c:	41 56                	push   %r14
  10074e:	41 57                	push   %r15
  100750:	48 89 e7             	mov    %rsp,%rdi
  100753:	e8 f8 10 00 00       	call   101850 <hypervisor_injection_exception>
  100758:	41 5f                	pop    %r15
  10075a:	41 5e                	pop    %r14
  10075c:	41 5d                	pop    %r13
  10075e:	41 5c                	pop    %r12
  100760:	41 5b                	pop    %r11
  100762:	41 5a                	pop    %r10
  100764:	41 59                	pop    %r9
  100766:	41 58                	pop    %r8
  100768:	5d                   	pop    %rbp
  100769:	5f                   	pop    %rdi
  10076a:	5e                   	pop    %rsi
  10076b:	5a                   	pop    %rdx
  10076c:	59                   	pop    %rcx
  10076d:	5b                   	pop    %rbx
  10076e:	58                   	pop    %rax
  10076f:	cf                   	iret   

0000000000100770 <int29>:
  100770:	fa                   	cli    
  100771:	fc                   	cld    
  100772:	50                   	push   %rax
  100773:	53                   	push   %rbx
  100774:	51                   	push   %rcx
  100775:	52                   	push   %rdx
  100776:	56                   	push   %rsi
  100777:	57                   	push   %rdi
  100778:	55                   	push   %rbp
  100779:	41 50                	push   %r8
  10077b:	41 51                	push   %r9
  10077d:	41 52                	push   %r10
  10077f:	41 53                	push   %r11
  100781:	41 54                	push   %r12
  100783:	41 55                	push   %r13
  100785:	41 56                	push   %r14
  100787:	41 57                	push   %r15
  100789:	48 89 e7             	mov    %rsp,%rdi
  10078c:	e8 df 10 00 00       	call   101870 <vmm_communication_exception>
  100791:	41 5f                	pop    %r15
  100793:	41 5e                	pop    %r14
  100795:	41 5d                	pop    %r13
  100797:	41 5c                	pop    %r12
  100799:	41 5b                	pop    %r11
  10079b:	41 5a                	pop    %r10
  10079d:	41 59                	pop    %r9
  10079f:	41 58                	pop    %r8
  1007a1:	5d                   	pop    %rbp
  1007a2:	5f                   	pop    %rdi
  1007a3:	5e                   	pop    %rsi
  1007a4:	5a                   	pop    %rdx
  1007a5:	59                   	pop    %rcx
  1007a6:	5b                   	pop    %rbx
  1007a7:	58                   	pop    %rax
  1007a8:	cf                   	iret   

00000000001007a9 <int30>:
  1007a9:	fa                   	cli    
  1007aa:	fc                   	cld    
  1007ab:	50                   	push   %rax
  1007ac:	53                   	push   %rbx
  1007ad:	51                   	push   %rcx
  1007ae:	52                   	push   %rdx
  1007af:	56                   	push   %rsi
  1007b0:	57                   	push   %rdi
  1007b1:	55                   	push   %rbp
  1007b2:	41 50                	push   %r8
  1007b4:	41 51                	push   %r9
  1007b6:	41 52                	push   %r10
  1007b8:	41 53                	push   %r11
  1007ba:	41 54                	push   %r12
  1007bc:	41 55                	push   %r13
  1007be:	41 56                	push   %r14
  1007c0:	41 57                	push   %r15
  1007c2:	48 89 e7             	mov    %rsp,%rdi
  1007c5:	e8 c6 10 00 00       	call   101890 <security_exception>
  1007ca:	41 5f                	pop    %r15
  1007cc:	41 5e                	pop    %r14
  1007ce:	41 5d                	pop    %r13
  1007d0:	41 5c                	pop    %r12
  1007d2:	41 5b                	pop    %r11
  1007d4:	41 5a                	pop    %r10
  1007d6:	41 59                	pop    %r9
  1007d8:	41 58                	pop    %r8
  1007da:	5d                   	pop    %rbp
  1007db:	5f                   	pop    %rdi
  1007dc:	5e                   	pop    %rsi
  1007dd:	5a                   	pop    %rdx
  1007de:	59                   	pop    %rcx
  1007df:	5b                   	pop    %rbx
  1007e0:	58                   	pop    %rax
  1007e1:	cf                   	iret   

00000000001007e2 <int31>:
  1007e2:	fa                   	cli    
  1007e3:	fc                   	cld    
  1007e4:	50                   	push   %rax
  1007e5:	53                   	push   %rbx
  1007e6:	51                   	push   %rcx
  1007e7:	52                   	push   %rdx
  1007e8:	56                   	push   %rsi
  1007e9:	57                   	push   %rdi
  1007ea:	55                   	push   %rbp
  1007eb:	41 50                	push   %r8
  1007ed:	41 51                	push   %r9
  1007ef:	41 52                	push   %r10
  1007f1:	41 53                	push   %r11
  1007f3:	41 54                	push   %r12
  1007f5:	41 55                	push   %r13
  1007f7:	41 56                	push   %r14
  1007f9:	41 57                	push   %r15
  1007fb:	bf 20 00 00 00       	mov    $0x20,%edi
  100800:	e8 eb 0b 00 00       	call   1013f0 <irq_handler>
  100805:	41 5f                	pop    %r15
  100807:	41 5e                	pop    %r14
  100809:	41 5d                	pop    %r13
  10080b:	41 5c                	pop    %r12
  10080d:	41 5b                	pop    %r11
  10080f:	41 5a                	pop    %r10
  100811:	41 59                	pop    %r9
  100813:	41 58                	pop    %r8
  100815:	5d                   	pop    %rbp
  100816:	5f                   	pop    %rdi
  100817:	5e                   	pop    %rsi
  100818:	5a                   	pop    %rdx
  100819:	59                   	pop    %rcx
  10081a:	5b                   	pop    %rbx
  10081b:	58                   	pop    %rax
  10081c:	fb                   	sti    
  10081d:	48 cf                	iretq  

000000000010081f <int33>:
  10081f:	fa                   	cli    
  100820:	fc                   	cld    
  100821:	50                   	push   %rax
  100822:	53                   	push   %rbx
  100823:	51                   	push   %rcx
  100824:	52                   	push   %rdx
  100825:	56                   	push   %rsi
  100826:	57                   	push   %rdi
  100827:	55                   	push   %rbp
  100828:	41 50                	push   %r8
  10082a:	41 51                	push   %r9
  10082c:	41 52                	push   %r10
  10082e:	41 53                	push   %r11
  100830:	41 54                	push   %r12
  100832:	41 55                	push   %r13
  100834:	41 56                	push   %r14
  100836:	41 57                	push   %r15
  100838:	bf 21 00 00 00       	mov    $0x21,%edi
  10083d:	e8 ae 0b 00 00       	call   1013f0 <irq_handler>
  100842:	41 5f                	pop    %r15
  100844:	41 5e                	pop    %r14
  100846:	41 5d                	pop    %r13
  100848:	41 5c                	pop    %r12
  10084a:	41 5b                	pop    %r11
  10084c:	41 5a                	pop    %r10
  10084e:	41 59                	pop    %r9
  100850:	41 58                	pop    %r8
  100852:	5d                   	pop    %rbp
  100853:	5f                   	pop    %rdi
  100854:	5e                   	pop    %rsi
  100855:	5a                   	pop    %rdx
  100856:	59                   	pop    %rcx
  100857:	5b                   	pop    %rbx
  100858:	58                   	pop    %rax
  100859:	fb                   	sti    
  10085a:	48 cf                	iretq  

000000000010085c <int34>:
  10085c:	fa                   	cli    
  10085d:	fc                   	cld    
  10085e:	50                   	push   %rax
  10085f:	53                   	push   %rbx
  100860:	51                   	push   %rcx
  100861:	52                   	push   %rdx
  100862:	56                   	push   %rsi
  100863:	57                   	push   %rdi
  100864:	55                   	push   %rbp
  100865:	41 50                	push   %r8
  100867:	41 51                	push   %r9
  100869:	41 52                	push   %r10
  10086b:	41 53                	push   %r11
  10086d:	41 54                	push   %r12
  10086f:	41 55                	push   %r13
  100871:	41 56                	push   %r14
  100873:	41 57                	push   %r15
  100875:	bf 22 00 00 00       	mov    $0x22,%edi
  10087a:	e8 71 0b 00 00       	call   1013f0 <irq_handler>
  10087f:	41 5f                	pop    %r15
  100881:	41 5e                	pop    %r14
  100883:	41 5d                	pop    %r13
  100885:	41 5c                	pop    %r12
  100887:	41 5b                	pop    %r11
  100889:	41 5a                	pop    %r10
  10088b:	41 59                	pop    %r9
  10088d:	41 58                	pop    %r8
  10088f:	5d                   	pop    %rbp
  100890:	5f                   	pop    %rdi
  100891:	5e                   	pop    %rsi
  100892:	5a                   	pop    %rdx
  100893:	59                   	pop    %rcx
  100894:	5b                   	pop    %rbx
  100895:	58                   	pop    %rax
  100896:	48 cf                	iretq  

0000000000100898 <int35>:
  100898:	fa                   	cli    
  100899:	fc                   	cld    
  10089a:	50                   	push   %rax
  10089b:	53                   	push   %rbx
  10089c:	51                   	push   %rcx
  10089d:	52                   	push   %rdx
  10089e:	56                   	push   %rsi
  10089f:	57                   	push   %rdi
  1008a0:	55                   	push   %rbp
  1008a1:	41 50                	push   %r8
  1008a3:	41 51                	push   %r9
  1008a5:	41 52                	push   %r10
  1008a7:	41 53                	push   %r11
  1008a9:	41 54                	push   %r12
  1008ab:	41 55                	push   %r13
  1008ad:	41 56                	push   %r14
  1008af:	41 57                	push   %r15
  1008b1:	bf 23 00 00 00       	mov    $0x23,%edi
  1008b6:	e8 35 0b 00 00       	call   1013f0 <irq_handler>
  1008bb:	41 5f                	pop    %r15
  1008bd:	41 5e                	pop    %r14
  1008bf:	41 5d                	pop    %r13
  1008c1:	41 5c                	pop    %r12
  1008c3:	41 5b                	pop    %r11
  1008c5:	41 5a                	pop    %r10
  1008c7:	41 59                	pop    %r9
  1008c9:	41 58                	pop    %r8
  1008cb:	5d                   	pop    %rbp
  1008cc:	5f                   	pop    %rdi
  1008cd:	5e                   	pop    %rsi
  1008ce:	5a                   	pop    %rdx
  1008cf:	59                   	pop    %rcx
  1008d0:	5b                   	pop    %rbx
  1008d1:	58                   	pop    %rax
  1008d2:	48 cf                	iretq  

00000000001008d4 <int36>:
  1008d4:	fa                   	cli    
  1008d5:	fc                   	cld    
  1008d6:	50                   	push   %rax
  1008d7:	53                   	push   %rbx
  1008d8:	51                   	push   %rcx
  1008d9:	52                   	push   %rdx
  1008da:	56                   	push   %rsi
  1008db:	57                   	push   %rdi
  1008dc:	55                   	push   %rbp
  1008dd:	41 50                	push   %r8
  1008df:	41 51                	push   %r9
  1008e1:	41 52                	push   %r10
  1008e3:	41 53                	push   %r11
  1008e5:	41 54                	push   %r12
  1008e7:	41 55                	push   %r13
  1008e9:	41 56                	push   %r14
  1008eb:	41 57                	push   %r15
  1008ed:	bf 24 00 00 00       	mov    $0x24,%edi
  1008f2:	e8 f9 0a 00 00       	call   1013f0 <irq_handler>
  1008f7:	41 5f                	pop    %r15
  1008f9:	41 5e                	pop    %r14
  1008fb:	41 5d                	pop    %r13
  1008fd:	41 5c                	pop    %r12
  1008ff:	41 5b                	pop    %r11
  100901:	41 5a                	pop    %r10
  100903:	41 59                	pop    %r9
  100905:	41 58                	pop    %r8
  100907:	5d                   	pop    %rbp
  100908:	5f                   	pop    %rdi
  100909:	5e                   	pop    %rsi
  10090a:	5a                   	pop    %rdx
  10090b:	59                   	pop    %rcx
  10090c:	5b                   	pop    %rbx
  10090d:	58                   	pop    %rax
  10090e:	48 cf                	iretq  

0000000000100910 <int37>:
  100910:	fa                   	cli    
  100911:	fc                   	cld    
  100912:	50                   	push   %rax
  100913:	53                   	push   %rbx
  100914:	51                   	push   %rcx
  100915:	52                   	push   %rdx
  100916:	56                   	push   %rsi
  100917:	57                   	push   %rdi
  100918:	55                   	push   %rbp
  100919:	41 50                	push   %r8
  10091b:	41 51                	push   %r9
  10091d:	41 52                	push   %r10
  10091f:	41 53                	push   %r11
  100921:	41 54                	push   %r12
  100923:	41 55                	push   %r13
  100925:	41 56                	push   %r14
  100927:	41 57                	push   %r15
  100929:	bf 25 00 00 00       	mov    $0x25,%edi
  10092e:	e8 bd 0a 00 00       	call   1013f0 <irq_handler>
  100933:	41 5f                	pop    %r15
  100935:	41 5e                	pop    %r14
  100937:	41 5d                	pop    %r13
  100939:	41 5c                	pop    %r12
  10093b:	41 5b                	pop    %r11
  10093d:	41 5a                	pop    %r10
  10093f:	41 59                	pop    %r9
  100941:	41 58                	pop    %r8
  100943:	5d                   	pop    %rbp
  100944:	5f                   	pop    %rdi
  100945:	5e                   	pop    %rsi
  100946:	5a                   	pop    %rdx
  100947:	59                   	pop    %rcx
  100948:	5b                   	pop    %rbx
  100949:	58                   	pop    %rax
  10094a:	48 cf                	iretq  

000000000010094c <int38>:
  10094c:	fa                   	cli    
  10094d:	fc                   	cld    
  10094e:	50                   	push   %rax
  10094f:	53                   	push   %rbx
  100950:	51                   	push   %rcx
  100951:	52                   	push   %rdx
  100952:	56                   	push   %rsi
  100953:	57                   	push   %rdi
  100954:	55                   	push   %rbp
  100955:	41 50                	push   %r8
  100957:	41 51                	push   %r9
  100959:	41 52                	push   %r10
  10095b:	41 53                	push   %r11
  10095d:	41 54                	push   %r12
  10095f:	41 55                	push   %r13
  100961:	41 56                	push   %r14
  100963:	41 57                	push   %r15
  100965:	bf 26 00 00 00       	mov    $0x26,%edi
  10096a:	e8 81 0a 00 00       	call   1013f0 <irq_handler>
  10096f:	41 5f                	pop    %r15
  100971:	41 5e                	pop    %r14
  100973:	41 5d                	pop    %r13
  100975:	41 5c                	pop    %r12
  100977:	41 5b                	pop    %r11
  100979:	41 5a                	pop    %r10
  10097b:	41 59                	pop    %r9
  10097d:	41 58                	pop    %r8
  10097f:	5d                   	pop    %rbp
  100980:	5f                   	pop    %rdi
  100981:	5e                   	pop    %rsi
  100982:	5a                   	pop    %rdx
  100983:	59                   	pop    %rcx
  100984:	5b                   	pop    %rbx
  100985:	58                   	pop    %rax
  100986:	48 cf                	iretq  

0000000000100988 <int39>:
  100988:	fa                   	cli    
  100989:	fc                   	cld    
  10098a:	50                   	push   %rax
  10098b:	53                   	push   %rbx
  10098c:	51                   	push   %rcx
  10098d:	52                   	push   %rdx
  10098e:	56                   	push   %rsi
  10098f:	57                   	push   %rdi
  100990:	55                   	push   %rbp
  100991:	41 50                	push   %r8
  100993:	41 51                	push   %r9
  100995:	41 52                	push   %r10
  100997:	41 53                	push   %r11
  100999:	41 54                	push   %r12
  10099b:	41 55                	push   %r13
  10099d:	41 56                	push   %r14
  10099f:	41 57                	push   %r15
  1009a1:	bf 27 00 00 00       	mov    $0x27,%edi
  1009a6:	e8 45 0a 00 00       	call   1013f0 <irq_handler>
  1009ab:	41 5f                	pop    %r15
  1009ad:	41 5e                	pop    %r14
  1009af:	41 5d                	pop    %r13
  1009b1:	41 5c                	pop    %r12
  1009b3:	41 5b                	pop    %r11
  1009b5:	41 5a                	pop    %r10
  1009b7:	41 59                	pop    %r9
  1009b9:	41 58                	pop    %r8
  1009bb:	5d                   	pop    %rbp
  1009bc:	5f                   	pop    %rdi
  1009bd:	5e                   	pop    %rsi
  1009be:	5a                   	pop    %rdx
  1009bf:	59                   	pop    %rcx
  1009c0:	5b                   	pop    %rbx
  1009c1:	58                   	pop    %rax
  1009c2:	48 cf                	iretq  

00000000001009c4 <int40>:
  1009c4:	fa                   	cli    
  1009c5:	fc                   	cld    
  1009c6:	50                   	push   %rax
  1009c7:	53                   	push   %rbx
  1009c8:	51                   	push   %rcx
  1009c9:	52                   	push   %rdx
  1009ca:	56                   	push   %rsi
  1009cb:	57                   	push   %rdi
  1009cc:	55                   	push   %rbp
  1009cd:	41 50                	push   %r8
  1009cf:	41 51                	push   %r9
  1009d1:	41 52                	push   %r10
  1009d3:	41 53                	push   %r11
  1009d5:	41 54                	push   %r12
  1009d7:	41 55                	push   %r13
  1009d9:	41 56                	push   %r14
  1009db:	41 57                	push   %r15
  1009dd:	bf 28 00 00 00       	mov    $0x28,%edi
  1009e2:	e8 09 0a 00 00       	call   1013f0 <irq_handler>
  1009e7:	41 5f                	pop    %r15
  1009e9:	41 5e                	pop    %r14
  1009eb:	41 5d                	pop    %r13
  1009ed:	41 5c                	pop    %r12
  1009ef:	41 5b                	pop    %r11
  1009f1:	41 5a                	pop    %r10
  1009f3:	41 59                	pop    %r9
  1009f5:	41 58                	pop    %r8
  1009f7:	5d                   	pop    %rbp
  1009f8:	5f                   	pop    %rdi
  1009f9:	5e                   	pop    %rsi
  1009fa:	5a                   	pop    %rdx
  1009fb:	59                   	pop    %rcx
  1009fc:	5b                   	pop    %rbx
  1009fd:	58                   	pop    %rax
  1009fe:	48 cf                	iretq  

0000000000100a00 <int41>:
  100a00:	fa                   	cli    
  100a01:	fc                   	cld    
  100a02:	50                   	push   %rax
  100a03:	53                   	push   %rbx
  100a04:	51                   	push   %rcx
  100a05:	52                   	push   %rdx
  100a06:	56                   	push   %rsi
  100a07:	57                   	push   %rdi
  100a08:	55                   	push   %rbp
  100a09:	41 50                	push   %r8
  100a0b:	41 51                	push   %r9
  100a0d:	41 52                	push   %r10
  100a0f:	41 53                	push   %r11
  100a11:	41 54                	push   %r12
  100a13:	41 55                	push   %r13
  100a15:	41 56                	push   %r14
  100a17:	41 57                	push   %r15
  100a19:	bf 29 00 00 00       	mov    $0x29,%edi
  100a1e:	e8 cd 09 00 00       	call   1013f0 <irq_handler>
  100a23:	41 5f                	pop    %r15
  100a25:	41 5e                	pop    %r14
  100a27:	41 5d                	pop    %r13
  100a29:	41 5c                	pop    %r12
  100a2b:	41 5b                	pop    %r11
  100a2d:	41 5a                	pop    %r10
  100a2f:	41 59                	pop    %r9
  100a31:	41 58                	pop    %r8
  100a33:	5d                   	pop    %rbp
  100a34:	5f                   	pop    %rdi
  100a35:	5e                   	pop    %rsi
  100a36:	5a                   	pop    %rdx
  100a37:	59                   	pop    %rcx
  100a38:	5b                   	pop    %rbx
  100a39:	58                   	pop    %rax
  100a3a:	cf                   	iret   

0000000000100a3b <int42>:
  100a3b:	fa                   	cli    
  100a3c:	fc                   	cld    
  100a3d:	50                   	push   %rax
  100a3e:	53                   	push   %rbx
  100a3f:	51                   	push   %rcx
  100a40:	52                   	push   %rdx
  100a41:	56                   	push   %rsi
  100a42:	57                   	push   %rdi
  100a43:	55                   	push   %rbp
  100a44:	41 50                	push   %r8
  100a46:	41 51                	push   %r9
  100a48:	41 52                	push   %r10
  100a4a:	41 53                	push   %r11
  100a4c:	41 54                	push   %r12
  100a4e:	41 55                	push   %r13
  100a50:	41 56                	push   %r14
  100a52:	41 57                	push   %r15
  100a54:	bf 2a 00 00 00       	mov    $0x2a,%edi
  100a59:	e8 92 09 00 00       	call   1013f0 <irq_handler>
  100a5e:	41 5f                	pop    %r15
  100a60:	41 5e                	pop    %r14
  100a62:	41 5d                	pop    %r13
  100a64:	41 5c                	pop    %r12
  100a66:	41 5b                	pop    %r11
  100a68:	41 5a                	pop    %r10
  100a6a:	41 59                	pop    %r9
  100a6c:	41 58                	pop    %r8
  100a6e:	5d                   	pop    %rbp
  100a6f:	5f                   	pop    %rdi
  100a70:	5e                   	pop    %rsi
  100a71:	5a                   	pop    %rdx
  100a72:	59                   	pop    %rcx
  100a73:	5b                   	pop    %rbx
  100a74:	58                   	pop    %rax
  100a75:	cf                   	iret   

0000000000100a76 <int43>:
  100a76:	fa                   	cli    
  100a77:	fc                   	cld    
  100a78:	50                   	push   %rax
  100a79:	53                   	push   %rbx
  100a7a:	51                   	push   %rcx
  100a7b:	52                   	push   %rdx
  100a7c:	56                   	push   %rsi
  100a7d:	57                   	push   %rdi
  100a7e:	55                   	push   %rbp
  100a7f:	41 50                	push   %r8
  100a81:	41 51                	push   %r9
  100a83:	41 52                	push   %r10
  100a85:	41 53                	push   %r11
  100a87:	41 54                	push   %r12
  100a89:	41 55                	push   %r13
  100a8b:	41 56                	push   %r14
  100a8d:	41 57                	push   %r15
  100a8f:	bf 2b 00 00 00       	mov    $0x2b,%edi
  100a94:	e8 57 09 00 00       	call   1013f0 <irq_handler>
  100a99:	41 5f                	pop    %r15
  100a9b:	41 5e                	pop    %r14
  100a9d:	41 5d                	pop    %r13
  100a9f:	41 5c                	pop    %r12
  100aa1:	41 5b                	pop    %r11
  100aa3:	41 5a                	pop    %r10
  100aa5:	41 59                	pop    %r9
  100aa7:	41 58                	pop    %r8
  100aa9:	5d                   	pop    %rbp
  100aaa:	5f                   	pop    %rdi
  100aab:	5e                   	pop    %rsi
  100aac:	5a                   	pop    %rdx
  100aad:	59                   	pop    %rcx
  100aae:	5b                   	pop    %rbx
  100aaf:	58                   	pop    %rax
  100ab0:	cf                   	iret   

0000000000100ab1 <int44>:
  100ab1:	fa                   	cli    
  100ab2:	fc                   	cld    
  100ab3:	50                   	push   %rax
  100ab4:	53                   	push   %rbx
  100ab5:	51                   	push   %rcx
  100ab6:	52                   	push   %rdx
  100ab7:	56                   	push   %rsi
  100ab8:	57                   	push   %rdi
  100ab9:	55                   	push   %rbp
  100aba:	41 50                	push   %r8
  100abc:	41 51                	push   %r9
  100abe:	41 52                	push   %r10
  100ac0:	41 53                	push   %r11
  100ac2:	41 54                	push   %r12
  100ac4:	41 55                	push   %r13
  100ac6:	41 56                	push   %r14
  100ac8:	41 57                	push   %r15
  100aca:	bf 2c 00 00 00       	mov    $0x2c,%edi
  100acf:	e8 1c 09 00 00       	call   1013f0 <irq_handler>
  100ad4:	41 5f                	pop    %r15
  100ad6:	41 5e                	pop    %r14
  100ad8:	41 5d                	pop    %r13
  100ada:	41 5c                	pop    %r12
  100adc:	41 5b                	pop    %r11
  100ade:	41 5a                	pop    %r10
  100ae0:	41 59                	pop    %r9
  100ae2:	41 58                	pop    %r8
  100ae4:	5d                   	pop    %rbp
  100ae5:	5f                   	pop    %rdi
  100ae6:	5e                   	pop    %rsi
  100ae7:	5a                   	pop    %rdx
  100ae8:	59                   	pop    %rcx
  100ae9:	5b                   	pop    %rbx
  100aea:	58                   	pop    %rax
  100aeb:	cf                   	iret   

0000000000100aec <int45>:
  100aec:	fa                   	cli    
  100aed:	fc                   	cld    
  100aee:	50                   	push   %rax
  100aef:	53                   	push   %rbx
  100af0:	51                   	push   %rcx
  100af1:	52                   	push   %rdx
  100af2:	56                   	push   %rsi
  100af3:	57                   	push   %rdi
  100af4:	55                   	push   %rbp
  100af5:	41 50                	push   %r8
  100af7:	41 51                	push   %r9
  100af9:	41 52                	push   %r10
  100afb:	41 53                	push   %r11
  100afd:	41 54                	push   %r12
  100aff:	41 55                	push   %r13
  100b01:	41 56                	push   %r14
  100b03:	41 57                	push   %r15
  100b05:	bf 2d 00 00 00       	mov    $0x2d,%edi
  100b0a:	e8 e1 08 00 00       	call   1013f0 <irq_handler>
  100b0f:	41 5f                	pop    %r15
  100b11:	41 5e                	pop    %r14
  100b13:	41 5d                	pop    %r13
  100b15:	41 5c                	pop    %r12
  100b17:	41 5b                	pop    %r11
  100b19:	41 5a                	pop    %r10
  100b1b:	41 59                	pop    %r9
  100b1d:	41 58                	pop    %r8
  100b1f:	5d                   	pop    %rbp
  100b20:	5f                   	pop    %rdi
  100b21:	5e                   	pop    %rsi
  100b22:	5a                   	pop    %rdx
  100b23:	59                   	pop    %rcx
  100b24:	5b                   	pop    %rbx
  100b25:	58                   	pop    %rax
  100b26:	cf                   	iret   

0000000000100b27 <int46>:
  100b27:	fa                   	cli    
  100b28:	fc                   	cld    
  100b29:	50                   	push   %rax
  100b2a:	53                   	push   %rbx
  100b2b:	51                   	push   %rcx
  100b2c:	52                   	push   %rdx
  100b2d:	56                   	push   %rsi
  100b2e:	57                   	push   %rdi
  100b2f:	55                   	push   %rbp
  100b30:	41 50                	push   %r8
  100b32:	41 51                	push   %r9
  100b34:	41 52                	push   %r10
  100b36:	41 53                	push   %r11
  100b38:	41 54                	push   %r12
  100b3a:	41 55                	push   %r13
  100b3c:	41 56                	push   %r14
  100b3e:	41 57                	push   %r15
  100b40:	bf 2e 00 00 00       	mov    $0x2e,%edi
  100b45:	e8 a6 08 00 00       	call   1013f0 <irq_handler>
  100b4a:	41 5f                	pop    %r15
  100b4c:	41 5e                	pop    %r14
  100b4e:	41 5d                	pop    %r13
  100b50:	41 5c                	pop    %r12
  100b52:	41 5b                	pop    %r11
  100b54:	41 5a                	pop    %r10
  100b56:	41 59                	pop    %r9
  100b58:	41 58                	pop    %r8
  100b5a:	5d                   	pop    %rbp
  100b5b:	5f                   	pop    %rdi
  100b5c:	5e                   	pop    %rsi
  100b5d:	5a                   	pop    %rdx
  100b5e:	59                   	pop    %rcx
  100b5f:	5b                   	pop    %rbx
  100b60:	58                   	pop    %rax
  100b61:	cf                   	iret   

0000000000100b62 <int47>:
  100b62:	fa                   	cli    
  100b63:	fc                   	cld    
  100b64:	50                   	push   %rax
  100b65:	53                   	push   %rbx
  100b66:	51                   	push   %rcx
  100b67:	52                   	push   %rdx
  100b68:	56                   	push   %rsi
  100b69:	57                   	push   %rdi
  100b6a:	55                   	push   %rbp
  100b6b:	41 50                	push   %r8
  100b6d:	41 51                	push   %r9
  100b6f:	41 52                	push   %r10
  100b71:	41 53                	push   %r11
  100b73:	41 54                	push   %r12
  100b75:	41 55                	push   %r13
  100b77:	41 56                	push   %r14
  100b79:	41 57                	push   %r15
  100b7b:	bf 2f 00 00 00       	mov    $0x2f,%edi
  100b80:	e8 6b 08 00 00       	call   1013f0 <irq_handler>
  100b85:	41 5f                	pop    %r15
  100b87:	41 5e                	pop    %r14
  100b89:	41 5d                	pop    %r13
  100b8b:	41 5c                	pop    %r12
  100b8d:	41 5b                	pop    %r11
  100b8f:	41 5a                	pop    %r10
  100b91:	41 59                	pop    %r9
  100b93:	41 58                	pop    %r8
  100b95:	5d                   	pop    %rbp
  100b96:	5f                   	pop    %rdi
  100b97:	5e                   	pop    %rsi
  100b98:	5a                   	pop    %rdx
  100b99:	59                   	pop    %rcx
  100b9a:	5b                   	pop    %rbx
  100b9b:	58                   	pop    %rax
  100b9c:	cf                   	iret   

0000000000100b9d <int48>:
  100b9d:	fa                   	cli    
  100b9e:	fc                   	cld    
  100b9f:	50                   	push   %rax
  100ba0:	53                   	push   %rbx
  100ba1:	51                   	push   %rcx
  100ba2:	52                   	push   %rdx
  100ba3:	56                   	push   %rsi
  100ba4:	57                   	push   %rdi
  100ba5:	55                   	push   %rbp
  100ba6:	41 50                	push   %r8
  100ba8:	41 51                	push   %r9
  100baa:	41 52                	push   %r10
  100bac:	41 53                	push   %r11
  100bae:	41 54                	push   %r12
  100bb0:	41 55                	push   %r13
  100bb2:	41 56                	push   %r14
  100bb4:	41 57                	push   %r15
  100bb6:	bf 30 00 00 00       	mov    $0x30,%edi
  100bbb:	e8 30 08 00 00       	call   1013f0 <irq_handler>
  100bc0:	41 5f                	pop    %r15
  100bc2:	41 5e                	pop    %r14
  100bc4:	41 5d                	pop    %r13
  100bc6:	41 5c                	pop    %r12
  100bc8:	41 5b                	pop    %r11
  100bca:	41 5a                	pop    %r10
  100bcc:	41 59                	pop    %r9
  100bce:	41 58                	pop    %r8
  100bd0:	5d                   	pop    %rbp
  100bd1:	5f                   	pop    %rdi
  100bd2:	5e                   	pop    %rsi
  100bd3:	5a                   	pop    %rdx
  100bd4:	59                   	pop    %rcx
  100bd5:	5b                   	pop    %rbx
  100bd6:	58                   	pop    %rax
  100bd7:	cf                   	iret   

0000000000100bd8 <int49>:
  100bd8:	fa                   	cli    
  100bd9:	fc                   	cld    
  100bda:	50                   	push   %rax
  100bdb:	53                   	push   %rbx
  100bdc:	51                   	push   %rcx
  100bdd:	52                   	push   %rdx
  100bde:	56                   	push   %rsi
  100bdf:	57                   	push   %rdi
  100be0:	55                   	push   %rbp
  100be1:	41 50                	push   %r8
  100be3:	41 51                	push   %r9
  100be5:	41 52                	push   %r10
  100be7:	41 53                	push   %r11
  100be9:	41 54                	push   %r12
  100beb:	41 55                	push   %r13
  100bed:	41 56                	push   %r14
  100bef:	41 57                	push   %r15
  100bf1:	bf 31 00 00 00       	mov    $0x31,%edi
  100bf6:	e8 f5 07 00 00       	call   1013f0 <irq_handler>
  100bfb:	41 5f                	pop    %r15
  100bfd:	41 5e                	pop    %r14
  100bff:	41 5d                	pop    %r13
  100c01:	41 5c                	pop    %r12
  100c03:	41 5b                	pop    %r11
  100c05:	41 5a                	pop    %r10
  100c07:	41 59                	pop    %r9
  100c09:	41 58                	pop    %r8
  100c0b:	5d                   	pop    %rbp
  100c0c:	5f                   	pop    %rdi
  100c0d:	5e                   	pop    %rsi
  100c0e:	5a                   	pop    %rdx
  100c0f:	59                   	pop    %rcx
  100c10:	5b                   	pop    %rbx
  100c11:	58                   	pop    %rax
  100c12:	cf                   	iret   

0000000000100c13 <exception_halt_main>:
  100c13:	fa                   	cli    
  100c14:	f4                   	hlt    
  100c15:	eb fc                	jmp    100c13 <exception_halt_main>

0000000000100c17 <make_entry>:
  100c17:	48 ba 00 70 20 00 00 	movabs $0x207000,%rdx
  100c1e:	00 00 00 
  100c21:	48 01 ca             	add    %rcx,%rdx
  100c24:	66 89 02             	mov    %ax,(%rdx)
  100c27:	66 c7 42 02 08 00    	movw   $0x8,0x2(%rdx)
  100c2d:	c6 42 04 00          	movb   $0x0,0x4(%rdx)
  100c31:	c6 42 05 8f          	movb   $0x8f,0x5(%rdx)
  100c35:	48 c1 e8 10          	shr    $0x10,%rax
  100c39:	66 89 42 06          	mov    %ax,0x6(%rdx)
  100c3d:	48 c1 e8 10          	shr    $0x10,%rax
  100c41:	89 42 08             	mov    %eax,0x8(%rdx)
  100c44:	c7 42 0c 00 00 00 00 	movl   $0x0,0xc(%rdx)
  100c4b:	c3                   	ret    

0000000000100c4c <make_entry_interrupt>:
  100c4c:	48 ba 00 70 20 00 00 	movabs $0x207000,%rdx
  100c53:	00 00 00 
  100c56:	48 01 ca             	add    %rcx,%rdx
  100c59:	66 89 02             	mov    %ax,(%rdx)
  100c5c:	66 c7 42 02 08 00    	movw   $0x8,0x2(%rdx)
  100c62:	c6 42 04 00          	movb   $0x0,0x4(%rdx)
  100c66:	c6 42 05 8e          	movb   $0x8e,0x5(%rdx)
  100c6a:	48 c1 e8 10          	shr    $0x10,%rax
  100c6e:	66 89 42 06          	mov    %ax,0x6(%rdx)
  100c72:	48 c1 e8 10          	shr    $0x10,%rax
  100c76:	89 42 08             	mov    %eax,0x8(%rdx)
  100c79:	c7 42 0c 00 00 00 00 	movl   $0x0,0xc(%rdx)
  100c80:	c3                   	ret    

0000000000100c81 <enable_interrupts>:
  100c81:	eb 0c                	jmp    100c8f <clear_IDT>

0000000000100c83 <disable_pic>:
  100c83:	66 ba 21 00          	mov    $0x21,%dx
  100c87:	b0 ff                	mov    $0xff,%al
  100c89:	ee                   	out    %al,(%dx)
  100c8a:	66 ba a1 00          	mov    $0xa1,%dx
  100c8e:	ee                   	out    %al,(%dx)

0000000000100c8f <clear_IDT>:
  100c8f:	48 31 c0             	xor    %rax,%rax
  100c92:	b9 00 02 00 00       	mov    $0x200,%ecx
  100c97:	48 bf 00 70 20 00 00 	movabs $0x207000,%rdi
  100c9e:	00 00 00 
  100ca1:	f3 48 ab             	rep stos %rax,%es:(%rdi)

0000000000100ca4 <make_entries>:
  100ca4:	48 b8 8a 02 10 00 00 	movabs $0x10028a,%rax
  100cab:	00 00 00 
  100cae:	b9 00 00 00 00       	mov    $0x0,%ecx
  100cb3:	e8 5f ff ff ff       	call   100c17 <make_entry>
  100cb8:	48 b8 c3 02 10 00 00 	movabs $0x1002c3,%rax
  100cbf:	00 00 00 
  100cc2:	b9 10 00 00 00       	mov    $0x10,%ecx
  100cc7:	e8 4b ff ff ff       	call   100c17 <make_entry>
  100ccc:	48 b8 8a 02 10 00 00 	movabs $0x10028a,%rax
  100cd3:	00 00 00 
  100cd6:	b9 00 00 00 00       	mov    $0x0,%ecx
  100cdb:	e8 37 ff ff ff       	call   100c17 <make_entry>
  100ce0:	48 b8 c3 02 10 00 00 	movabs $0x1002c3,%rax
  100ce7:	00 00 00 
  100cea:	b9 10 00 00 00       	mov    $0x10,%ecx
  100cef:	e8 23 ff ff ff       	call   100c17 <make_entry>
  100cf4:	48 b8 fc 02 10 00 00 	movabs $0x1002fc,%rax
  100cfb:	00 00 00 
  100cfe:	b9 20 00 00 00       	mov    $0x20,%ecx
  100d03:	e8 0f ff ff ff       	call   100c17 <make_entry>
  100d08:	48 b8 35 03 10 00 00 	movabs $0x100335,%rax
  100d0f:	00 00 00 
  100d12:	b9 30 00 00 00       	mov    $0x30,%ecx
  100d17:	e8 fb fe ff ff       	call   100c17 <make_entry>
  100d1c:	48 b8 6e 03 10 00 00 	movabs $0x10036e,%rax
  100d23:	00 00 00 
  100d26:	b9 40 00 00 00       	mov    $0x40,%ecx
  100d2b:	e8 e7 fe ff ff       	call   100c17 <make_entry>
  100d30:	48 b8 a7 03 10 00 00 	movabs $0x1003a7,%rax
  100d37:	00 00 00 
  100d3a:	b9 50 00 00 00       	mov    $0x50,%ecx
  100d3f:	e8 d3 fe ff ff       	call   100c17 <make_entry>
  100d44:	48 b8 e0 03 10 00 00 	movabs $0x1003e0,%rax
  100d4b:	00 00 00 
  100d4e:	b9 60 00 00 00       	mov    $0x60,%ecx
  100d53:	e8 bf fe ff ff       	call   100c17 <make_entry>
  100d58:	48 b8 19 04 10 00 00 	movabs $0x100419,%rax
  100d5f:	00 00 00 
  100d62:	b9 70 00 00 00       	mov    $0x70,%ecx
  100d67:	e8 ab fe ff ff       	call   100c17 <make_entry>
  100d6c:	48 b8 52 04 10 00 00 	movabs $0x100452,%rax
  100d73:	00 00 00 
  100d76:	b9 80 00 00 00       	mov    $0x80,%ecx
  100d7b:	e8 97 fe ff ff       	call   100c17 <make_entry>
  100d80:	48 b8 8b 04 10 00 00 	movabs $0x10048b,%rax
  100d87:	00 00 00 
  100d8a:	b9 90 00 00 00       	mov    $0x90,%ecx
  100d8f:	e8 83 fe ff ff       	call   100c17 <make_entry>
  100d94:	48 b8 c4 04 10 00 00 	movabs $0x1004c4,%rax
  100d9b:	00 00 00 
  100d9e:	b9 a0 00 00 00       	mov    $0xa0,%ecx
  100da3:	e8 6f fe ff ff       	call   100c17 <make_entry>
  100da8:	48 b8 fd 04 10 00 00 	movabs $0x1004fd,%rax
  100daf:	00 00 00 
  100db2:	b9 b0 00 00 00       	mov    $0xb0,%ecx
  100db7:	e8 5b fe ff ff       	call   100c17 <make_entry>
  100dbc:	48 b8 36 05 10 00 00 	movabs $0x100536,%rax
  100dc3:	00 00 00 
  100dc6:	b9 c0 00 00 00       	mov    $0xc0,%ecx
  100dcb:	e8 47 fe ff ff       	call   100c17 <make_entry>
  100dd0:	48 b8 6f 05 10 00 00 	movabs $0x10056f,%rax
  100dd7:	00 00 00 
  100dda:	b9 d0 00 00 00       	mov    $0xd0,%ecx
  100ddf:	e8 33 fe ff ff       	call   100c17 <make_entry>
  100de4:	48 b8 a8 05 10 00 00 	movabs $0x1005a8,%rax
  100deb:	00 00 00 
  100dee:	b9 e0 00 00 00       	mov    $0xe0,%ecx
  100df3:	e8 1f fe ff ff       	call   100c17 <make_entry>
  100df8:	48 b8 e1 05 10 00 00 	movabs $0x1005e1,%rax
  100dff:	00 00 00 
  100e02:	b9 00 01 00 00       	mov    $0x100,%ecx
  100e07:	e8 0b fe ff ff       	call   100c17 <make_entry>
  100e0c:	48 b8 1a 06 10 00 00 	movabs $0x10061a,%rax
  100e13:	00 00 00 
  100e16:	b9 10 01 00 00       	mov    $0x110,%ecx
  100e1b:	e8 f7 fd ff ff       	call   100c17 <make_entry>
  100e20:	48 b8 53 06 10 00 00 	movabs $0x100653,%rax
  100e27:	00 00 00 
  100e2a:	b9 20 01 00 00       	mov    $0x120,%ecx
  100e2f:	e8 e3 fd ff ff       	call   100c17 <make_entry>
  100e34:	48 b8 8c 06 10 00 00 	movabs $0x10068c,%rax
  100e3b:	00 00 00 
  100e3e:	b9 30 01 00 00       	mov    $0x130,%ecx
  100e43:	e8 cf fd ff ff       	call   100c17 <make_entry>
  100e48:	48 b8 c5 06 10 00 00 	movabs $0x1006c5,%rax
  100e4f:	00 00 00 
  100e52:	b9 40 01 00 00       	mov    $0x140,%ecx
  100e57:	e8 bb fd ff ff       	call   100c17 <make_entry>
  100e5c:	48 b8 fe 06 10 00 00 	movabs $0x1006fe,%rax
  100e63:	00 00 00 
  100e66:	b9 50 01 00 00       	mov    $0x150,%ecx
  100e6b:	e8 a7 fd ff ff       	call   100c17 <make_entry>
  100e70:	48 b8 37 07 10 00 00 	movabs $0x100737,%rax
  100e77:	00 00 00 
  100e7a:	b9 c0 01 00 00       	mov    $0x1c0,%ecx
  100e7f:	e8 93 fd ff ff       	call   100c17 <make_entry>
  100e84:	48 b8 70 07 10 00 00 	movabs $0x100770,%rax
  100e8b:	00 00 00 
  100e8e:	b9 d0 01 00 00       	mov    $0x1d0,%ecx
  100e93:	e8 7f fd ff ff       	call   100c17 <make_entry>
  100e98:	48 b8 a9 07 10 00 00 	movabs $0x1007a9,%rax
  100e9f:	00 00 00 
  100ea2:	b9 e0 01 00 00       	mov    $0x1e0,%ecx
  100ea7:	e8 6b fd ff ff       	call   100c17 <make_entry>
  100eac:	48 b8 e2 07 10 00 00 	movabs $0x1007e2,%rax
  100eb3:	00 00 00 
  100eb6:	b9 00 02 00 00       	mov    $0x200,%ecx
  100ebb:	e8 57 fd ff ff       	call   100c17 <make_entry>
  100ec0:	48 b8 1f 08 10 00 00 	movabs $0x10081f,%rax
  100ec7:	00 00 00 
  100eca:	b9 10 02 00 00       	mov    $0x210,%ecx
  100ecf:	e8 43 fd ff ff       	call   100c17 <make_entry>
  100ed4:	48 b8 5c 08 10 00 00 	movabs $0x10085c,%rax
  100edb:	00 00 00 
  100ede:	b9 20 02 00 00       	mov    $0x220,%ecx
  100ee3:	e8 2f fd ff ff       	call   100c17 <make_entry>
  100ee8:	48 b8 98 08 10 00 00 	movabs $0x100898,%rax
  100eef:	00 00 00 
  100ef2:	b9 30 02 00 00       	mov    $0x230,%ecx
  100ef7:	e8 1b fd ff ff       	call   100c17 <make_entry>
  100efc:	48 b8 d4 08 10 00 00 	movabs $0x1008d4,%rax
  100f03:	00 00 00 
  100f06:	b9 40 02 00 00       	mov    $0x240,%ecx
  100f0b:	e8 07 fd ff ff       	call   100c17 <make_entry>
  100f10:	48 b8 10 09 10 00 00 	movabs $0x100910,%rax
  100f17:	00 00 00 
  100f1a:	b9 50 02 00 00       	mov    $0x250,%ecx
  100f1f:	e8 f3 fc ff ff       	call   100c17 <make_entry>
  100f24:	48 b8 4c 09 10 00 00 	movabs $0x10094c,%rax
  100f2b:	00 00 00 
  100f2e:	b9 60 02 00 00       	mov    $0x260,%ecx
  100f33:	e8 df fc ff ff       	call   100c17 <make_entry>
  100f38:	48 b8 88 09 10 00 00 	movabs $0x100988,%rax
  100f3f:	00 00 00 
  100f42:	b9 70 02 00 00       	mov    $0x270,%ecx
  100f47:	e8 cb fc ff ff       	call   100c17 <make_entry>
  100f4c:	48 b8 c4 09 10 00 00 	movabs $0x1009c4,%rax
  100f53:	00 00 00 
  100f56:	b9 80 02 00 00       	mov    $0x280,%ecx
  100f5b:	e8 b7 fc ff ff       	call   100c17 <make_entry>
  100f60:	48 b8 00 0a 10 00 00 	movabs $0x100a00,%rax
  100f67:	00 00 00 
  100f6a:	b9 90 02 00 00       	mov    $0x290,%ecx
  100f6f:	e8 a3 fc ff ff       	call   100c17 <make_entry>
  100f74:	48 b8 3b 0a 10 00 00 	movabs $0x100a3b,%rax
  100f7b:	00 00 00 
  100f7e:	b9 a0 02 00 00       	mov    $0x2a0,%ecx
  100f83:	e8 8f fc ff ff       	call   100c17 <make_entry>
  100f88:	48 b8 76 0a 10 00 00 	movabs $0x100a76,%rax
  100f8f:	00 00 00 
  100f92:	b9 b0 02 00 00       	mov    $0x2b0,%ecx
  100f97:	e8 7b fc ff ff       	call   100c17 <make_entry>
  100f9c:	48 b8 b1 0a 10 00 00 	movabs $0x100ab1,%rax
  100fa3:	00 00 00 
  100fa6:	b9 c0 02 00 00       	mov    $0x2c0,%ecx
  100fab:	e8 67 fc ff ff       	call   100c17 <make_entry>
  100fb0:	48 b8 ec 0a 10 00 00 	movabs $0x100aec,%rax
  100fb7:	00 00 00 
  100fba:	b9 d0 02 00 00       	mov    $0x2d0,%ecx
  100fbf:	e8 53 fc ff ff       	call   100c17 <make_entry>
  100fc4:	48 b8 27 0b 10 00 00 	movabs $0x100b27,%rax
  100fcb:	00 00 00 
  100fce:	b9 e0 02 00 00       	mov    $0x2e0,%ecx
  100fd3:	e8 3f fc ff ff       	call   100c17 <make_entry>
  100fd8:	48 b8 62 0b 10 00 00 	movabs $0x100b62,%rax
  100fdf:	00 00 00 
  100fe2:	b9 f0 02 00 00       	mov    $0x2f0,%ecx
  100fe7:	e8 2b fc ff ff       	call   100c17 <make_entry>

0000000000100fec <load_IDT>:
  100fec:	fa                   	cli    
  100fed:	0f 01 1c 25 b0 2c 10 	lidt   0x102cb0
  100ff4:	00 

0000000000100ff5 <fix_cs>:
  100ff5:	66 b8 10 00          	mov    $0x10,%ax
  100ff9:	8e d8                	mov    %eax,%ds
  100ffb:	8e c0                	mov    %eax,%es
  100ffd:	8e e0                	mov    %eax,%fs
  100fff:	8e e8                	mov    %eax,%gs
  101001:	8e d0                	mov    %eax,%ss
  101003:	48 bc 00 10 20 00 00 	movabs $0x201000,%rsp
  10100a:	00 00 00 
  10100d:	48 bd 00 10 20 00 00 	movabs $0x201000,%rbp
  101014:	00 00 00 
  101017:	fb                   	sti    
  101018:	e9 62 f1 ff ff       	jmp    10017f <interrupts_enabled>

000000000010101d <enable_APIC>:
  10101d:	b8 01 00 00 00       	mov    $0x1,%eax
  101022:	0f a2                	cpuid  
  101024:	0f ba e2 09          	bt     $0x9,%edx
  101028:	73 18                	jae    101042 <enable_APIC.noLAPIC>
  10102a:	0f ba e2 05          	bt     $0x5,%edx
  10102e:	73 18                	jae    101048 <enable_APIC.noMSR>
  101030:	b9 1b 00 00 00       	mov    $0x1b,%ecx
  101035:	0f 32                	rdmsr  
  101037:	0d 00 08 00 00       	or     $0x800,%eax
  10103c:	0f 30                	wrmsr  
  10103e:	48 31 c0             	xor    %rax,%rax
  101041:	c3                   	ret    

0000000000101042 <enable_APIC.noLAPIC>:
  101042:	b8 01 00 00 00       	mov    $0x1,%eax
  101047:	c3                   	ret    

0000000000101048 <enable_APIC.noMSR>:
  101048:	b8 02 00 00 00       	mov    $0x2,%eax
  10104d:	c3                   	ret    

000000000010104e <remap_APIC_registers>:
  10104e:	51                   	push   %rcx
  10104f:	50                   	push   %rax
  101050:	b8 00 f0 ff ff       	mov    $0xfffff000,%eax
  101055:	48 21 c7             	and    %rax,%rdi
  101058:	b9 1b 00 00 00       	mov    $0x1b,%ecx
  10105d:	0f 32                	rdmsr  
  10105f:	48 25 ff 0f 00 00    	and    $0xfff,%rax
  101065:	48 09 f8             	or     %rdi,%rax
  101068:	0f 30                	wrmsr  
  10106a:	58                   	pop    %rax
  10106b:	59                   	pop    %rcx
  10106c:	c3                   	ret    

000000000010106d <error>:
  10106d:	66 ba f8 03          	mov    $0x3f8,%dx
  101071:	ee                   	out    %al,(%dx)
  101072:	f4                   	hlt    
  101073:	66 2e 0f 1f 84 00 00 	cs nopw 0x0(%rax,%rax,1)
  10107a:	00 00 00 
  10107d:	0f 1f 00             	nopl   (%rax)

0000000000101080 <parse_boot_information>:
  101080:	f3 0f 1e fa          	endbr64 
  101084:	44 8b 07             	mov    (%rdi),%r8d
  101087:	49 83 f8 08          	cmp    $0x8,%r8
  10108b:	76 5e                	jbe    1010eb <parse_boot_information+0x6b>
  10108d:	ba 08 00 00 00       	mov    $0x8,%edx
  101092:	48 8d 35 83 11 00 00 	lea    0x1183(%rip),%rsi        # 10221c <set_timer+0x7c>
  101099:	41 b9 08 00 00 00    	mov    $0x8,%r9d
  10109f:	90                   	nop
  1010a0:	48 8d 04 17          	lea    (%rdi,%rdx,1),%rax
  1010a4:	83 38 15             	cmpl   $0x15,(%rax)
  1010a7:	77 27                	ja     1010d0 <parse_boot_information+0x50>
  1010a9:	8b 08                	mov    (%rax),%ecx
  1010ab:	48 63 0c 8e          	movslq (%rsi,%rcx,4),%rcx
  1010af:	48 01 f1             	add    %rsi,%rcx
  1010b2:	3e ff e1             	notrack jmp *%rcx
  1010b5:	0f 1f 00             	nopl   (%rax)
  1010b8:	48 83 0c 25 80 00 10 	orq    $0x2,0x100080
  1010bf:	00 02 
  1010c1:	48 89 04 25 88 00 10 	mov    %rax,0x100088
  1010c8:	00 
  1010c9:	0f 1f 80 00 00 00 00 	nopl   0x0(%rax)
  1010d0:	8b 48 04             	mov    0x4(%rax),%ecx
  1010d3:	48 89 c8             	mov    %rcx,%rax
  1010d6:	48 01 ca             	add    %rcx,%rdx
  1010d9:	83 e0 07             	and    $0x7,%eax
  1010dc:	74 08                	je     1010e6 <parse_boot_information+0x66>
  1010de:	44 89 c9             	mov    %r9d,%ecx
  1010e1:	29 c1                	sub    %eax,%ecx
  1010e3:	48 01 ca             	add    %rcx,%rdx
  1010e6:	4c 39 c2             	cmp    %r8,%rdx
  1010e9:	72 b5                	jb     1010a0 <parse_boot_information+0x20>
  1010eb:	c3                   	ret    
  1010ec:	0f 1f 40 00          	nopl   0x0(%rax)
  1010f0:	48 81 0c 25 80 00 10 	orq    $0x200000,0x100080
  1010f7:	00 00 00 20 00 
  1010fc:	48 89 04 25 28 01 10 	mov    %rax,0x100128
  101103:	00 
  101104:	eb ca                	jmp    1010d0 <parse_boot_information+0x50>
  101106:	66 2e 0f 1f 84 00 00 	cs nopw 0x0(%rax,%rax,1)
  10110d:	00 00 00 
  101110:	48 81 0c 25 80 00 10 	orq    $0x100000,0x100080
  101117:	00 00 00 10 00 
  10111c:	48 89 04 25 20 01 10 	mov    %rax,0x100120
  101123:	00 
  101124:	eb aa                	jmp    1010d0 <parse_boot_information+0x50>
  101126:	66 2e 0f 1f 84 00 00 	cs nopw 0x0(%rax,%rax,1)
  10112d:	00 00 00 
  101130:	48 81 0c 25 80 00 10 	orq    $0x80000,0x100080
  101137:	00 00 00 08 00 
  10113c:	48 89 04 25 18 01 10 	mov    %rax,0x100118
  101143:	00 
  101144:	eb 8a                	jmp    1010d0 <parse_boot_information+0x50>
  101146:	66 2e 0f 1f 84 00 00 	cs nopw 0x0(%rax,%rax,1)
  10114d:	00 00 00 
  101150:	48 81 0c 25 80 00 10 	orq    $0x40000,0x100080
  101157:	00 00 00 04 00 
  10115c:	48 89 04 25 10 01 10 	mov    %rax,0x100110
  101163:	00 
  101164:	e9 67 ff ff ff       	jmp    1010d0 <parse_boot_information+0x50>
  101169:	0f 1f 80 00 00 00 00 	nopl   0x0(%rax)
  101170:	48 81 0c 25 80 00 10 	orq    $0x20000,0x100080
  101177:	00 00 00 02 00 
  10117c:	48 89 04 25 08 01 10 	mov    %rax,0x100108
  101183:	00 
  101184:	e9 47 ff ff ff       	jmp    1010d0 <parse_boot_information+0x50>
  101189:	0f 1f 80 00 00 00 00 	nopl   0x0(%rax)
  101190:	48 81 0c 25 80 00 10 	orq    $0x10000,0x100080
  101197:	00 00 00 01 00 
  10119c:	48 89 04 25 00 01 10 	mov    %rax,0x100100
  1011a3:	00 
  1011a4:	e9 27 ff ff ff       	jmp    1010d0 <parse_boot_information+0x50>
  1011a9:	0f 1f 80 00 00 00 00 	nopl   0x0(%rax)
  1011b0:	48 81 0c 25 80 00 10 	orq    $0x8000,0x100080
  1011b7:	00 00 80 00 00 
  1011bc:	48 8d 48 08          	lea    0x8(%rax),%rcx
  1011c0:	48 89 0c 25 f8 00 10 	mov    %rcx,0x1000f8
  1011c7:	00 
  1011c8:	e9 03 ff ff ff       	jmp    1010d0 <parse_boot_information+0x50>
  1011cd:	0f 1f 00             	nopl   (%rax)
  1011d0:	48 81 0c 25 80 00 10 	orq    $0x4000,0x100080
  1011d7:	00 00 40 00 00 
  1011dc:	48 8d 48 08          	lea    0x8(%rax),%rcx
  1011e0:	48 89 0c 25 f0 00 10 	mov    %rcx,0x1000f0
  1011e7:	00 
  1011e8:	e9 e3 fe ff ff       	jmp    1010d0 <parse_boot_information+0x50>
  1011ed:	0f 1f 00             	nopl   (%rax)
  1011f0:	48 81 0c 25 80 00 10 	orq    $0x2000,0x100080
  1011f7:	00 00 20 00 00 
  1011fc:	48 89 04 25 e8 00 10 	mov    %rax,0x1000e8
  101203:	00 
  101204:	e9 c7 fe ff ff       	jmp    1010d0 <parse_boot_information+0x50>
  101209:	0f 1f 80 00 00 00 00 	nopl   0x0(%rax)
  101210:	48 81 0c 25 80 00 10 	orq    $0x1000,0x100080
  101217:	00 00 10 00 00 
  10121c:	48 89 04 25 e0 00 10 	mov    %rax,0x1000e0
  101223:	00 
  101224:	e9 a7 fe ff ff       	jmp    1010d0 <parse_boot_information+0x50>
  101229:	0f 1f 80 00 00 00 00 	nopl   0x0(%rax)
  101230:	48 81 0c 25 80 00 10 	orq    $0x800,0x100080
  101237:	00 00 08 00 00 
  10123c:	48 89 04 25 d8 00 10 	mov    %rax,0x1000d8
  101243:	00 
  101244:	e9 87 fe ff ff       	jmp    1010d0 <parse_boot_information+0x50>
  101249:	0f 1f 80 00 00 00 00 	nopl   0x0(%rax)
  101250:	48 81 0c 25 80 00 10 	orq    $0x400,0x100080
  101257:	00 00 04 00 00 
  10125c:	48 89 04 25 d0 00 10 	mov    %rax,0x1000d0
  101263:	00 
  101264:	e9 67 fe ff ff       	jmp    1010d0 <parse_boot_information+0x50>
  101269:	0f 1f 80 00 00 00 00 	nopl   0x0(%rax)
  101270:	48 81 0c 25 80 00 10 	orq    $0x200,0x100080
  101277:	00 00 02 00 00 
  10127c:	48 89 04 25 c8 00 10 	mov    %rax,0x1000c8
  101283:	00 
  101284:	e9 47 fe ff ff       	jmp    1010d0 <parse_boot_information+0x50>
  101289:	0f 1f 80 00 00 00 00 	nopl   0x0(%rax)
  101290:	48 81 0c 25 80 00 10 	orq    $0x100,0x100080
  101297:	00 00 01 00 00 
  10129c:	48 89 04 25 c0 00 10 	mov    %rax,0x1000c0
  1012a3:	00 
  1012a4:	e9 27 fe ff ff       	jmp    1010d0 <parse_boot_information+0x50>
  1012a9:	0f 1f 80 00 00 00 00 	nopl   0x0(%rax)
  1012b0:	48 81 0c 25 80 00 10 	orq    $0x80,0x100080
  1012b7:	00 80 00 00 00 
  1012bc:	48 89 04 25 b8 00 10 	mov    %rax,0x1000b8
  1012c3:	00 
  1012c4:	e9 07 fe ff ff       	jmp    1010d0 <parse_boot_information+0x50>
  1012c9:	0f 1f 80 00 00 00 00 	nopl   0x0(%rax)
  1012d0:	48 83 0c 25 80 00 10 	orq    $0x40,0x100080
  1012d7:	00 40 
  1012d9:	48 89 04 25 b0 00 10 	mov    %rax,0x1000b0
  1012e0:	00 
  1012e1:	e9 ea fd ff ff       	jmp    1010d0 <parse_boot_information+0x50>
  1012e6:	66 2e 0f 1f 84 00 00 	cs nopw 0x0(%rax,%rax,1)
  1012ed:	00 00 00 
  1012f0:	48 83 0c 25 80 00 10 	orq    $0x20,0x100080
  1012f7:	00 20 
  1012f9:	48 89 04 25 a8 00 10 	mov    %rax,0x1000a8
  101300:	00 
  101301:	e9 ca fd ff ff       	jmp    1010d0 <parse_boot_information+0x50>
  101306:	66 2e 0f 1f 84 00 00 	cs nopw 0x0(%rax,%rax,1)
  10130d:	00 00 00 
  101310:	48 83 0c 25 80 00 10 	orq    $0x10,0x100080
  101317:	00 10 
  101319:	48 89 04 25 a0 00 10 	mov    %rax,0x1000a0
  101320:	00 
  101321:	e9 aa fd ff ff       	jmp    1010d0 <parse_boot_information+0x50>
  101326:	66 2e 0f 1f 84 00 00 	cs nopw 0x0(%rax,%rax,1)
  10132d:	00 00 00 
  101330:	48 83 0c 25 80 00 10 	orq    $0x8,0x100080
  101337:	00 08 
  101339:	48 89 04 25 98 00 10 	mov    %rax,0x100098
  101340:	00 
  101341:	e9 8a fd ff ff       	jmp    1010d0 <parse_boot_information+0x50>
  101346:	66 2e 0f 1f 84 00 00 	cs nopw 0x0(%rax,%rax,1)
  10134d:	00 00 00 
  101350:	48 83 0c 25 80 00 10 	orq    $0x4,0x100080
  101357:	00 04 
  101359:	48 89 04 25 90 00 10 	mov    %rax,0x100090
  101360:	00 
  101361:	e9 6a fd ff ff       	jmp    1010d0 <parse_boot_information+0x50>
  101366:	66 2e 0f 1f 84 00 00 	cs nopw 0x0(%rax,%rax,1)
  10136d:	00 00 00 

0000000000101370 <kernelmain>:
  101370:	f3 0f 1e fa          	endbr64 
  101374:	48 83 ec 08          	sub    $0x8,%rsp
  101378:	e8 03 fd ff ff       	call   101080 <parse_boot_information>
  10137d:	f6 04 25 81 00 10 00 	testb  $0x1,0x100081
  101384:	01 
  101385:	75 09                	jne    101390 <kernelmain+0x20>
  101387:	eb fe                	jmp    101387 <kernelmain+0x17>
  101389:	0f 1f 80 00 00 00 00 	nopl   0x0(%rax)
  101390:	48 8b 3c 25 c0 00 10 	mov    0x1000c0,%rdi
  101397:	00 
  101398:	e8 63 08 00 00       	call   101c00 <init_framebuffer>
  10139d:	48 8b 3c 25 c0 00 10 	mov    0x1000c0,%rdi
  1013a4:	00 
  1013a5:	e8 f6 07 00 00       	call   101ba0 <init_text_mode>
  1013aa:	bf ff 00 00 00       	mov    $0xff,%edi
  1013af:	e8 3c 06 00 00       	call   1019f0 <fill_screen>
  1013b4:	48 8d 3d d1 0e 00 00 	lea    0xed1(%rip),%rdi        # 10228c <set_timer+0xec>
  1013bb:	e8 40 06 00 00       	call   101a00 <printf>
  1013c0:	48 8b 04 25 90 00 10 	mov    0x100090,%rax
  1013c7:	00 
  1013c8:	48 8d 78 08          	lea    0x8(%rax),%rdi
  1013cc:	e8 2f 06 00 00       	call   101a00 <printf>
  1013d1:	48 8d 3d 03 10 00 00 	lea    0x1003(%rip),%rdi        # 1023db <set_timer+0x23b>
  1013d8:	48 83 c4 08          	add    $0x8,%rsp
  1013dc:	e9 1f 06 00 00       	jmp    101a00 <printf>
  1013e1:	66 2e 0f 1f 84 00 00 	cs nopw 0x0(%rax,%rax,1)
  1013e8:	00 00 00 
  1013eb:	0f 1f 44 00 00       	nopl   0x0(%rax,%rax,1)

00000000001013f0 <irq_handler>:
  1013f0:	f3 0f 1e fa          	endbr64 
  1013f4:	48 83 ec 08          	sub    $0x8,%rsp
  1013f8:	48 8d 3d a4 0e 00 00 	lea    0xea4(%rip),%rdi        # 1022a3 <set_timer+0x103>
  1013ff:	e8 fc 05 00 00       	call   101a00 <printf>
  101404:	b8 b0 00 e0 ee       	mov    $0xeee000b0,%eax
  101409:	c7 00 00 00 00 00    	movl   $0x0,(%rax)
  10140f:	48 83 c4 08          	add    $0x8,%rsp
  101413:	c3                   	ret    
  101414:	66 66 2e 0f 1f 84 00 	data16 cs nopw 0x0(%rax,%rax,1)
  10141b:	00 00 00 00 
  10141f:	90                   	nop

0000000000101420 <kernel_panic>:
  101420:	f3 0f 1e fa          	endbr64 
  101424:	41 55                	push   %r13
  101426:	41 54                	push   %r12
  101428:	49 89 fc             	mov    %rdi,%r12
  10142b:	bf 00 00 ff 00       	mov    $0xff0000,%edi
  101430:	55                   	push   %rbp
  101431:	48 89 d5             	mov    %rdx,%rbp
  101434:	53                   	push   %rbx
  101435:	89 f3                	mov    %esi,%ebx
  101437:	31 f6                	xor    %esi,%esi
  101439:	48 81 ec a8 00 00 00 	sub    $0xa8,%rsp
  101440:	e8 3b 07 00 00       	call   101b80 <set_color>
  101445:	31 ff                	xor    %edi,%edi
  101447:	e8 a4 05 00 00       	call   1019f0 <fill_screen>
  10144c:	4c 89 e7             	mov    %r12,%rdi
  10144f:	48 c7 04 25 48 00 10 	movq   $0x0,0x100048
  101456:	00 00 00 00 00 
  10145b:	e8 a0 05 00 00       	call   101a00 <printf>
  101460:	48 8d 05 3e 0e 00 00 	lea    0xe3e(%rip),%rax        # 1022a5 <set_timer+0x105>
  101467:	f7 db                	neg    %ebx
  101469:	48 89 04 24          	mov    %rax,(%rsp)
  10146d:	48 8d 05 3c 0e 00 00 	lea    0xe3c(%rip),%rax        # 1022b0 <set_timer+0x110>
  101474:	45 19 e4             	sbb    %r12d,%r12d
  101477:	31 db                	xor    %ebx,%ebx
  101479:	48 89 44 24 08       	mov    %rax,0x8(%rsp)
  10147e:	48 8d 05 36 0e 00 00 	lea    0xe36(%rip),%rax        # 1022bb <set_timer+0x11b>
  101485:	41 83 c4 10          	add    $0x10,%r12d
  101489:	48 89 44 24 10       	mov    %rax,0x10(%rsp)
  10148e:	48 8d 05 31 0e 00 00 	lea    0xe31(%rip),%rax        # 1022c6 <set_timer+0x126>
  101495:	45 8d 6c 24 01       	lea    0x1(%r12),%r13d
  10149a:	4d 63 e4             	movslq %r12d,%r12
  10149d:	48 89 44 24 18       	mov    %rax,0x18(%rsp)
  1014a2:	48 8d 05 28 0e 00 00 	lea    0xe28(%rip),%rax        # 1022d1 <set_timer+0x131>
  1014a9:	48 89 44 24 20       	mov    %rax,0x20(%rsp)
  1014ae:	48 8d 05 27 0e 00 00 	lea    0xe27(%rip),%rax        # 1022dc <set_timer+0x13c>
  1014b5:	48 89 44 24 28       	mov    %rax,0x28(%rsp)
  1014ba:	48 8d 05 26 0e 00 00 	lea    0xe26(%rip),%rax        # 1022e7 <set_timer+0x147>
  1014c1:	48 89 44 24 30       	mov    %rax,0x30(%rsp)
  1014c6:	48 8d 05 25 0e 00 00 	lea    0xe25(%rip),%rax        # 1022f2 <set_timer+0x152>
  1014cd:	48 89 44 24 38       	mov    %rax,0x38(%rsp)
  1014d2:	48 8d 05 24 0e 00 00 	lea    0xe24(%rip),%rax        # 1022fd <set_timer+0x15d>
  1014d9:	48 89 44 24 40       	mov    %rax,0x40(%rsp)
  1014de:	48 8d 05 23 0e 00 00 	lea    0xe23(%rip),%rax        # 102308 <set_timer+0x168>
  1014e5:	48 89 44 24 48       	mov    %rax,0x48(%rsp)
  1014ea:	48 8d 05 22 0e 00 00 	lea    0xe22(%rip),%rax        # 102313 <set_timer+0x173>
  1014f1:	48 89 44 24 50       	mov    %rax,0x50(%rsp)
  1014f6:	48 8d 05 21 0e 00 00 	lea    0xe21(%rip),%rax        # 10231e <set_timer+0x17e>
  1014fd:	48 89 44 24 58       	mov    %rax,0x58(%rsp)
  101502:	48 8d 05 20 0e 00 00 	lea    0xe20(%rip),%rax        # 102329 <set_timer+0x189>
  101509:	48 89 44 24 60       	mov    %rax,0x60(%rsp)
  10150e:	48 8d 05 1f 0e 00 00 	lea    0xe1f(%rip),%rax        # 102334 <set_timer+0x194>
  101515:	48 89 44 24 68       	mov    %rax,0x68(%rsp)
  10151a:	48 8d 05 1e 0e 00 00 	lea    0xe1e(%rip),%rax        # 10233f <set_timer+0x19f>
  101521:	48 89 44 24 70       	mov    %rax,0x70(%rsp)
  101526:	48 8d 05 1d 0e 00 00 	lea    0xe1d(%rip),%rax        # 10234a <set_timer+0x1aa>
  10152d:	48 89 44 24 78       	mov    %rax,0x78(%rsp)
  101532:	48 8d 05 1c 0e 00 00 	lea    0xe1c(%rip),%rax        # 102355 <set_timer+0x1b5>
  101539:	48 89 84 24 80 00 00 	mov    %rax,0x80(%rsp)
  101540:	00 
  101541:	48 8d 05 18 0e 00 00 	lea    0xe18(%rip),%rax        # 102360 <set_timer+0x1c0>
  101548:	48 89 84 24 88 00 00 	mov    %rax,0x88(%rsp)
  10154f:	00 
  101550:	48 8d 05 14 0e 00 00 	lea    0xe14(%rip),%rax        # 10236b <set_timer+0x1cb>
  101557:	48 89 84 24 90 00 00 	mov    %rax,0x90(%rsp)
  10155e:	00 
  10155f:	eb 28                	jmp    101589 <kernel_panic+0x169>
  101561:	0f 1f 80 00 00 00 00 	nopl   0x0(%rax)
  101568:	48 63 c3             	movslq %ebx,%rax
  10156b:	83 c3 01             	add    $0x1,%ebx
  10156e:	48 8b 3c c4          	mov    (%rsp,%rax,8),%rdi
  101572:	e8 89 04 00 00       	call   101a00 <printf>
  101577:	48 8b 7d 00          	mov    0x0(%rbp),%rdi
  10157b:	e8 e0 04 00 00       	call   101a60 <printhex>
  101580:	83 fb 13             	cmp    $0x13,%ebx
  101583:	74 20                	je     1015a5 <kernel_panic+0x185>
  101585:	48 83 c5 08          	add    $0x8,%rbp
  101589:	83 fb 0f             	cmp    $0xf,%ebx
  10158c:	75 da                	jne    101568 <kernel_panic+0x148>
  10158e:	4a 8b 3c e4          	mov    (%rsp,%r12,8),%rdi
  101592:	44 89 eb             	mov    %r13d,%ebx
  101595:	e8 66 04 00 00       	call   101a00 <printf>
  10159a:	48 8b 7d 00          	mov    0x0(%rbp),%rdi
  10159e:	e8 bd 04 00 00       	call   101a60 <printhex>
  1015a3:	eb e0                	jmp    101585 <kernel_panic+0x165>
  1015a5:	eb fe                	jmp    1015a5 <kernel_panic+0x185>
  1015a7:	66 0f 1f 84 00 00 00 	nopw   0x0(%rax,%rax,1)
  1015ae:	00 00 

00000000001015b0 <division_error>:
  1015b0:	f3 0f 1e fa          	endbr64 
  1015b4:	50                   	push   %rax
  1015b5:	58                   	pop    %rax
  1015b6:	31 f6                	xor    %esi,%esi
  1015b8:	48 89 fa             	mov    %rdi,%rdx
  1015bb:	48 83 ec 08          	sub    $0x8,%rsp
  1015bf:	48 8d 3d b0 0d 00 00 	lea    0xdb0(%rip),%rdi        # 102376 <set_timer+0x1d6>
  1015c6:	e8 55 fe ff ff       	call   101420 <kernel_panic>
  1015cb:	0f 1f 44 00 00       	nopl   0x0(%rax,%rax,1)

00000000001015d0 <debug>:
  1015d0:	f3 0f 1e fa          	endbr64 
  1015d4:	50                   	push   %rax
  1015d5:	58                   	pop    %rax
  1015d6:	31 f6                	xor    %esi,%esi
  1015d8:	48 89 fa             	mov    %rdi,%rdx
  1015db:	48 83 ec 08          	sub    $0x8,%rsp
  1015df:	48 8d 3d a2 0d 00 00 	lea    0xda2(%rip),%rdi        # 102388 <set_timer+0x1e8>
  1015e6:	e8 35 fe ff ff       	call   101420 <kernel_panic>
  1015eb:	0f 1f 44 00 00       	nopl   0x0(%rax,%rax,1)

00000000001015f0 <non_maskable_interrupt>:
  1015f0:	f3 0f 1e fa          	endbr64 
  1015f4:	50                   	push   %rax
  1015f5:	58                   	pop    %rax
  1015f6:	31 f6                	xor    %esi,%esi
  1015f8:	48 89 fa             	mov    %rdi,%rdx
  1015fb:	48 83 ec 08          	sub    $0x8,%rsp
  1015ff:	48 8d 3d 8b 0d 00 00 	lea    0xd8b(%rip),%rdi        # 102391 <set_timer+0x1f1>
  101606:	e8 15 fe ff ff       	call   101420 <kernel_panic>
  10160b:	0f 1f 44 00 00       	nopl   0x0(%rax,%rax,1)

0000000000101610 <breakpoint>:
  101610:	f3 0f 1e fa          	endbr64 
  101614:	50                   	push   %rax
  101615:	58                   	pop    %rax
  101616:	31 f6                	xor    %esi,%esi
  101618:	48 89 fa             	mov    %rdi,%rdx
  10161b:	48 83 ec 08          	sub    $0x8,%rsp
  10161f:	48 8d 3d 85 0d 00 00 	lea    0xd85(%rip),%rdi        # 1023ab <set_timer+0x20b>
  101626:	e8 f5 fd ff ff       	call   101420 <kernel_panic>
  10162b:	0f 1f 44 00 00       	nopl   0x0(%rax,%rax,1)

0000000000101630 <overflow>:
  101630:	f3 0f 1e fa          	endbr64 
  101634:	50                   	push   %rax
  101635:	58                   	pop    %rax
  101636:	31 f6                	xor    %esi,%esi
  101638:	48 89 fa             	mov    %rdi,%rdx
  10163b:	48 83 ec 08          	sub    $0x8,%rsp
  10163f:	48 8d 3d 73 0d 00 00 	lea    0xd73(%rip),%rdi        # 1023b9 <set_timer+0x219>
  101646:	e8 d5 fd ff ff       	call   101420 <kernel_panic>
  10164b:	0f 1f 44 00 00       	nopl   0x0(%rax,%rax,1)

0000000000101650 <bound_range_exceeded>:
  101650:	f3 0f 1e fa          	endbr64 
  101654:	50                   	push   %rax
  101655:	58                   	pop    %rax
  101656:	31 f6                	xor    %esi,%esi
  101658:	48 89 fa             	mov    %rdi,%rdx
  10165b:	48 83 ec 08          	sub    $0x8,%rsp
  10165f:	48 8d 3d 5f 0d 00 00 	lea    0xd5f(%rip),%rdi        # 1023c5 <set_timer+0x225>
  101666:	e8 b5 fd ff ff       	call   101420 <kernel_panic>
  10166b:	0f 1f 44 00 00       	nopl   0x0(%rax,%rax,1)

0000000000101670 <invalid_opcode>:
  101670:	f3 0f 1e fa          	endbr64 
  101674:	50                   	push   %rax
  101675:	58                   	pop    %rax
  101676:	31 f6                	xor    %esi,%esi
  101678:	48 89 fa             	mov    %rdi,%rdx
  10167b:	48 83 ec 08          	sub    $0x8,%rsp
  10167f:	48 8d 3d 57 0d 00 00 	lea    0xd57(%rip),%rdi        # 1023dd <set_timer+0x23d>
  101686:	e8 95 fd ff ff       	call   101420 <kernel_panic>
  10168b:	0f 1f 44 00 00       	nopl   0x0(%rax,%rax,1)

0000000000101690 <device_not_available>:
  101690:	f3 0f 1e fa          	endbr64 
  101694:	50                   	push   %rax
  101695:	58                   	pop    %rax
  101696:	31 f6                	xor    %esi,%esi
  101698:	48 89 fa             	mov    %rdi,%rdx
  10169b:	48 83 ec 08          	sub    $0x8,%rsp
  10169f:	48 8d 3d 49 0d 00 00 	lea    0xd49(%rip),%rdi        # 1023ef <set_timer+0x24f>
  1016a6:	e8 75 fd ff ff       	call   101420 <kernel_panic>
  1016ab:	0f 1f 44 00 00       	nopl   0x0(%rax,%rax,1)

00000000001016b0 <double_fault>:
  1016b0:	f3 0f 1e fa          	endbr64 
  1016b4:	50                   	push   %rax
  1016b5:	58                   	pop    %rax
  1016b6:	be 01 00 00 00       	mov    $0x1,%esi
  1016bb:	48 89 fa             	mov    %rdi,%rdx
  1016be:	48 83 ec 08          	sub    $0x8,%rsp
  1016c2:	48 8d 3d 3e 0d 00 00 	lea    0xd3e(%rip),%rdi        # 102407 <set_timer+0x267>
  1016c9:	e8 52 fd ff ff       	call   101420 <kernel_panic>
  1016ce:	66 90                	xchg   %ax,%ax

00000000001016d0 <coprocessor_segment_overrun>:
  1016d0:	f3 0f 1e fa          	endbr64 
  1016d4:	50                   	push   %rax
  1016d5:	58                   	pop    %rax
  1016d6:	31 f6                	xor    %esi,%esi
  1016d8:	48 89 fa             	mov    %rdi,%rdx
  1016db:	48 83 ec 08          	sub    $0x8,%rsp
  1016df:	48 8d 3d 4a 14 00 00 	lea    0x144a(%rip),%rdi        # 102b30 <set_timer+0x990>
  1016e6:	e8 35 fd ff ff       	call   101420 <kernel_panic>
  1016eb:	0f 1f 44 00 00       	nopl   0x0(%rax,%rax,1)

00000000001016f0 <invalid_tss>:
  1016f0:	f3 0f 1e fa          	endbr64 
  1016f4:	50                   	push   %rax
  1016f5:	58                   	pop    %rax
  1016f6:	be 01 00 00 00       	mov    $0x1,%esi
  1016fb:	48 89 fa             	mov    %rdi,%rdx
  1016fe:	48 83 ec 08          	sub    $0x8,%rsp
  101702:	48 8d 3d 0e 0d 00 00 	lea    0xd0e(%rip),%rdi        # 102417 <set_timer+0x277>
  101709:	e8 12 fd ff ff       	call   101420 <kernel_panic>
  10170e:	66 90                	xchg   %ax,%ax

0000000000101710 <segment_not_present>:
  101710:	f3 0f 1e fa          	endbr64 
  101714:	50                   	push   %rax
  101715:	58                   	pop    %rax
  101716:	be 01 00 00 00       	mov    $0x1,%esi
  10171b:	48 89 fa             	mov    %rdi,%rdx
  10171e:	48 83 ec 08          	sub    $0x8,%rsp
  101722:	48 8d 3d fd 0c 00 00 	lea    0xcfd(%rip),%rdi        # 102426 <set_timer+0x286>
  101729:	e8 f2 fc ff ff       	call   101420 <kernel_panic>
  10172e:	66 90                	xchg   %ax,%ax

0000000000101730 <stack_segment_fault>:
  101730:	f3 0f 1e fa          	endbr64 
  101734:	50                   	push   %rax
  101735:	58                   	pop    %rax
  101736:	be 01 00 00 00       	mov    $0x1,%esi
  10173b:	48 89 fa             	mov    %rdi,%rdx
  10173e:	48 83 ec 08          	sub    $0x8,%rsp
  101742:	48 8d 3d f4 0c 00 00 	lea    0xcf4(%rip),%rdi        # 10243d <set_timer+0x29d>
  101749:	e8 d2 fc ff ff       	call   101420 <kernel_panic>
  10174e:	66 90                	xchg   %ax,%ax

0000000000101750 <general_protection_fault>:
  101750:	f3 0f 1e fa          	endbr64 
  101754:	50                   	push   %rax
  101755:	58                   	pop    %rax
  101756:	be 01 00 00 00       	mov    $0x1,%esi
  10175b:	48 89 fa             	mov    %rdi,%rdx
  10175e:	48 83 ec 08          	sub    $0x8,%rsp
  101762:	48 8d 3d eb 0c 00 00 	lea    0xceb(%rip),%rdi        # 102454 <set_timer+0x2b4>
  101769:	e8 b2 fc ff ff       	call   101420 <kernel_panic>
  10176e:	66 90                	xchg   %ax,%ax

0000000000101770 <page_fault>:
  101770:	f3 0f 1e fa          	endbr64 
  101774:	50                   	push   %rax
  101775:	58                   	pop    %rax
  101776:	be 01 00 00 00       	mov    $0x1,%esi
  10177b:	48 89 fa             	mov    %rdi,%rdx
  10177e:	48 83 ec 08          	sub    $0x8,%rsp
  101782:	48 8d 3d e7 0c 00 00 	lea    0xce7(%rip),%rdi        # 102470 <set_timer+0x2d0>
  101789:	e8 92 fc ff ff       	call   101420 <kernel_panic>
  10178e:	66 90                	xchg   %ax,%ax

0000000000101790 <x87_floating_point_exception>:
  101790:	f3 0f 1e fa          	endbr64 
  101794:	50                   	push   %rax
  101795:	58                   	pop    %rax
  101796:	31 f6                	xor    %esi,%esi
  101798:	48 89 fa             	mov    %rdi,%rdx
  10179b:	48 83 ec 08          	sub    $0x8,%rsp
  10179f:	48 8d 3d aa 13 00 00 	lea    0x13aa(%rip),%rdi        # 102b50 <set_timer+0x9b0>
  1017a6:	e8 75 fc ff ff       	call   101420 <kernel_panic>
  1017ab:	0f 1f 44 00 00       	nopl   0x0(%rax,%rax,1)

00000000001017b0 <alignment_check>:
  1017b0:	f3 0f 1e fa          	endbr64 
  1017b4:	50                   	push   %rax
  1017b5:	58                   	pop    %rax
  1017b6:	be 01 00 00 00       	mov    $0x1,%esi
  1017bb:	48 89 fa             	mov    %rdi,%rdx
  1017be:	48 83 ec 08          	sub    $0x8,%rsp
  1017c2:	48 8d 3d b5 0c 00 00 	lea    0xcb5(%rip),%rdi        # 10247e <set_timer+0x2de>
  1017c9:	e8 52 fc ff ff       	call   101420 <kernel_panic>
  1017ce:	66 90                	xchg   %ax,%ax

00000000001017d0 <machine_check>:
  1017d0:	f3 0f 1e fa          	endbr64 
  1017d4:	50                   	push   %rax
  1017d5:	58                   	pop    %rax
  1017d6:	31 f6                	xor    %esi,%esi
  1017d8:	48 89 fa             	mov    %rdi,%rdx
  1017db:	48 83 ec 08          	sub    $0x8,%rsp
  1017df:	48 8d 3d ab 0c 00 00 	lea    0xcab(%rip),%rdi        # 102491 <set_timer+0x2f1>
  1017e6:	e8 35 fc ff ff       	call   101420 <kernel_panic>
  1017eb:	0f 1f 44 00 00       	nopl   0x0(%rax,%rax,1)

00000000001017f0 <simd_floating_point_exception>:
  1017f0:	f3 0f 1e fa          	endbr64 
  1017f4:	50                   	push   %rax
  1017f5:	58                   	pop    %rax
  1017f6:	31 f6                	xor    %esi,%esi
  1017f8:	48 89 fa             	mov    %rdi,%rdx
  1017fb:	48 83 ec 08          	sub    $0x8,%rsp
  1017ff:	48 8d 3d 6a 13 00 00 	lea    0x136a(%rip),%rdi        # 102b70 <set_timer+0x9d0>
  101806:	e8 15 fc ff ff       	call   101420 <kernel_panic>
  10180b:	0f 1f 44 00 00       	nopl   0x0(%rax,%rax,1)

0000000000101810 <virtualization_exception>:
  101810:	f3 0f 1e fa          	endbr64 
  101814:	50                   	push   %rax
  101815:	58                   	pop    %rax
  101816:	31 f6                	xor    %esi,%esi
  101818:	48 89 fa             	mov    %rdi,%rdx
  10181b:	48 83 ec 08          	sub    $0x8,%rsp
  10181f:	48 8d 3d 7c 0c 00 00 	lea    0xc7c(%rip),%rdi        # 1024a2 <set_timer+0x302>
  101826:	e8 f5 fb ff ff       	call   101420 <kernel_panic>
  10182b:	0f 1f 44 00 00       	nopl   0x0(%rax,%rax,1)

0000000000101830 <control_protection_exception>:
  101830:	f3 0f 1e fa          	endbr64 
  101834:	50                   	push   %rax
  101835:	58                   	pop    %rax
  101836:	be 01 00 00 00       	mov    $0x1,%esi
  10183b:	48 89 fa             	mov    %rdi,%rdx
  10183e:	48 83 ec 08          	sub    $0x8,%rsp
  101842:	48 8d 3d 6e 0c 00 00 	lea    0xc6e(%rip),%rdi        # 1024b7 <set_timer+0x317>
  101849:	e8 d2 fb ff ff       	call   101420 <kernel_panic>
  10184e:	66 90                	xchg   %ax,%ax

0000000000101850 <hypervisor_injection_exception>:
  101850:	f3 0f 1e fa          	endbr64 
  101854:	50                   	push   %rax
  101855:	58                   	pop    %rax
  101856:	31 f6                	xor    %esi,%esi
  101858:	48 89 fa             	mov    %rdi,%rdx
  10185b:	48 83 ec 08          	sub    $0x8,%rsp
  10185f:	48 8d 3d 32 13 00 00 	lea    0x1332(%rip),%rdi        # 102b98 <set_timer+0x9f8>
  101866:	e8 b5 fb ff ff       	call   101420 <kernel_panic>
  10186b:	0f 1f 44 00 00       	nopl   0x0(%rax,%rax,1)

0000000000101870 <vmm_communication_exception>:
  101870:	f3 0f 1e fa          	endbr64 
  101874:	50                   	push   %rax
  101875:	58                   	pop    %rax
  101876:	be 01 00 00 00       	mov    $0x1,%esi
  10187b:	48 89 fa             	mov    %rdi,%rdx
  10187e:	48 83 ec 08          	sub    $0x8,%rsp
  101882:	48 8d 3d 37 13 00 00 	lea    0x1337(%rip),%rdi        # 102bc0 <set_timer+0xa20>
  101889:	e8 92 fb ff ff       	call   101420 <kernel_panic>
  10188e:	66 90                	xchg   %ax,%ax

0000000000101890 <security_exception>:
  101890:	f3 0f 1e fa          	endbr64 
  101894:	50                   	push   %rax
  101895:	58                   	pop    %rax
  101896:	31 f6                	xor    %esi,%esi
  101898:	48 89 fa             	mov    %rdi,%rdx
  10189b:	48 83 ec 08          	sub    $0x8,%rsp
  10189f:	48 8d 3d 2f 0c 00 00 	lea    0xc2f(%rip),%rdi        # 1024d5 <set_timer+0x335>
  1018a6:	e8 75 fb ff ff       	call   101420 <kernel_panic>
  1018ab:	0f 1f 44 00 00       	nopl   0x0(%rax,%rax,1)

00000000001018b0 <fpu_error_interrupt>:
  1018b0:	f3 0f 1e fa          	endbr64 
  1018b4:	50                   	push   %rax
  1018b5:	58                   	pop    %rax
  1018b6:	31 f6                	xor    %esi,%esi
  1018b8:	48 89 fa             	mov    %rdi,%rdx
  1018bb:	48 83 ec 08          	sub    $0x8,%rsp
  1018bf:	48 8d 3d 25 0c 00 00 	lea    0xc25(%rip),%rdi        # 1024eb <set_timer+0x34b>
  1018c6:	e8 55 fb ff ff       	call   101420 <kernel_panic>
  1018cb:	0f 1f 44 00 00       	nopl   0x0(%rax,%rax,1)

00000000001018d0 <put_pixel>:
  1018d0:	f3 0f 1e fa          	endbr64 
  1018d4:	0f af 34 25 70 00 10 	imul   0x100070,%esi
  1018db:	00 
  1018dc:	48 8b 04 25 60 00 10 	mov    0x100060,%rax
  1018e3:	00 
  1018e4:	01 fe                	add    %edi,%esi
  1018e6:	48 63 f6             	movslq %esi,%rsi
  1018e9:	89 14 b0             	mov    %edx,(%rax,%rsi,4)
  1018ec:	c3                   	ret    
  1018ed:	0f 1f 00             	nopl   (%rax)

00000000001018f0 <put_char>:
  1018f0:	f3 0f 1e fa          	endbr64 
  1018f4:	41 57                	push   %r15
  1018f6:	48 0f be c7          	movsbq %dil,%rax
  1018fa:	48 8d 15 df 17 00 00 	lea    0x17df(%rip),%rdx        # 1030e0 <ascii_chars>
  101901:	41 ba 01 00 00 00    	mov    $0x1,%r10d
  101907:	41 56                	push   %r14
  101909:	41 55                	push   %r13
  10190b:	41 54                	push   %r12
  10190d:	55                   	push   %rbp
  10190e:	bd 08 00 00 00       	mov    $0x8,%ebp
  101913:	53                   	push   %rbx
  101914:	4c 8b 2c 25 48 00 10 	mov    0x100048,%r13
  10191b:	00 
  10191c:	bb 01 00 00 00       	mov    $0x1,%ebx
  101921:	4c 8b 24 25 40 00 10 	mov    0x100040,%r12
  101928:	00 
  101929:	48 8b 34 c2          	mov    (%rdx,%rax,8),%rsi
  10192d:	44 89 ef             	mov    %r13d,%edi
  101930:	4c 8b 0c 25 70 00 10 	mov    0x100070,%r9
  101937:	00 
  101938:	4c 8b 04 25 60 00 10 	mov    0x100060,%r8
  10193f:	00 
  101940:	c1 e7 04             	shl    $0x4,%edi
  101943:	46 8d 1c e5 00 00 00 	lea    0x0(,%r12,8),%r11d
  10194a:	00 
  10194b:	0f 1f 44 00 00       	nopl   0x0(%rax,%rax,1)
  101950:	89 e9                	mov    %ebp,%ecx
  101952:	89 d8                	mov    %ebx,%eax
  101954:	47 8d 34 13          	lea    (%r11,%r10,1),%r14d
  101958:	44 29 d1             	sub    %r10d,%ecx
  10195b:	d3 e0                	shl    %cl,%eax
  10195d:	89 c1                	mov    %eax,%ecx
  10195f:	31 c0                	xor    %eax,%eax
  101961:	eb 25                	jmp    101988 <put_char+0x98>
  101963:	0f 1f 44 00 00       	nopl   0x0(%rax,%rax,1)
  101968:	41 0f af d1          	imul   %r9d,%edx
  10196c:	44 8b 3c 25 50 00 10 	mov    0x100050,%r15d
  101973:	00 
  101974:	48 83 c0 01          	add    $0x1,%rax
  101978:	44 01 f2             	add    %r14d,%edx
  10197b:	48 63 d2             	movslq %edx,%rdx
  10197e:	45 89 3c 90          	mov    %r15d,(%r8,%rdx,4)
  101982:	48 83 f8 10          	cmp    $0x10,%rax
  101986:	74 2b                	je     1019b3 <put_char+0xc3>
  101988:	0f be 14 06          	movsbl (%rsi,%rax,1),%edx
  10198c:	85 ca                	test   %ecx,%edx
  10198e:	8d 14 07             	lea    (%rdi,%rax,1),%edx
  101991:	75 d5                	jne    101968 <put_char+0x78>
  101993:	41 0f af d1          	imul   %r9d,%edx
  101997:	44 8b 3c 25 58 00 10 	mov    0x100058,%r15d
  10199e:	00 
  10199f:	48 83 c0 01          	add    $0x1,%rax
  1019a3:	44 01 f2             	add    %r14d,%edx
  1019a6:	48 63 d2             	movslq %edx,%rdx
  1019a9:	45 89 3c 90          	mov    %r15d,(%r8,%rdx,4)
  1019ad:	48 83 f8 10          	cmp    $0x10,%rax
  1019b1:	75 d5                	jne    101988 <put_char+0x98>
  1019b3:	41 83 c2 01          	add    $0x1,%r10d
  1019b7:	41 83 fa 09          	cmp    $0x9,%r10d
  1019bb:	75 93                	jne    101950 <put_char+0x60>
  1019bd:	49 8d 44 24 01       	lea    0x1(%r12),%rax
  1019c2:	4c 3b 24 25 30 00 10 	cmp    0x100030,%r12
  1019c9:	00 
  1019ca:	75 0e                	jne    1019da <put_char+0xea>
  1019cc:	49 83 c5 01          	add    $0x1,%r13
  1019d0:	31 c0                	xor    %eax,%eax
  1019d2:	4c 89 2c 25 48 00 10 	mov    %r13,0x100048
  1019d9:	00 
  1019da:	48 89 04 25 40 00 10 	mov    %rax,0x100040
  1019e1:	00 
  1019e2:	5b                   	pop    %rbx
  1019e3:	5d                   	pop    %rbp
  1019e4:	41 5c                	pop    %r12
  1019e6:	41 5d                	pop    %r13
  1019e8:	41 5e                	pop    %r14
  1019ea:	41 5f                	pop    %r15
  1019ec:	c3                   	ret    
  1019ed:	0f 1f 00             	nopl   (%rax)

00000000001019f0 <fill_screen>:
  1019f0:	f3 0f 1e fa          	endbr64 
  1019f4:	0f 1f 40 00          	nopl   0x0(%rax)
  1019f8:	eb fe                	jmp    1019f8 <fill_screen+0x8>
  1019fa:	66 0f 1f 44 00 00    	nopw   0x0(%rax,%rax,1)

0000000000101a00 <printf>:
  101a00:	f3 0f 1e fa          	endbr64 
  101a04:	0f b6 07             	movzbl (%rdi),%eax
  101a07:	84 c0                	test   %al,%al
  101a09:	74 4d                	je     101a58 <printf+0x58>
  101a0b:	53                   	push   %rbx
  101a0c:	48 8d 5f 01          	lea    0x1(%rdi),%rbx
  101a10:	eb 27                	jmp    101a39 <printf+0x39>
  101a12:	66 0f 1f 44 00 00    	nopw   0x0(%rax,%rax,1)
  101a18:	48 83 04 25 48 00 10 	addq   $0x1,0x100048
  101a1f:	00 01 
  101a21:	48 83 c3 01          	add    $0x1,%rbx
  101a25:	48 c7 04 25 40 00 10 	movq   $0x0,0x100040
  101a2c:	00 00 00 00 00 
  101a31:	0f b6 43 ff          	movzbl -0x1(%rbx),%eax
  101a35:	84 c0                	test   %al,%al
  101a37:	74 18                	je     101a51 <printf+0x51>
  101a39:	3c 0a                	cmp    $0xa,%al
  101a3b:	74 db                	je     101a18 <printf+0x18>
  101a3d:	0f be f8             	movsbl %al,%edi
  101a40:	48 83 c3 01          	add    $0x1,%rbx
  101a44:	e8 a7 fe ff ff       	call   1018f0 <put_char>
  101a49:	0f b6 43 ff          	movzbl -0x1(%rbx),%eax
  101a4d:	84 c0                	test   %al,%al
  101a4f:	75 e8                	jne    101a39 <printf+0x39>
  101a51:	5b                   	pop    %rbx
  101a52:	c3                   	ret    
  101a53:	0f 1f 44 00 00       	nopl   0x0(%rax,%rax,1)
  101a58:	c3                   	ret    
  101a59:	0f 1f 80 00 00 00 00 	nopl   0x0(%rax)

0000000000101a60 <printhex>:
  101a60:	f3 0f 1e fa          	endbr64 
  101a64:	55                   	push   %rbp
  101a65:	48 89 fd             	mov    %rdi,%rbp
  101a68:	bf 30 00 00 00       	mov    $0x30,%edi
  101a6d:	53                   	push   %rbx
  101a6e:	48 8d 1d 8e 0a 00 00 	lea    0xa8e(%rip),%rbx        # 102503 <set_timer+0x363>
  101a75:	eb 2b                	jmp    101aa2 <printhex+0x42>
  101a77:	66 0f 1f 84 00 00 00 	nopw   0x0(%rax,%rax,1)
  101a7e:	00 00 
  101a80:	48 83 04 25 48 00 10 	addq   $0x1,0x100048
  101a87:	00 01 
  101a89:	48 83 c3 01          	add    $0x1,%rbx
  101a8d:	48 c7 04 25 40 00 10 	movq   $0x0,0x100040
  101a94:	00 00 00 00 00 
  101a99:	0f be 7b ff          	movsbl -0x1(%rbx),%edi
  101a9d:	40 84 ff             	test   %dil,%dil
  101aa0:	74 17                	je     101ab9 <printhex+0x59>
  101aa2:	40 80 ff 0a          	cmp    $0xa,%dil
  101aa6:	74 d8                	je     101a80 <printhex+0x20>
  101aa8:	e8 43 fe ff ff       	call   1018f0 <put_char>
  101aad:	0f be 3b             	movsbl (%rbx),%edi
  101ab0:	48 83 c3 01          	add    $0x1,%rbx
  101ab4:	40 84 ff             	test   %dil,%dil
  101ab7:	75 e9                	jne    101aa2 <printhex+0x42>
  101ab9:	bb 3c 00 00 00       	mov    $0x3c,%ebx
  101abe:	eb 10                	jmp    101ad0 <printhex+0x70>
  101ac0:	83 c7 30             	add    $0x30,%edi
  101ac3:	83 eb 04             	sub    $0x4,%ebx
  101ac6:	e8 25 fe ff ff       	call   1018f0 <put_char>
  101acb:	83 fb fc             	cmp    $0xfffffffc,%ebx
  101ace:	74 24                	je     101af4 <printhex+0x94>
  101ad0:	48 89 ef             	mov    %rbp,%rdi
  101ad3:	89 d9                	mov    %ebx,%ecx
  101ad5:	48 d3 ef             	shr    %cl,%rdi
  101ad8:	83 e7 0f             	and    $0xf,%edi
  101adb:	83 ff 09             	cmp    $0x9,%edi
  101ade:	7e e0                	jle    101ac0 <printhex+0x60>
  101ae0:	83 c7 57             	add    $0x57,%edi
  101ae3:	83 eb 04             	sub    $0x4,%ebx
  101ae6:	40 0f b6 ff          	movzbl %dil,%edi
  101aea:	e8 01 fe ff ff       	call   1018f0 <put_char>
  101aef:	83 fb fc             	cmp    $0xfffffffc,%ebx
  101af2:	75 dc                	jne    101ad0 <printhex+0x70>
  101af4:	5b                   	pop    %rbx
  101af5:	5d                   	pop    %rbp
  101af6:	c3                   	ret    
  101af7:	66 0f 1f 84 00 00 00 	nopw   0x0(%rax,%rax,1)
  101afe:	00 00 

0000000000101b00 <printbin>:
  101b00:	f3 0f 1e fa          	endbr64 
  101b04:	55                   	push   %rbp
  101b05:	48 89 fd             	mov    %rdi,%rbp
  101b08:	bf 30 00 00 00       	mov    $0x30,%edi
  101b0d:	53                   	push   %rbx
  101b0e:	48 8d 1d f1 09 00 00 	lea    0x9f1(%rip),%rbx        # 102506 <set_timer+0x366>
  101b15:	eb 2b                	jmp    101b42 <printbin+0x42>
  101b17:	66 0f 1f 84 00 00 00 	nopw   0x0(%rax,%rax,1)
  101b1e:	00 00 
  101b20:	48 83 04 25 48 00 10 	addq   $0x1,0x100048
  101b27:	00 01 
  101b29:	48 83 c3 01          	add    $0x1,%rbx
  101b2d:	48 c7 04 25 40 00 10 	movq   $0x0,0x100040
  101b34:	00 00 00 00 00 
  101b39:	0f be 7b ff          	movsbl -0x1(%rbx),%edi
  101b3d:	40 84 ff             	test   %dil,%dil
  101b40:	74 17                	je     101b59 <printbin+0x59>
  101b42:	40 80 ff 0a          	cmp    $0xa,%dil
  101b46:	74 d8                	je     101b20 <printbin+0x20>
  101b48:	e8 a3 fd ff ff       	call   1018f0 <put_char>
  101b4d:	0f be 3b             	movsbl (%rbx),%edi
  101b50:	48 83 c3 01          	add    $0x1,%rbx
  101b54:	40 84 ff             	test   %dil,%dil
  101b57:	75 e9                	jne    101b42 <printbin+0x42>
  101b59:	bb 3f 00 00 00       	mov    $0x3f,%ebx
  101b5e:	66 90                	xchg   %ax,%ax
  101b60:	89 d9                	mov    %ebx,%ecx
  101b62:	48 89 e8             	mov    %rbp,%rax
  101b65:	48 d3 e8             	shr    %cl,%rax
  101b68:	83 e0 01             	and    $0x1,%eax
  101b6b:	8d 78 30             	lea    0x30(%rax),%edi
  101b6e:	e8 7d fd ff ff       	call   1018f0 <put_char>
  101b73:	83 eb 01             	sub    $0x1,%ebx
  101b76:	73 e8                	jae    101b60 <printbin+0x60>
  101b78:	5b                   	pop    %rbx
  101b79:	5d                   	pop    %rbp
  101b7a:	c3                   	ret    
  101b7b:	0f 1f 44 00 00       	nopl   0x0(%rax,%rax,1)

0000000000101b80 <set_color>:
  101b80:	f3 0f 1e fa          	endbr64 
  101b84:	89 f8                	mov    %edi,%eax
  101b86:	48 89 04 25 50 00 10 	mov    %rax,0x100050
  101b8d:	00 
  101b8e:	89 f0                	mov    %esi,%eax
  101b90:	48 89 04 25 58 00 10 	mov    %rax,0x100058
  101b97:	00 
  101b98:	c3                   	ret    
  101b99:	0f 1f 80 00 00 00 00 	nopl   0x0(%rax)

0000000000101ba0 <init_text_mode>:
  101ba0:	f3 0f 1e fa          	endbr64 
  101ba4:	0f b7 47 14          	movzwl 0x14(%rdi),%eax
  101ba8:	66 c1 e8 03          	shr    $0x3,%ax
  101bac:	0f b7 c0             	movzwl %ax,%eax
  101baf:	48 89 04 25 30 00 10 	mov    %rax,0x100030
  101bb6:	00 
  101bb7:	8b 47 18             	mov    0x18(%rdi),%eax
  101bba:	48 c7 04 25 40 00 10 	movq   $0x0,0x100040
  101bc1:	00 00 00 00 00 
  101bc6:	48 c7 04 25 48 00 10 	movq   $0x0,0x100048
  101bcd:	00 00 00 00 00 
  101bd2:	66 c1 e8 04          	shr    $0x4,%ax
  101bd6:	48 c7 04 25 50 00 10 	movq   $0xff00,0x100050
  101bdd:	00 00 ff 00 00 
  101be2:	0f b7 c0             	movzwl %ax,%eax
  101be5:	48 89 04 25 38 00 10 	mov    %rax,0x100038
  101bec:	00 
  101bed:	48 c7 04 25 58 00 10 	movq   $0x0,0x100058
  101bf4:	00 00 00 00 00 
  101bf9:	c3                   	ret    
  101bfa:	66 0f 1f 44 00 00    	nopw   0x0(%rax,%rax,1)

0000000000101c00 <init_framebuffer>:
  101c00:	f3 0f 1e fa          	endbr64 
  101c04:	48 8b 47 08          	mov    0x8(%rdi),%rax
  101c08:	48 89 04 25 60 00 10 	mov    %rax,0x100060
  101c0f:	00 
  101c10:	8b 47 14             	mov    0x14(%rdi),%eax
  101c13:	48 89 04 25 70 00 10 	mov    %rax,0x100070
  101c1a:	00 
  101c1b:	8b 47 18             	mov    0x18(%rdi),%eax
  101c1e:	48 89 04 25 78 00 10 	mov    %rax,0x100078
  101c25:	00 
  101c26:	8b 47 10             	mov    0x10(%rdi),%eax
  101c29:	48 89 04 25 68 00 10 	mov    %rax,0x100068
  101c30:	00 
  101c31:	c3                   	ret    
  101c32:	66 2e 0f 1f 84 00 00 	cs nopw 0x0(%rax,%rax,1)
  101c39:	00 00 00 
  101c3c:	0f 1f 40 00          	nopl   0x0(%rax)

0000000000101c40 <write_char_to_serial>:
  101c40:	f3 0f 1e fa          	endbr64 
  101c44:	ba f8 03 00 00       	mov    $0x3f8,%edx
  101c49:	89 f8                	mov    %edi,%eax
  101c4b:	ee                   	out    %al,(%dx)
  101c4c:	c3                   	ret    
  101c4d:	0f 1f 00             	nopl   (%rax)

0000000000101c50 <write_string_to_serial>:
  101c50:	f3 0f 1e fa          	endbr64 
  101c54:	0f b6 07             	movzbl (%rdi),%eax
  101c57:	84 c0                	test   %al,%al
  101c59:	74 19                	je     101c74 <write_string_to_serial+0x24>
  101c5b:	48 83 c7 01          	add    $0x1,%rdi
  101c5f:	ba f8 03 00 00       	mov    $0x3f8,%edx
  101c64:	0f 1f 40 00          	nopl   0x0(%rax)
  101c68:	ee                   	out    %al,(%dx)
  101c69:	0f b6 07             	movzbl (%rdi),%eax
  101c6c:	48 83 c7 01          	add    $0x1,%rdi
  101c70:	84 c0                	test   %al,%al
  101c72:	75 f4                	jne    101c68 <write_string_to_serial+0x18>
  101c74:	c3                   	ret    
  101c75:	66 66 2e 0f 1f 84 00 	data16 cs nopw 0x0(%rax,%rax,1)
  101c7c:	00 00 00 00 

0000000000101c80 <write_hex_to_serial>:
  101c80:	f3 0f 1e fa          	endbr64 
  101c84:	48 8d 0d 78 08 00 00 	lea    0x878(%rip),%rcx        # 102503 <set_timer+0x363>
  101c8b:	b8 30 00 00 00       	mov    $0x30,%eax
  101c90:	ba f8 03 00 00       	mov    $0x3f8,%edx
  101c95:	0f 1f 00             	nopl   (%rax)
  101c98:	ee                   	out    %al,(%dx)
  101c99:	0f b6 01             	movzbl (%rcx),%eax
  101c9c:	48 83 c1 01          	add    $0x1,%rcx
  101ca0:	84 c0                	test   %al,%al
  101ca2:	75 f4                	jne    101c98 <write_hex_to_serial+0x18>
  101ca4:	b9 3c 00 00 00       	mov    $0x3c,%ecx
  101ca9:	ba f8 03 00 00       	mov    $0x3f8,%edx
  101cae:	eb 0c                	jmp    101cbc <write_hex_to_serial+0x3c>
  101cb0:	83 c0 30             	add    $0x30,%eax
  101cb3:	ee                   	out    %al,(%dx)
  101cb4:	83 e9 04             	sub    $0x4,%ecx
  101cb7:	83 f9 fc             	cmp    $0xfffffffc,%ecx
  101cba:	74 1a                	je     101cd6 <write_hex_to_serial+0x56>
  101cbc:	48 89 f8             	mov    %rdi,%rax
  101cbf:	48 d3 e8             	shr    %cl,%rax
  101cc2:	83 e0 0f             	and    $0xf,%eax
  101cc5:	83 f8 09             	cmp    $0x9,%eax
  101cc8:	7e e6                	jle    101cb0 <write_hex_to_serial+0x30>
  101cca:	83 c0 57             	add    $0x57,%eax
  101ccd:	ee                   	out    %al,(%dx)
  101cce:	83 e9 04             	sub    $0x4,%ecx
  101cd1:	83 f9 fc             	cmp    $0xfffffffc,%ecx
  101cd4:	75 e6                	jne    101cbc <write_hex_to_serial+0x3c>
  101cd6:	c3                   	ret    
  101cd7:	66 0f 1f 84 00 00 00 	nopw   0x0(%rax,%rax,1)
  101cde:	00 00 

0000000000101ce0 <check_RSDP_t_checksum>:
  101ce0:	f3 0f 1e fa          	endbr64 
  101ce4:	48 8d 4f 14          	lea    0x14(%rdi),%rcx
  101ce8:	0f 1f 84 00 00 00 00 	nopl   0x0(%rax,%rax,1)
  101cef:	00 
  101cf0:	0f b6 17             	movzbl (%rdi),%edx
  101cf3:	48 83 c7 01          	add    $0x1,%rdi
  101cf7:	01 d0                	add    %edx,%eax
  101cf9:	48 39 cf             	cmp    %rcx,%rdi
  101cfc:	75 f2                	jne    101cf0 <check_RSDP_t_checksum+0x10>
  101cfe:	a8 11                	test   $0x11,%al
  101d00:	75 01                	jne    101d03 <check_RSDP_t_checksum+0x23>
  101d02:	c3                   	ret    
  101d03:	bf 00 00 ff 00       	mov    $0xff0000,%edi
  101d08:	48 83 ec 08          	sub    $0x8,%rsp
  101d0c:	31 f6                	xor    %esi,%esi
  101d0e:	e8 6d fe ff ff       	call   101b80 <set_color>
  101d13:	48 8d 3d c6 0e 00 00 	lea    0xec6(%rip),%rdi        # 102be0 <set_timer+0xa40>
  101d1a:	e8 e1 fc ff ff       	call   101a00 <printf>
  101d1f:	eb fe                	jmp    101d1f <check_RSDP_t_checksum+0x3f>
  101d21:	66 66 2e 0f 1f 84 00 	data16 cs nopw 0x0(%rax,%rax,1)
  101d28:	00 00 00 00 
  101d2c:	0f 1f 40 00          	nopl   0x0(%rax)

0000000000101d30 <check_XSDT_t_checksum>:
  101d30:	f3 0f 1e fa          	endbr64 
  101d34:	48 83 ec 08          	sub    $0x8,%rsp
  101d38:	48 8d 4f 14          	lea    0x14(%rdi),%rcx
  101d3c:	48 89 f8             	mov    %rdi,%rax
  101d3f:	31 d2                	xor    %edx,%edx
  101d41:	0f 1f 80 00 00 00 00 	nopl   0x0(%rax)
  101d48:	02 10                	add    (%rax),%dl
  101d4a:	48 83 c0 01          	add    $0x1,%rax
  101d4e:	48 39 c8             	cmp    %rcx,%rax
  101d51:	75 f5                	jne    101d48 <check_XSDT_t_checksum+0x18>
  101d53:	48 8d 4f 24          	lea    0x24(%rdi),%rcx
  101d57:	84 d2                	test   %dl,%dl
  101d59:	75 35                	jne    101d90 <check_XSDT_t_checksum+0x60>
  101d5b:	0f 1f 44 00 00       	nopl   0x0(%rax,%rax,1)
  101d60:	02 10                	add    (%rax),%dl
  101d62:	48 83 c0 01          	add    $0x1,%rax
  101d66:	48 39 c8             	cmp    %rcx,%rax
  101d69:	75 f5                	jne    101d60 <check_XSDT_t_checksum+0x30>
  101d6b:	84 d2                	test   %dl,%dl
  101d6d:	75 05                	jne    101d74 <check_XSDT_t_checksum+0x44>
  101d6f:	48 83 c4 08          	add    $0x8,%rsp
  101d73:	c3                   	ret    
  101d74:	bf 00 00 ff 00       	mov    $0xff0000,%edi
  101d79:	31 f6                	xor    %esi,%esi
  101d7b:	e8 00 fe ff ff       	call   101b80 <set_color>
  101d80:	48 8d 3d 81 0e 00 00 	lea    0xe81(%rip),%rdi        # 102c08 <set_timer+0xa68>
  101d87:	e8 74 fc ff ff       	call   101a00 <printf>
  101d8c:	eb fe                	jmp    101d8c <check_XSDT_t_checksum+0x5c>
  101d8e:	66 90                	xchg   %ax,%ax
  101d90:	bf 00 00 ff 00       	mov    $0xff0000,%edi
  101d95:	31 f6                	xor    %esi,%esi
  101d97:	e8 e4 fd ff ff       	call   101b80 <set_color>
  101d9c:	48 8d 3d 65 0e 00 00 	lea    0xe65(%rip),%rdi        # 102c08 <set_timer+0xa68>
  101da3:	e8 58 fc ff ff       	call   101a00 <printf>
  101da8:	eb fe                	jmp    101da8 <check_XSDT_t_checksum+0x78>
  101daa:	66 0f 1f 44 00 00    	nopw   0x0(%rax,%rax,1)

0000000000101db0 <check_XSDT_checksum>:
  101db0:	f3 0f 1e fa          	endbr64 
  101db4:	8b 47 04             	mov    0x4(%rdi),%eax
  101db7:	85 c0                	test   %eax,%eax
  101db9:	74 1c                	je     101dd7 <check_XSDT_checksum+0x27>
  101dbb:	83 e8 01             	sub    $0x1,%eax
  101dbe:	48 8d 54 07 01       	lea    0x1(%rdi,%rax,1),%rdx
  101dc3:	31 c0                	xor    %eax,%eax
  101dc5:	0f 1f 00             	nopl   (%rax)
  101dc8:	02 07                	add    (%rdi),%al
  101dca:	48 83 c7 01          	add    $0x1,%rdi
  101dce:	48 39 d7             	cmp    %rdx,%rdi
  101dd1:	75 f5                	jne    101dc8 <check_XSDT_checksum+0x18>
  101dd3:	84 c0                	test   %al,%al
  101dd5:	75 09                	jne    101de0 <check_XSDT_checksum+0x30>
  101dd7:	c3                   	ret    
  101dd8:	0f 1f 84 00 00 00 00 	nopl   0x0(%rax,%rax,1)
  101ddf:	00 
  101de0:	bf 00 00 ff 00       	mov    $0xff0000,%edi
  101de5:	48 83 ec 08          	sub    $0x8,%rsp
  101de9:	31 f6                	xor    %esi,%esi
  101deb:	e8 90 fd ff ff       	call   101b80 <set_color>
  101df0:	48 8d 3d 39 0e 00 00 	lea    0xe39(%rip),%rdi        # 102c30 <set_timer+0xa90>
  101df7:	e8 04 fc ff ff       	call   101a00 <printf>
  101dfc:	eb fe                	jmp    101dfc <check_XSDT_checksum+0x4c>
  101dfe:	66 90                	xchg   %ax,%ax

0000000000101e00 <cmp_char>:
  101e00:	f3 0f 1e fa          	endbr64 
  101e04:	85 d2                	test   %edx,%edx
  101e06:	7e 20                	jle    101e28 <cmp_char+0x28>
  101e08:	48 63 d2             	movslq %edx,%rdx
  101e0b:	31 c0                	xor    %eax,%eax
  101e0d:	eb 0a                	jmp    101e19 <cmp_char+0x19>
  101e0f:	90                   	nop
  101e10:	48 83 c0 01          	add    $0x1,%rax
  101e14:	48 39 d0             	cmp    %rdx,%rax
  101e17:	74 0f                	je     101e28 <cmp_char+0x28>
  101e19:	0f b6 0c 06          	movzbl (%rsi,%rax,1),%ecx
  101e1d:	38 0c 07             	cmp    %cl,(%rdi,%rax,1)
  101e20:	74 ee                	je     101e10 <cmp_char+0x10>
  101e22:	31 c0                	xor    %eax,%eax
  101e24:	c3                   	ret    
  101e25:	0f 1f 00             	nopl   (%rax)
  101e28:	b8 01 00 00 00       	mov    $0x1,%eax
  101e2d:	c3                   	ret    
  101e2e:	66 90                	xchg   %ax,%ax

0000000000101e30 <parse_MADT>:
  101e30:	f3 0f 1e fa          	endbr64 
  101e34:	8b 77 04             	mov    0x4(%rdi),%esi
  101e37:	83 fe 2c             	cmp    $0x2c,%esi
  101e3a:	76 64                	jbe    101ea0 <parse_MADT+0x70>
  101e3c:	53                   	push   %rbx
  101e3d:	ba 2c 00 00 00       	mov    $0x2c,%edx
  101e42:	48 8d 0d 2b 04 00 00 	lea    0x42b(%rip),%rcx        # 102274 <set_timer+0xd4>
  101e49:	0f 1f 80 00 00 00 00 	nopl   0x0(%rax)
  101e50:	48 63 da             	movslq %edx,%rbx
  101e53:	48 01 fb             	add    %rdi,%rbx
  101e56:	80 3b 05             	cmpb   $0x5,(%rbx)
  101e59:	77 21                	ja     101e7c <parse_MADT+0x4c>
  101e5b:	0f b6 03             	movzbl (%rbx),%eax
  101e5e:	48 63 04 81          	movslq (%rcx,%rax,4),%rax
  101e62:	48 01 c8             	add    %rcx,%rax
  101e65:	3e ff e0             	notrack jmp *%rax
  101e68:	0f 1f 84 00 00 00 00 	nopl   0x0(%rax,%rax,1)
  101e6f:	00 
  101e70:	0f b6 43 01          	movzbl 0x1(%rbx),%eax
  101e74:	01 c2                	add    %eax,%edx
  101e76:	39 f2                	cmp    %esi,%edx
  101e78:	72 d6                	jb     101e50 <parse_MADT+0x20>
  101e7a:	5b                   	pop    %rbx
  101e7b:	c3                   	ret    
  101e7c:	31 f6                	xor    %esi,%esi
  101e7e:	bf 00 00 ff 00       	mov    $0xff0000,%edi
  101e83:	e8 f8 fc ff ff       	call   101b80 <set_color>
  101e88:	48 8d 3d c9 0d 00 00 	lea    0xdc9(%rip),%rdi        # 102c58 <set_timer+0xab8>
  101e8f:	e8 6c fb ff ff       	call   101a00 <printf>
  101e94:	0f b6 3b             	movzbl (%rbx),%edi
  101e97:	e8 c4 fb ff ff       	call   101a60 <printhex>
  101e9c:	eb fe                	jmp    101e9c <parse_MADT+0x6c>
  101e9e:	66 90                	xchg   %ax,%ax
  101ea0:	c3                   	ret    
  101ea1:	66 66 2e 0f 1f 84 00 	data16 cs nopw 0x0(%rax,%rax,1)
  101ea8:	00 00 00 00 
  101eac:	0f 1f 40 00          	nopl   0x0(%rax)

0000000000101eb0 <parse_FADT>:
  101eb0:	f3 0f 1e fa          	endbr64 
  101eb4:	c3                   	ret    
  101eb5:	66 66 2e 0f 1f 84 00 	data16 cs nopw 0x0(%rax,%rax,1)
  101ebc:	00 00 00 00 

0000000000101ec0 <parse_MCFG>:
  101ec0:	f3 0f 1e fa          	endbr64 
  101ec4:	41 57                	push   %r15
  101ec6:	41 56                	push   %r14
  101ec8:	41 55                	push   %r13
  101eca:	41 54                	push   %r12
  101ecc:	55                   	push   %rbp
  101ecd:	53                   	push   %rbx
  101ece:	48 83 ec 28          	sub    $0x28,%rsp
  101ed2:	83 7f 04 2c          	cmpl   $0x2c,0x4(%rdi)
  101ed6:	48 89 7c 24 18       	mov    %rdi,0x18(%rsp)
  101edb:	48 c7 44 24 10 2c 00 	movq   $0x2c,0x10(%rsp)
  101ee2:	00 00 
  101ee4:	0f 86 13 01 00 00    	jbe    101ffd <parse_MCFG+0x13d>
  101eea:	4c 8d 2d ea 04 00 00 	lea    0x4ea(%rip),%r13        # 1023db <set_timer+0x23b>
  101ef1:	48 8b 74 24 18       	mov    0x18(%rsp),%rsi
  101ef6:	48 8b 4c 24 10       	mov    0x10(%rsp),%rcx
  101efb:	48 8d 2d f9 03 00 00 	lea    0x3f9(%rip),%rbp        # 1022fb <set_timer+0x15b>
  101f02:	0f b6 54 0e 0a       	movzbl 0xa(%rsi,%rcx,1),%edx
  101f07:	4c 8b 3c 0e          	mov    (%rsi,%rcx,1),%r15
  101f0b:	89 54 24 0c          	mov    %edx,0xc(%rsp)
  101f0f:	3a 54 0e 0b          	cmp    0xb(%rsi,%rcx,1),%dl
  101f13:	0f 83 cb 00 00 00    	jae    101fe4 <parse_MCFG+0x124>
  101f19:	8b 44 24 0c          	mov    0xc(%rsp),%eax
  101f1d:	c7 44 24 04 00 00 00 	movl   $0x0,0x4(%rsp)
  101f24:	00 
  101f25:	c1 e0 14             	shl    $0x14,%eax
  101f28:	89 44 24 08          	mov    %eax,0x8(%rsp)
  101f2c:	0f 1f 40 00          	nopl   0x0(%rax)
  101f30:	44 8b 64 24 08       	mov    0x8(%rsp),%r12d
  101f35:	45 31 f6             	xor    %r14d,%r14d
  101f38:	44 0b 64 24 04       	or     0x4(%rsp),%r12d
  101f3d:	0f 1f 00             	nopl   (%rax)
  101f40:	44 89 e3             	mov    %r12d,%ebx
  101f43:	44 09 f3             	or     %r14d,%ebx
  101f46:	48 63 db             	movslq %ebx,%rbx
  101f49:	4c 01 fb             	add    %r15,%rbx
  101f4c:	66 83 3b ff          	cmpw   $0xffff,(%rbx)
  101f50:	74 4b                	je     101f9d <parse_MCFG+0xdd>
  101f52:	4c 89 ef             	mov    %r13,%rdi
  101f55:	e8 a6 fa ff ff       	call   101a00 <printf>
  101f5a:	0f b7 3b             	movzwl (%rbx),%edi
  101f5d:	e8 fe fa ff ff       	call   101a60 <printhex>
  101f62:	48 89 ef             	mov    %rbp,%rdi
  101f65:	e8 96 fa ff ff       	call   101a00 <printf>
  101f6a:	0f b7 7b 02          	movzwl 0x2(%rbx),%edi
  101f6e:	e8 ed fa ff ff       	call   101a60 <printhex>
  101f73:	48 89 ef             	mov    %rbp,%rdi
  101f76:	e8 85 fa ff ff       	call   101a00 <printf>
  101f7b:	0f b6 7b 0b          	movzbl 0xb(%rbx),%edi
  101f7f:	e8 dc fa ff ff       	call   101a60 <printhex>
  101f84:	48 89 ef             	mov    %rbp,%rdi
  101f87:	e8 74 fa ff ff       	call   101a00 <printf>
  101f8c:	0f b6 7b 0a          	movzbl 0xa(%rbx),%edi
  101f90:	e8 cb fa ff ff       	call   101a60 <printhex>
  101f95:	4c 89 ef             	mov    %r13,%rdi
  101f98:	e8 63 fa ff ff       	call   101a00 <printf>
  101f9d:	41 81 c6 00 10 00 00 	add    $0x1000,%r14d
  101fa4:	41 81 fe 00 80 00 00 	cmp    $0x8000,%r14d
  101fab:	75 93                	jne    101f40 <parse_MCFG+0x80>
  101fad:	81 44 24 04 00 80 00 	addl   $0x8000,0x4(%rsp)
  101fb4:	00 
  101fb5:	8b 44 24 04          	mov    0x4(%rsp),%eax
  101fb9:	3d 00 00 10 00       	cmp    $0x100000,%eax
  101fbe:	0f 85 6c ff ff ff    	jne    101f30 <parse_MCFG+0x70>
  101fc4:	48 8b 44 24 18       	mov    0x18(%rsp),%rax
  101fc9:	48 8b 4c 24 10       	mov    0x10(%rsp),%rcx
  101fce:	83 44 24 0c 01       	addl   $0x1,0xc(%rsp)
  101fd3:	8b 54 24 0c          	mov    0xc(%rsp),%edx
  101fd7:	0f b6 44 08 0b       	movzbl 0xb(%rax,%rcx,1),%eax
  101fdc:	39 d0                	cmp    %edx,%eax
  101fde:	0f 8f 35 ff ff ff    	jg     101f19 <parse_MCFG+0x59>
  101fe4:	48 8b 74 24 18       	mov    0x18(%rsp),%rsi
  101fe9:	48 83 44 24 10 10    	addq   $0x10,0x10(%rsp)
  101fef:	48 8b 44 24 10       	mov    0x10(%rsp),%rax
  101ff4:	39 46 04             	cmp    %eax,0x4(%rsi)
  101ff7:	0f 87 f4 fe ff ff    	ja     101ef1 <parse_MCFG+0x31>
  101ffd:	48 83 c4 28          	add    $0x28,%rsp
  102001:	5b                   	pop    %rbx
  102002:	5d                   	pop    %rbp
  102003:	41 5c                	pop    %r12
  102005:	41 5d                	pop    %r13
  102007:	41 5e                	pop    %r14
  102009:	41 5f                	pop    %r15
  10200b:	c3                   	ret    
  10200c:	0f 1f 40 00          	nopl   0x0(%rax)

0000000000102010 <parse_XSDT>:
  102010:	f3 0f 1e fa          	endbr64 
  102014:	41 57                	push   %r15
  102016:	41 56                	push   %r14
  102018:	41 55                	push   %r13
  10201a:	41 54                	push   %r12
  10201c:	55                   	push   %rbp
  10201d:	53                   	push   %rbx
  10201e:	48 83 ec 08          	sub    $0x8,%rsp
  102022:	8b 77 04             	mov    0x4(%rdi),%esi
  102025:	85 f6                	test   %esi,%esi
  102027:	0f 84 13 01 00 00    	je     102140 <parse_XSDT+0x130>
  10202d:	8d 46 ff             	lea    -0x1(%rsi),%eax
  102030:	31 d2                	xor    %edx,%edx
  102032:	48 8d 4c 07 01       	lea    0x1(%rdi,%rax,1),%rcx
  102037:	48 89 f8             	mov    %rdi,%rax
  10203a:	66 0f 1f 44 00 00    	nopw   0x0(%rax,%rax,1)
  102040:	02 10                	add    (%rax),%dl
  102042:	48 83 c0 01          	add    $0x1,%rax
  102046:	48 39 c8             	cmp    %rcx,%rax
  102049:	75 f5                	jne    102040 <parse_XSDT+0x30>
  10204b:	84 d2                	test   %dl,%dl
  10204d:	0f 85 cd 00 00 00    	jne    102120 <parse_XSDT+0x110>
  102053:	8d 6e dc             	lea    -0x24(%rsi),%ebp
  102056:	48 8d 5f 24          	lea    0x24(%rdi),%rbx
  10205a:	c1 ed 03             	shr    $0x3,%ebp
  10205d:	74 50                	je     1020af <parse_XSDT+0x9f>
  10205f:	4c 8d 3d b3 04 00 00 	lea    0x4b3(%rip),%r15        # 102519 <set_timer+0x379>
  102066:	45 31 ed             	xor    %r13d,%r13d
  102069:	4c 8d 35 9c 04 00 00 	lea    0x49c(%rip),%r14        # 10250c <set_timer+0x36c>
  102070:	4d 8d 67 fc          	lea    -0x4(%r15),%r12
  102074:	0f 1f 40 00          	nopl   0x0(%rax)
  102078:	4a 8b 3c eb          	mov    (%rbx,%r13,8),%rdi
  10207c:	48 8d 05 92 04 00 00 	lea    0x492(%rip),%rax        # 102515 <set_timer+0x375>
  102083:	ba 41 00 00 00       	mov    $0x41,%edx
  102088:	48 89 f9             	mov    %rdi,%rcx
  10208b:	4c 29 e1             	sub    %r12,%rcx
  10208e:	eb 03                	jmp    102093 <parse_XSDT+0x83>
  102090:	0f b6 10             	movzbl (%rax),%edx
  102093:	38 14 01             	cmp    %dl,(%rcx,%rax,1)
  102096:	75 28                	jne    1020c0 <parse_XSDT+0xb0>
  102098:	48 83 c0 01          	add    $0x1,%rax
  10209c:	4c 39 f8             	cmp    %r15,%rax
  10209f:	75 ef                	jne    102090 <parse_XSDT+0x80>
  1020a1:	e8 8a fd ff ff       	call   101e30 <parse_MADT>
  1020a6:	49 83 c5 01          	add    $0x1,%r13
  1020aa:	44 39 ed             	cmp    %r13d,%ebp
  1020ad:	7f c9                	jg     102078 <parse_XSDT+0x68>
  1020af:	48 83 c4 08          	add    $0x8,%rsp
  1020b3:	5b                   	pop    %rbx
  1020b4:	5d                   	pop    %rbp
  1020b5:	41 5c                	pop    %r12
  1020b7:	41 5d                	pop    %r13
  1020b9:	41 5e                	pop    %r14
  1020bb:	41 5f                	pop    %r15
  1020bd:	c3                   	ret    
  1020be:	66 90                	xchg   %ax,%ax
  1020c0:	48 8d 05 41 04 00 00 	lea    0x441(%rip),%rax        # 102508 <set_timer+0x368>
  1020c7:	48 89 f9             	mov    %rdi,%rcx
  1020ca:	ba 46 00 00 00       	mov    $0x46,%edx
  1020cf:	48 29 c1             	sub    %rax,%rcx
  1020d2:	eb 10                	jmp    1020e4 <parse_XSDT+0xd4>
  1020d4:	0f 1f 40 00          	nopl   0x0(%rax)
  1020d8:	48 83 c0 01          	add    $0x1,%rax
  1020dc:	49 39 c6             	cmp    %rax,%r14
  1020df:	74 c5                	je     1020a6 <parse_XSDT+0x96>
  1020e1:	0f b6 10             	movzbl (%rax),%edx
  1020e4:	38 14 01             	cmp    %dl,(%rcx,%rax,1)
  1020e7:	74 ef                	je     1020d8 <parse_XSDT+0xc8>
  1020e9:	4c 8d 0d 21 04 00 00 	lea    0x421(%rip),%r9        # 102511 <set_timer+0x371>
  1020f0:	48 89 f9             	mov    %rdi,%rcx
  1020f3:	ba 4d 00 00 00       	mov    $0x4d,%edx
  1020f8:	49 8d 41 fc          	lea    -0x4(%r9),%rax
  1020fc:	48 29 c1             	sub    %rax,%rcx
  1020ff:	eb 0a                	jmp    10210b <parse_XSDT+0xfb>
  102101:	0f 1f 80 00 00 00 00 	nopl   0x0(%rax)
  102108:	0f b6 10             	movzbl (%rax),%edx
  10210b:	38 14 01             	cmp    %dl,(%rcx,%rax,1)
  10210e:	75 96                	jne    1020a6 <parse_XSDT+0x96>
  102110:	48 83 c0 01          	add    $0x1,%rax
  102114:	49 39 c1             	cmp    %rax,%r9
  102117:	75 ef                	jne    102108 <parse_XSDT+0xf8>
  102119:	e8 a2 fd ff ff       	call   101ec0 <parse_MCFG>
  10211e:	eb 86                	jmp    1020a6 <parse_XSDT+0x96>
  102120:	bf 00 00 ff 00       	mov    $0xff0000,%edi
  102125:	31 f6                	xor    %esi,%esi
  102127:	e8 54 fa ff ff       	call   101b80 <set_color>
  10212c:	48 8d 3d fd 0a 00 00 	lea    0xafd(%rip),%rdi        # 102c30 <set_timer+0xa90>
  102133:	e8 c8 f8 ff ff       	call   101a00 <printf>
  102138:	eb fe                	jmp    102138 <parse_XSDT+0x128>
  10213a:	66 0f 1f 44 00 00    	nopw   0x0(%rax,%rax,1)
  102140:	48 8d 5f 24          	lea    0x24(%rdi),%rbx
  102144:	bd fb ff ff 1f       	mov    $0x1ffffffb,%ebp
  102149:	e9 11 ff ff ff       	jmp    10205f <parse_XSDT+0x4f>
  10214e:	66 90                	xchg   %ax,%ax

0000000000102150 <init_APIC>:
  102150:	f3 0f 1e fa          	endbr64 
  102154:	48 83 ec 08          	sub    $0x8,%rsp
  102158:	e8 c0 ee ff ff       	call   10101d <enable_APIC>
  10215d:	85 c0                	test   %eax,%eax
  10215f:	74 0f                	je     102170 <init_APIC+0x20>
  102161:	83 f8 01             	cmp    $0x1,%eax
  102164:	74 26                	je     10218c <init_APIC+0x3c>
  102166:	83 f8 02             	cmp    $0x2,%eax
  102169:	74 13                	je     10217e <init_APIC+0x2e>
  10216b:	eb fe                	jmp    10216b <init_APIC+0x1b>
  10216d:	0f 1f 00             	nopl   (%rax)
  102170:	bf 00 00 e0 ee       	mov    $0xeee00000,%edi
  102175:	48 83 c4 08          	add    $0x8,%rsp
  102179:	e9 d0 ee ff ff       	jmp    10104e <remap_APIC_registers>
  10217e:	48 8d 3d 95 03 00 00 	lea    0x395(%rip),%rdi        # 10251a <set_timer+0x37a>
  102185:	e8 76 f8 ff ff       	call   101a00 <printf>
  10218a:	eb df                	jmp    10216b <init_APIC+0x1b>
  10218c:	48 8d 3d 7f 03 00 00 	lea    0x37f(%rip),%rdi        # 102512 <set_timer+0x372>
  102193:	e8 68 f8 ff ff       	call   101a00 <printf>
  102198:	eb d1                	jmp    10216b <init_APIC+0x1b>
  10219a:	66 0f 1f 44 00 00    	nopw   0x0(%rax,%rax,1)

00000000001021a0 <set_timer>:
  1021a0:	f3 0f 1e fa          	endbr64 
  1021a4:	b8 f0 00 e0 ee       	mov    $0xeee000f0,%eax
  1021a9:	48 83 ec 08          	sub    $0x8,%rsp
  1021ad:	c7 00 20 01 00 00    	movl   $0x120,(%rax)
  1021b3:	e8 65 ee ff ff       	call   10101d <enable_APIC>
  1021b8:	85 c0                	test   %eax,%eax
  1021ba:	74 14                	je     1021d0 <set_timer+0x30>
  1021bc:	83 f8 01             	cmp    $0x1,%eax
  1021bf:	74 4a                	je     10220b <set_timer+0x6b>
  1021c1:	83 f8 02             	cmp    $0x2,%eax
  1021c4:	74 37                	je     1021fd <set_timer+0x5d>
  1021c6:	eb fe                	jmp    1021c6 <set_timer+0x26>
  1021c8:	0f 1f 84 00 00 00 00 	nopl   0x0(%rax,%rax,1)
  1021cf:	00 
  1021d0:	bf 00 00 e0 ee       	mov    $0xeee00000,%edi
  1021d5:	e8 74 ee ff ff       	call   10104e <remap_APIC_registers>
  1021da:	ba 20 03 e0 ee       	mov    $0xeee00320,%edx
  1021df:	8b 02                	mov    (%rdx),%eax
  1021e1:	25 00 ff f8 ff       	and    $0xfff8ff00,%eax
  1021e6:	0d 20 00 02 00       	or     $0x20020,%eax
  1021eb:	89 02                	mov    %eax,(%rdx)
  1021ed:	b8 80 03 e0 ee       	mov    $0xeee00380,%eax
  1021f2:	c7 00 00 00 00 10    	movl   $0x10000000,(%rax)
  1021f8:	48 83 c4 08          	add    $0x8,%rsp
  1021fc:	c3                   	ret    
  1021fd:	48 8d 3d 16 03 00 00 	lea    0x316(%rip),%rdi        # 10251a <set_timer+0x37a>
  102204:	e8 f7 f7 ff ff       	call   101a00 <printf>
  102209:	eb bb                	jmp    1021c6 <set_timer+0x26>
  10220b:	48 8d 3d 00 03 00 00 	lea    0x300(%rip),%rdi        # 102512 <set_timer+0x372>
  102212:	e8 e9 f7 ff ff       	call   101a00 <printf>
  102217:	eb ad                	jmp    1021c6 <set_timer+0x26>

Disassembly of section .rodata:

000000000010221c <.rodata>:
  10221c:	b4 ee                	mov    $0xee,%ah
  10221e:	ff                   	(bad)  
  10221f:	ff 9c ee ff ff 34 f1 	lcall  *-0xecb0001(%rsi,%rbp,8)
  102226:	ff                   	(bad)  
  102227:	ff 14 f1             	call   *(%rcx,%rsi,8)
  10222a:	ff                   	(bad)  
  10222b:	ff f4                	push   %rsp
  10222d:	f0 ff                	lock (bad) 
  10222f:	ff d4                	call   *%rsp
  102231:	f0 ff                	lock (bad) 
  102233:	ff b4 f0 ff ff 94 f0 	push   -0xf6b0001(%rax,%rsi,8)
  10223a:	ff                   	(bad)  
  10223b:	ff 74 f0 ff          	push   -0x1(%rax,%rsi,8)
  10223f:	ff 54 f0 ff          	call   *-0x1(%rax,%rsi,8)
  102243:	ff 34 f0             	push   (%rax,%rsi,8)
  102246:	ff                   	(bad)  
  102247:	ff 14 f0             	call   *(%rax,%rsi,8)
  10224a:	ff                   	(bad)  
  10224b:	ff f4                	push   %rsp
  10224d:	ef                   	out    %eax,(%dx)
  10224e:	ff                   	(bad)  
  10224f:	ff d4                	call   *%rsp
  102251:	ef                   	out    %eax,(%dx)
  102252:	ff                   	(bad)  
  102253:	ff b4 ef ff ff 94 ef 	push   -0x106b0001(%rdi,%rbp,8)
  10225a:	ff                   	(bad)  
  10225b:	ff 74 ef ff          	push   -0x1(%rdi,%rbp,8)
  10225f:	ff 54 ef ff          	call   *-0x1(%rdi,%rbp,8)
  102263:	ff 34 ef             	push   (%rdi,%rbp,8)
  102266:	ff                   	(bad)  
  102267:	ff 14 ef             	call   *(%rdi,%rbp,8)
  10226a:	ff                   	(bad)  
  10226b:	ff f4                	push   %rsp
  10226d:	ee                   	out    %al,(%dx)
  10226e:	ff                   	(bad)  
  10226f:	ff d4                	call   *%rsp
  102271:	ee                   	out    %al,(%dx)
  102272:	ff                   	(bad)  
  102273:	ff                   	(bad)  
  102274:	fc                   	cld    
  102275:	fb                   	sti    
  102276:	ff                   	(bad)  
  102277:	ff                   	(bad)  
  102278:	fc                   	cld    
  102279:	fb                   	sti    
  10227a:	ff                   	(bad)  
  10227b:	ff                   	(bad)  
  10227c:	fc                   	cld    
  10227d:	fb                   	sti    
  10227e:	ff                   	(bad)  
  10227f:	ff                   	(bad)  
  102280:	fc                   	cld    
  102281:	fb                   	sti    
  102282:	ff                   	(bad)  
  102283:	ff                   	(bad)  
  102284:	fc                   	cld    
  102285:	fb                   	sti    
  102286:	ff                   	(bad)  
  102287:	ff                   	(bad)  
  102288:	fc                   	cld    
  102289:	fb                   	sti    
  10228a:	ff                   	(bad)  
  10228b:	ff                   	.byte 0xff

Disassembly of section .rodata.str1.1:

000000000010228c <.rodata.str1.1>:
  10228c:	6b 65 72 6e          	imul   $0x6e,0x72(%rbp),%esp
  102290:	65 6c                	gs insb (%dx),%es:(%rdi)
  102292:	20 77 61             	and    %dh,0x61(%rdi)
  102295:	73 20                	jae    1022b7 <set_timer+0x117>
  102297:	62                   	(bad)  
  102298:	6f                   	outsl  %ds:(%rsi),(%dx)
  102299:	6f                   	outsl  %ds:(%rsi),(%dx)
  10229a:	74 65                	je     102301 <set_timer+0x161>
  10229c:	64 20 62 79          	and    %ah,%fs:0x79(%rdx)
  1022a0:	3a 20                	cmp    (%rax),%ah
  1022a2:	00 2e                	add    %ch,(%rsi)
  1022a4:	00 0a                	add    %cl,(%rdx)
  1022a6:	20 52 31             	and    %dl,0x31(%rdx)
  1022a9:	35 20 20 20 3a       	xor    $0x3a202020,%eax
  1022ae:	20 00                	and    %al,(%rax)
  1022b0:	0a 20                	or     (%rax),%ah
  1022b2:	52                   	push   %rdx
  1022b3:	31 34 20             	xor    %esi,(%rax,%riz,1)
  1022b6:	20 20                	and    %ah,(%rax)
  1022b8:	3a 20                	cmp    (%rax),%ah
  1022ba:	00 0a                	add    %cl,(%rdx)
  1022bc:	20 52 31             	and    %dl,0x31(%rdx)
  1022bf:	33 20                	xor    (%rax),%esp
  1022c1:	20 20                	and    %ah,(%rax)
  1022c3:	3a 20                	cmp    (%rax),%ah
  1022c5:	00 0a                	add    %cl,(%rdx)
  1022c7:	20 52 31             	and    %dl,0x31(%rdx)
  1022ca:	32 20                	xor    (%rax),%ah
  1022cc:	20 20                	and    %ah,(%rax)
  1022ce:	3a 20                	cmp    (%rax),%ah
  1022d0:	00 0a                	add    %cl,(%rdx)
  1022d2:	20 52 31             	and    %dl,0x31(%rdx)
  1022d5:	31 20                	xor    %esp,(%rax)
  1022d7:	20 20                	and    %ah,(%rax)
  1022d9:	3a 20                	cmp    (%rax),%ah
  1022db:	00 0a                	add    %cl,(%rdx)
  1022dd:	20 52 31             	and    %dl,0x31(%rdx)
  1022e0:	30 20                	xor    %ah,(%rax)
  1022e2:	20 20                	and    %ah,(%rax)
  1022e4:	3a 20                	cmp    (%rax),%ah
  1022e6:	00 0a                	add    %cl,(%rdx)
  1022e8:	20 52 39             	and    %dl,0x39(%rdx)
  1022eb:	20 20                	and    %ah,(%rax)
  1022ed:	20 20                	and    %ah,(%rax)
  1022ef:	3a 20                	cmp    (%rax),%ah
  1022f1:	00 0a                	add    %cl,(%rdx)
  1022f3:	20 52 38             	and    %dl,0x38(%rdx)
  1022f6:	20 20                	and    %ah,(%rax)
  1022f8:	20 20                	and    %ah,(%rax)
  1022fa:	3a 20                	cmp    (%rax),%ah
  1022fc:	00 0a                	add    %cl,(%rdx)
  1022fe:	20 52 42             	and    %dl,0x42(%rdx)
  102301:	50                   	push   %rax
  102302:	20 20                	and    %ah,(%rax)
  102304:	20 3a                	and    %bh,(%rdx)
  102306:	20 00                	and    %al,(%rax)
  102308:	0a 20                	or     (%rax),%ah
  10230a:	52                   	push   %rdx
  10230b:	44                   	rex.R
  10230c:	49 20 20             	rex.WB and %spl,(%r8)
  10230f:	20 3a                	and    %bh,(%rdx)
  102311:	20 00                	and    %al,(%rax)
  102313:	0a 20                	or     (%rax),%ah
  102315:	52                   	push   %rdx
  102316:	53                   	push   %rbx
  102317:	49 20 20             	rex.WB and %spl,(%r8)
  10231a:	20 3a                	and    %bh,(%rdx)
  10231c:	20 00                	and    %al,(%rax)
  10231e:	0a 20                	or     (%rax),%ah
  102320:	52                   	push   %rdx
  102321:	44 58                	rex.R pop %rax
  102323:	20 20                	and    %ah,(%rax)
  102325:	20 3a                	and    %bh,(%rdx)
  102327:	20 00                	and    %al,(%rax)
  102329:	0a 20                	or     (%rax),%ah
  10232b:	52                   	push   %rdx
  10232c:	43 58                	rex.XB pop %r8
  10232e:	20 20                	and    %ah,(%rax)
  102330:	20 3a                	and    %bh,(%rdx)
  102332:	20 00                	and    %al,(%rax)
  102334:	0a 20                	or     (%rax),%ah
  102336:	52                   	push   %rdx
  102337:	42 58                	rex.X pop %rax
  102339:	20 20                	and    %ah,(%rax)
  10233b:	20 3a                	and    %bh,(%rdx)
  10233d:	20 00                	and    %al,(%rax)
  10233f:	0a 20                	or     (%rax),%ah
  102341:	52                   	push   %rdx
  102342:	41 58                	pop    %r8
  102344:	20 20                	and    %ah,(%rax)
  102346:	20 3a                	and    %bh,(%rdx)
  102348:	20 00                	and    %al,(%rax)
  10234a:	0a 20                	or     (%rax),%ah
  10234c:	45 52                	rex.RB push %r10
  10234e:	52                   	push   %rdx
  10234f:	20 20                	and    %ah,(%rax)
  102351:	20 3a                	and    %bh,(%rdx)
  102353:	20 00                	and    %al,(%rax)
  102355:	0a 20                	or     (%rax),%ah
  102357:	52                   	push   %rdx
  102358:	49 50                	rex.WB push %r8
  10235a:	20 20                	and    %ah,(%rax)
  10235c:	20 3a                	and    %bh,(%rdx)
  10235e:	20 00                	and    %al,(%rax)
  102360:	0a 20                	or     (%rax),%ah
  102362:	43 53                	rex.XB push %r11
  102364:	20 20                	and    %ah,(%rax)
  102366:	20 20                	and    %ah,(%rax)
  102368:	3a 20                	cmp    (%rax),%ah
  10236a:	00 0a                	add    %cl,(%rdx)
  10236c:	20 45 46             	and    %al,0x46(%rbp)
  10236f:	4c                   	rex.WR
  102370:	41                   	rex.B
  102371:	47 53                	rex.RXB push %r11
  102373:	3a 20                	cmp    (%rax),%ah
  102375:	00 0a                	add    %cl,(%rdx)
  102377:	20 44 49 56          	and    %al,0x56(%rcx,%rcx,2)
  10237b:	49 53                	rex.WB push %r11
  10237d:	49                   	rex.WB
  10237e:	4f                   	rex.WRXB
  10237f:	4e 20 45 52          	rex.WRX and %r8b,0x52(%rbp)
  102383:	52                   	push   %rdx
  102384:	4f 52                	rex.WRXB push %r10
  102386:	0a 00                	or     (%rax),%al
  102388:	0a 20                	or     (%rax),%ah
  10238a:	44                   	rex.R
  10238b:	45                   	rex.RB
  10238c:	42 55                	rex.X push %rbp
  10238e:	47 0a 00             	rex.RXB or (%r8),%r8b
  102391:	0a 20                	or     (%rax),%ah
  102393:	4e                   	rex.WRX
  102394:	4f                   	rex.WRXB
  102395:	4e 20 4d 41          	rex.WRX and %r9b,0x41(%rbp)
  102399:	53                   	push   %rbx
  10239a:	4b                   	rex.WXB
  10239b:	41                   	rex.B
  10239c:	42                   	rex.X
  10239d:	4c                   	rex.WR
  10239e:	45 20 49 4e          	and    %r9b,0x4e(%r9)
  1023a2:	54                   	push   %rsp
  1023a3:	45 52                	rex.RB push %r10
  1023a5:	52                   	push   %rdx
  1023a6:	55                   	push   %rbp
  1023a7:	50                   	push   %rax
  1023a8:	54                   	push   %rsp
  1023a9:	0a 00                	or     (%rax),%al
  1023ab:	0a 20                	or     (%rax),%ah
  1023ad:	42 52                	rex.X push %rdx
  1023af:	45                   	rex.RB
  1023b0:	41                   	rex.B
  1023b1:	4b 50                	rex.WXB push %r8
  1023b3:	4f                   	rex.WRXB
  1023b4:	49                   	rex.WB
  1023b5:	4e 54                	rex.WRX push %rsp
  1023b7:	0a 00                	or     (%rax),%al
  1023b9:	0a 20                	or     (%rax),%ah
  1023bb:	4f 56                	rex.WRXB push %r14
  1023bd:	45 52                	rex.RB push %r10
  1023bf:	46                   	rex.RX
  1023c0:	4c                   	rex.WR
  1023c1:	4f 57                	rex.WRXB push %r15
  1023c3:	0a 00                	or     (%rax),%al
  1023c5:	0a 20                	or     (%rax),%ah
  1023c7:	42                   	rex.X
  1023c8:	4f 55                	rex.WRXB push %r13
  1023ca:	4e                   	rex.WRX
  1023cb:	44 20 52 41          	and    %r10b,0x41(%rdx)
  1023cf:	4e                   	rex.WRX
  1023d0:	47                   	rex.RXB
  1023d1:	45 20 45 58          	and    %r8b,0x58(%r13)
  1023d5:	43                   	rex.XB
  1023d6:	45                   	rex.RB
  1023d7:	45                   	rex.RB
  1023d8:	44                   	rex.R
  1023d9:	45                   	rex.RB
  1023da:	44 0a 00             	or     (%rax),%r8b
  1023dd:	0a 20                	or     (%rax),%ah
  1023df:	49                   	rex.WB
  1023e0:	4e 56                	rex.WRX push %rsi
  1023e2:	41                   	rex.B
  1023e3:	4c                   	rex.WR
  1023e4:	49                   	rex.WB
  1023e5:	44 20 4f 50          	and    %r9b,0x50(%rdi)
  1023e9:	43                   	rex.XB
  1023ea:	4f                   	rex.WRXB
  1023eb:	44                   	rex.R
  1023ec:	45 0a 00             	or     (%r8),%r8b
  1023ef:	0a 20                	or     (%rax),%ah
  1023f1:	44                   	rex.R
  1023f2:	45 56                	rex.RB push %r14
  1023f4:	49                   	rex.WB
  1023f5:	43                   	rex.XB
  1023f6:	45 20 4e 4f          	and    %r9b,0x4f(%r14)
  1023fa:	54                   	push   %rsp
  1023fb:	20 41 56             	and    %al,0x56(%rcx)
  1023fe:	41                   	rex.B
  1023ff:	49                   	rex.WB
  102400:	4c                   	rex.WR
  102401:	41                   	rex.B
  102402:	42                   	rex.X
  102403:	4c                   	rex.WR
  102404:	45 0a 00             	or     (%r8),%r8b
  102407:	0a 20                	or     (%rax),%ah
  102409:	44                   	rex.R
  10240a:	4f 55                	rex.WRXB push %r13
  10240c:	42                   	rex.X
  10240d:	4c                   	rex.WR
  10240e:	45 20 46 41          	and    %r8b,0x41(%r14)
  102412:	55                   	push   %rbp
  102413:	4c 54                	rex.WR push %rsp
  102415:	0a 00                	or     (%rax),%al
  102417:	0a 20                	or     (%rax),%ah
  102419:	49                   	rex.WB
  10241a:	4e 56                	rex.WRX push %rsi
  10241c:	41                   	rex.B
  10241d:	4c                   	rex.WR
  10241e:	49                   	rex.WB
  10241f:	44 20 54 53 53       	and    %r10b,0x53(%rbx,%rdx,2)
  102424:	0a 00                	or     (%rax),%al
  102426:	0a 20                	or     (%rax),%ah
  102428:	53                   	push   %rbx
  102429:	45                   	rex.RB
  10242a:	47                   	rex.RXB
  10242b:	4d                   	rex.WRB
  10242c:	45                   	rex.RB
  10242d:	4e 54                	rex.WRX push %rsp
  10242f:	20 4e 4f             	and    %cl,0x4f(%rsi)
  102432:	54                   	push   %rsp
  102433:	20 50 52             	and    %dl,0x52(%rax)
  102436:	45 53                	rex.RB push %r11
  102438:	45                   	rex.RB
  102439:	4e 54                	rex.WRX push %rsp
  10243b:	0a 00                	or     (%rax),%al
  10243d:	0a 20                	or     (%rax),%ah
  10243f:	53                   	push   %rbx
  102440:	54                   	push   %rsp
  102441:	41                   	rex.B
  102442:	43                   	rex.XB
  102443:	4b 20 53 45          	rex.WXB and %dl,0x45(%r11)
  102447:	47                   	rex.RXB
  102448:	4d                   	rex.WRB
  102449:	45                   	rex.RB
  10244a:	4e 54                	rex.WRX push %rsp
  10244c:	20 46 41             	and    %al,0x41(%rsi)
  10244f:	55                   	push   %rbp
  102450:	4c 54                	rex.WR push %rsp
  102452:	0a 00                	or     (%rax),%al
  102454:	0a 20                	or     (%rax),%ah
  102456:	47                   	rex.RXB
  102457:	45                   	rex.RB
  102458:	4e                   	rex.WRX
  102459:	45 52                	rex.RB push %r10
  10245b:	41                   	rex.B
  10245c:	4c 20 50 52          	rex.WR and %r10b,0x52(%rax)
  102460:	4f 54                	rex.WRXB push %r12
  102462:	45                   	rex.RB
  102463:	43 54                	rex.XB push %r12
  102465:	49                   	rex.WB
  102466:	4f                   	rex.WRXB
  102467:	4e 20 46 41          	rex.WRX and %r8b,0x41(%rsi)
  10246b:	55                   	push   %rbp
  10246c:	4c 54                	rex.WR push %rsp
  10246e:	0a 00                	or     (%rax),%al
  102470:	0a 20                	or     (%rax),%ah
  102472:	50                   	push   %rax
  102473:	41                   	rex.B
  102474:	47                   	rex.RXB
  102475:	45 20 46 41          	and    %r8b,0x41(%r14)
  102479:	55                   	push   %rbp
  10247a:	4c 54                	rex.WR push %rsp
  10247c:	0a 00                	or     (%rax),%al
  10247e:	0a 20                	or     (%rax),%ah
  102480:	41                   	rex.B
  102481:	4c                   	rex.WR
  102482:	49                   	rex.WB
  102483:	47                   	rex.RXB
  102484:	4e                   	rex.WRX
  102485:	4d                   	rex.WRB
  102486:	45                   	rex.RB
  102487:	4e 54                	rex.WRX push %rsp
  102489:	20 43 48             	and    %al,0x48(%rbx)
  10248c:	45                   	rex.RB
  10248d:	43                   	rex.XB
  10248e:	4b 0a 00             	rex.WXB or (%r8),%al
  102491:	0a 20                	or     (%rax),%ah
  102493:	4d                   	rex.WRB
  102494:	41                   	rex.B
  102495:	43                   	rex.XB
  102496:	48                   	rex.W
  102497:	49                   	rex.WB
  102498:	4e                   	rex.WRX
  102499:	45 20 43 48          	and    %r8b,0x48(%r11)
  10249d:	45                   	rex.RB
  10249e:	43                   	rex.XB
  10249f:	4b 0a 00             	rex.WXB or (%r8),%al
  1024a2:	0a 20                	or     (%rax),%ah
  1024a4:	56                   	push   %rsi
  1024a5:	49 52                	rex.WB push %r10
  1024a7:	54                   	push   %rsp
  1024a8:	55                   	push   %rbp
  1024a9:	41                   	rex.B
  1024aa:	4c 20 45 58          	rex.WR and %r8b,0x58(%rbp)
  1024ae:	43                   	rex.XB
  1024af:	45 50                	rex.RB push %r8
  1024b1:	54                   	push   %rsp
  1024b2:	49                   	rex.WB
  1024b3:	4f                   	rex.WRXB
  1024b4:	4e 0a 00             	rex.WRX or (%rax),%r8b
  1024b7:	0a 20                	or     (%rax),%ah
  1024b9:	43                   	rex.XB
  1024ba:	4f                   	rex.WRXB
  1024bb:	4e 54                	rex.WRX push %rsp
  1024bd:	52                   	push   %rdx
  1024be:	4f                   	rex.WRXB
  1024bf:	4c 20 50 52          	rex.WR and %r10b,0x52(%rax)
  1024c3:	4f 54                	rex.WRXB push %r12
  1024c5:	45                   	rex.RB
  1024c6:	43 54                	rex.XB push %r12
  1024c8:	49                   	rex.WB
  1024c9:	4f                   	rex.WRXB
  1024ca:	4e 20 4f 56          	rex.WRX and %r9b,0x56(%rdi)
  1024ce:	45 52                	rex.RB push %r10
  1024d0:	52                   	push   %rdx
  1024d1:	55                   	push   %rbp
  1024d2:	4e 0a 00             	rex.WRX or (%rax),%r8b
  1024d5:	0a 20                	or     (%rax),%ah
  1024d7:	53                   	push   %rbx
  1024d8:	45                   	rex.RB
  1024d9:	43 55                	rex.XB push %r13
  1024db:	52                   	push   %rdx
  1024dc:	49 54                	rex.WB push %r12
  1024de:	59                   	pop    %rcx
  1024df:	20 45 58             	and    %al,0x58(%rbp)
  1024e2:	43                   	rex.XB
  1024e3:	45 50                	rex.RB push %r8
  1024e5:	54                   	push   %rsp
  1024e6:	49                   	rex.WB
  1024e7:	4f                   	rex.WRXB
  1024e8:	4e 0a 00             	rex.WRX or (%rax),%r8b
  1024eb:	0a 20                	or     (%rax),%ah
  1024ed:	46 50                	rex.RX push %rax
  1024ef:	55                   	push   %rbp
  1024f0:	20 45 52             	and    %al,0x52(%rbp)
  1024f3:	52                   	push   %rdx
  1024f4:	4f 52                	rex.WRXB push %r10
  1024f6:	20 49 4e             	and    %cl,0x4e(%rcx)
  1024f9:	54                   	push   %rsp
  1024fa:	45 52                	rex.RB push %r10
  1024fc:	52                   	push   %rdx
  1024fd:	55                   	push   %rbp
  1024fe:	50                   	push   %rax
  1024ff:	54                   	push   %rsp
  102500:	0a 00                	or     (%rax),%al
  102502:	30 78 00             	xor    %bh,0x0(%rax)
  102505:	30 62 00             	xor    %ah,0x0(%rdx)
  102508:	46                   	rex.RX
  102509:	41                   	rex.B
  10250a:	43 50                	rex.XB push %r8
  10250c:	00 4d 43             	add    %cl,0x43(%rbp)
  10250f:	46                   	rex.RX
  102510:	47 00 6e 6f          	rex.RXB add %r13b,0x6f(%r14)
  102514:	20 41 50             	and    %al,0x50(%rcx)
  102517:	49                   	rex.WB
  102518:	43 00 6e 6f          	rex.XB add %bpl,0x6f(%r14)
  10251c:	20 4d 53             	and    %cl,0x53(%rbp)
  10251f:	52                   	push   %rdx
	...

Disassembly of section .eh_frame:

0000000000102528 <.eh_frame>:
  102528:	14 00                	adc    $0x0,%al
  10252a:	00 00                	add    %al,(%rax)
  10252c:	00 00                	add    %al,(%rax)
  10252e:	00 00                	add    %al,(%rax)
  102530:	01 7a 52             	add    %edi,0x52(%rdx)
  102533:	00 01                	add    %al,(%rcx)
  102535:	78 10                	js     102547 <set_timer+0x3a7>
  102537:	01 1b                	add    %ebx,(%rbx)
  102539:	0c 07                	or     $0x7,%al
  10253b:	08 90 01 00 00 10    	or     %dl,0x10000001(%rax)
  102541:	00 00                	add    %al,(%rax)
  102543:	00 1c 00             	add    %bl,(%rax,%rax,1)
  102546:	00 00                	add    %al,(%rax)
  102548:	38 eb                	cmp    %ch,%bl
  10254a:	ff                   	(bad)  
  10254b:	ff e6                	jmp    *%rsi
  10254d:	02 00                	add    (%rax),%al
  10254f:	00 00                	add    %al,(%rax)
  102551:	00 00                	add    %al,(%rax)
  102553:	00 18                	add    %bl,(%rax)
  102555:	00 00                	add    %al,(%rax)
  102557:	00 30                	add    %dh,(%rax)
  102559:	00 00                	add    %al,(%rax)
  10255b:	00 14 ee             	add    %dl,(%rsi,%rbp,8)
  10255e:	ff                   	(bad)  
  10255f:	ff 71 00             	push   0x0(%rcx)
  102562:	00 00                	add    %al,(%rax)
  102564:	00 48 0e             	add    %cl,0xe(%rax)
  102567:	10 02                	adc    %al,(%rdx)
  102569:	64 0e                	fs (bad) 
  10256b:	08 00                	or     %al,(%rax)
  10256d:	00 00                	add    %al,(%rax)
  10256f:	00 14 00             	add    %dl,(%rax,%rax,1)
  102572:	00 00                	add    %al,(%rax)
  102574:	4c 00 00             	rex.WR add %r8b,(%rax)
  102577:	00 78 ee             	add    %bh,-0x12(%rax)
  10257a:	ff                   	(bad)  
  10257b:	ff 24 00             	jmp    *(%rax,%rax,1)
  10257e:	00 00                	add    %al,(%rax)
  102580:	00 48 0e             	add    %cl,0xe(%rax)
  102583:	10 5b 0e             	adc    %bl,0xe(%rbx)
  102586:	08 00                	or     %al,(%rax)
  102588:	28 00                	sub    %al,(%rax)
  10258a:	00 00                	add    %al,(%rax)
  10258c:	64 00 00             	add    %al,%fs:(%rax)
  10258f:	00 90 ee ff ff 87    	add    %dl,-0x78000012(%rax)
  102595:	01 00                	add    %eax,(%rax)
  102597:	00 00                	add    %al,(%rax)
  102599:	46 0e                	rex.RX (bad) 
  10259b:	10 8d 02 42 0e 18    	adc    %cl,0x180e4202(%rbp)
  1025a1:	8c 03                	mov    %es,(%rbx)
  1025a3:	49 0e                	rex.WB (bad) 
  1025a5:	20 86 04 44 0e 28    	and    %al,0x280e4404(%rsi)
  1025ab:	83 05 4b 0e d0 01 00 	addl   $0x0,0x1d00e4b(%rip)        # 1e033fd <Not_implemented_yet+0x1bfb3ed>
  1025b2:	00 00                	add    %al,(%rax)
  1025b4:	18 00                	sbb    %al,(%rax)
  1025b6:	00 00                	add    %al,(%rax)
  1025b8:	90                   	nop
  1025b9:	00 00                	add    %al,(%rax)
  1025bb:	00 f4                	add    %dh,%ah
  1025bd:	ef                   	out    %eax,(%dx)
  1025be:	ff                   	(bad)  
  1025bf:	ff 1b                	lcall  *(%rbx)
  1025c1:	00 00                	add    %al,(%rax)
  1025c3:	00 00                	add    %al,(%rax)
  1025c5:	45 0e                	rex.RB (bad) 
  1025c7:	10 41 0e             	adc    %al,0xe(%rcx)
  1025ca:	08 49 0e             	or     %cl,0xe(%rcx)
  1025cd:	10 00                	adc    %al,(%rax)
  1025cf:	00 18                	add    %bl,(%rax)
  1025d1:	00 00                	add    %al,(%rax)
  1025d3:	00 ac 00 00 00 f8 ef 	add    %ch,-0x10080000(%rax,%rax,1)
  1025da:	ff                   	(bad)  
  1025db:	ff 1b                	lcall  *(%rbx)
  1025dd:	00 00                	add    %al,(%rax)
  1025df:	00 00                	add    %al,(%rax)
  1025e1:	45 0e                	rex.RB (bad) 
  1025e3:	10 41 0e             	adc    %al,0xe(%rcx)
  1025e6:	08 49 0e             	or     %cl,0xe(%rcx)
  1025e9:	10 00                	adc    %al,(%rax)
  1025eb:	00 18                	add    %bl,(%rax)
  1025ed:	00 00                	add    %al,(%rax)
  1025ef:	00 c8                	add    %cl,%al
  1025f1:	00 00                	add    %al,(%rax)
  1025f3:	00 fc                	add    %bh,%ah
  1025f5:	ef                   	out    %eax,(%dx)
  1025f6:	ff                   	(bad)  
  1025f7:	ff 1b                	lcall  *(%rbx)
  1025f9:	00 00                	add    %al,(%rax)
  1025fb:	00 00                	add    %al,(%rax)
  1025fd:	45 0e                	rex.RB (bad) 
  1025ff:	10 41 0e             	adc    %al,0xe(%rcx)
  102602:	08 49 0e             	or     %cl,0xe(%rcx)
  102605:	10 00                	adc    %al,(%rax)
  102607:	00 18                	add    %bl,(%rax)
  102609:	00 00                	add    %al,(%rax)
  10260b:	00 e4                	add    %ah,%ah
  10260d:	00 00                	add    %al,(%rax)
  10260f:	00 00                	add    %al,(%rax)
  102611:	f0 ff                	lock (bad) 
  102613:	ff 1b                	lcall  *(%rbx)
  102615:	00 00                	add    %al,(%rax)
  102617:	00 00                	add    %al,(%rax)
  102619:	45 0e                	rex.RB (bad) 
  10261b:	10 41 0e             	adc    %al,0xe(%rcx)
  10261e:	08 49 0e             	or     %cl,0xe(%rcx)
  102621:	10 00                	adc    %al,(%rax)
  102623:	00 18                	add    %bl,(%rax)
  102625:	00 00                	add    %al,(%rax)
  102627:	00 00                	add    %al,(%rax)
  102629:	01 00                	add    %eax,(%rax)
  10262b:	00 04 f0             	add    %al,(%rax,%rsi,8)
  10262e:	ff                   	(bad)  
  10262f:	ff 1b                	lcall  *(%rbx)
  102631:	00 00                	add    %al,(%rax)
  102633:	00 00                	add    %al,(%rax)
  102635:	45 0e                	rex.RB (bad) 
  102637:	10 41 0e             	adc    %al,0xe(%rcx)
  10263a:	08 49 0e             	or     %cl,0xe(%rcx)
  10263d:	10 00                	adc    %al,(%rax)
  10263f:	00 18                	add    %bl,(%rax)
  102641:	00 00                	add    %al,(%rax)
  102643:	00 1c 01             	add    %bl,(%rcx,%rax,1)
  102646:	00 00                	add    %al,(%rax)
  102648:	08 f0                	or     %dh,%al
  10264a:	ff                   	(bad)  
  10264b:	ff 1b                	lcall  *(%rbx)
  10264d:	00 00                	add    %al,(%rax)
  10264f:	00 00                	add    %al,(%rax)
  102651:	45 0e                	rex.RB (bad) 
  102653:	10 41 0e             	adc    %al,0xe(%rcx)
  102656:	08 49 0e             	or     %cl,0xe(%rcx)
  102659:	10 00                	adc    %al,(%rax)
  10265b:	00 18                	add    %bl,(%rax)
  10265d:	00 00                	add    %al,(%rax)
  10265f:	00 38                	add    %bh,(%rax)
  102661:	01 00                	add    %eax,(%rax)
  102663:	00 0c f0             	add    %cl,(%rax,%rsi,8)
  102666:	ff                   	(bad)  
  102667:	ff 1b                	lcall  *(%rbx)
  102669:	00 00                	add    %al,(%rax)
  10266b:	00 00                	add    %al,(%rax)
  10266d:	45 0e                	rex.RB (bad) 
  10266f:	10 41 0e             	adc    %al,0xe(%rcx)
  102672:	08 49 0e             	or     %cl,0xe(%rcx)
  102675:	10 00                	adc    %al,(%rax)
  102677:	00 18                	add    %bl,(%rax)
  102679:	00 00                	add    %al,(%rax)
  10267b:	00 54 01 00          	add    %dl,0x0(%rcx,%rax,1)
  10267f:	00 10                	add    %dl,(%rax)
  102681:	f0 ff                	lock (bad) 
  102683:	ff 1b                	lcall  *(%rbx)
  102685:	00 00                	add    %al,(%rax)
  102687:	00 00                	add    %al,(%rax)
  102689:	45 0e                	rex.RB (bad) 
  10268b:	10 41 0e             	adc    %al,0xe(%rcx)
  10268e:	08 49 0e             	or     %cl,0xe(%rcx)
  102691:	10 00                	adc    %al,(%rax)
  102693:	00 18                	add    %bl,(%rax)
  102695:	00 00                	add    %al,(%rax)
  102697:	00 70 01             	add    %dh,0x1(%rax)
  10269a:	00 00                	add    %al,(%rax)
  10269c:	14 f0                	adc    $0xf0,%al
  10269e:	ff                   	(bad)  
  10269f:	ff 1e                	lcall  *(%rsi)
  1026a1:	00 00                	add    %al,(%rax)
  1026a3:	00 00                	add    %al,(%rax)
  1026a5:	45 0e                	rex.RB (bad) 
  1026a7:	10 41 0e             	adc    %al,0xe(%rcx)
  1026aa:	08 4c 0e 10          	or     %cl,0x10(%rsi,%rcx,1)
  1026ae:	00 00                	add    %al,(%rax)
  1026b0:	18 00                	sbb    %al,(%rax)
  1026b2:	00 00                	add    %al,(%rax)
  1026b4:	8c 01                	mov    %es,(%rcx)
  1026b6:	00 00                	add    %al,(%rax)
  1026b8:	18 f0                	sbb    %dh,%al
  1026ba:	ff                   	(bad)  
  1026bb:	ff 1b                	lcall  *(%rbx)
  1026bd:	00 00                	add    %al,(%rax)
  1026bf:	00 00                	add    %al,(%rax)
  1026c1:	45 0e                	rex.RB (bad) 
  1026c3:	10 41 0e             	adc    %al,0xe(%rcx)
  1026c6:	08 49 0e             	or     %cl,0xe(%rcx)
  1026c9:	10 00                	adc    %al,(%rax)
  1026cb:	00 18                	add    %bl,(%rax)
  1026cd:	00 00                	add    %al,(%rax)
  1026cf:	00 a8 01 00 00 1c    	add    %ch,0x1c000001(%rax)
  1026d5:	f0 ff                	lock (bad) 
  1026d7:	ff 1e                	lcall  *(%rsi)
  1026d9:	00 00                	add    %al,(%rax)
  1026db:	00 00                	add    %al,(%rax)
  1026dd:	45 0e                	rex.RB (bad) 
  1026df:	10 41 0e             	adc    %al,0xe(%rcx)
  1026e2:	08 4c 0e 10          	or     %cl,0x10(%rsi,%rcx,1)
  1026e6:	00 00                	add    %al,(%rax)
  1026e8:	18 00                	sbb    %al,(%rax)
  1026ea:	00 00                	add    %al,(%rax)
  1026ec:	c4 01 00 00          	(bad)
  1026f0:	20 f0                	and    %dh,%al
  1026f2:	ff                   	(bad)  
  1026f3:	ff 1e                	lcall  *(%rsi)
  1026f5:	00 00                	add    %al,(%rax)
  1026f7:	00 00                	add    %al,(%rax)
  1026f9:	45 0e                	rex.RB (bad) 
  1026fb:	10 41 0e             	adc    %al,0xe(%rcx)
  1026fe:	08 4c 0e 10          	or     %cl,0x10(%rsi,%rcx,1)
  102702:	00 00                	add    %al,(%rax)
  102704:	18 00                	sbb    %al,(%rax)
  102706:	00 00                	add    %al,(%rax)
  102708:	e0 01                	loopne 10270b <set_timer+0x56b>
  10270a:	00 00                	add    %al,(%rax)
  10270c:	24 f0                	and    $0xf0,%al
  10270e:	ff                   	(bad)  
  10270f:	ff 1e                	lcall  *(%rsi)
  102711:	00 00                	add    %al,(%rax)
  102713:	00 00                	add    %al,(%rax)
  102715:	45 0e                	rex.RB (bad) 
  102717:	10 41 0e             	adc    %al,0xe(%rcx)
  10271a:	08 4c 0e 10          	or     %cl,0x10(%rsi,%rcx,1)
  10271e:	00 00                	add    %al,(%rax)
  102720:	18 00                	sbb    %al,(%rax)
  102722:	00 00                	add    %al,(%rax)
  102724:	fc                   	cld    
  102725:	01 00                	add    %eax,(%rax)
  102727:	00 28                	add    %ch,(%rax)
  102729:	f0 ff                	lock (bad) 
  10272b:	ff 1e                	lcall  *(%rsi)
  10272d:	00 00                	add    %al,(%rax)
  10272f:	00 00                	add    %al,(%rax)
  102731:	45 0e                	rex.RB (bad) 
  102733:	10 41 0e             	adc    %al,0xe(%rcx)
  102736:	08 4c 0e 10          	or     %cl,0x10(%rsi,%rcx,1)
  10273a:	00 00                	add    %al,(%rax)
  10273c:	18 00                	sbb    %al,(%rax)
  10273e:	00 00                	add    %al,(%rax)
  102740:	18 02                	sbb    %al,(%rdx)
  102742:	00 00                	add    %al,(%rax)
  102744:	2c f0                	sub    $0xf0,%al
  102746:	ff                   	(bad)  
  102747:	ff 1e                	lcall  *(%rsi)
  102749:	00 00                	add    %al,(%rax)
  10274b:	00 00                	add    %al,(%rax)
  10274d:	45 0e                	rex.RB (bad) 
  10274f:	10 41 0e             	adc    %al,0xe(%rcx)
  102752:	08 4c 0e 10          	or     %cl,0x10(%rsi,%rcx,1)
  102756:	00 00                	add    %al,(%rax)
  102758:	18 00                	sbb    %al,(%rax)
  10275a:	00 00                	add    %al,(%rax)
  10275c:	34 02                	xor    $0x2,%al
  10275e:	00 00                	add    %al,(%rax)
  102760:	30 f0                	xor    %dh,%al
  102762:	ff                   	(bad)  
  102763:	ff 1b                	lcall  *(%rbx)
  102765:	00 00                	add    %al,(%rax)
  102767:	00 00                	add    %al,(%rax)
  102769:	45 0e                	rex.RB (bad) 
  10276b:	10 41 0e             	adc    %al,0xe(%rcx)
  10276e:	08 49 0e             	or     %cl,0xe(%rcx)
  102771:	10 00                	adc    %al,(%rax)
  102773:	00 18                	add    %bl,(%rax)
  102775:	00 00                	add    %al,(%rax)
  102777:	00 50 02             	add    %dl,0x2(%rax)
  10277a:	00 00                	add    %al,(%rax)
  10277c:	34 f0                	xor    $0xf0,%al
  10277e:	ff                   	(bad)  
  10277f:	ff 1e                	lcall  *(%rsi)
  102781:	00 00                	add    %al,(%rax)
  102783:	00 00                	add    %al,(%rax)
  102785:	45 0e                	rex.RB (bad) 
  102787:	10 41 0e             	adc    %al,0xe(%rcx)
  10278a:	08 4c 0e 10          	or     %cl,0x10(%rsi,%rcx,1)
  10278e:	00 00                	add    %al,(%rax)
  102790:	18 00                	sbb    %al,(%rax)
  102792:	00 00                	add    %al,(%rax)
  102794:	6c                   	insb   (%dx),%es:(%rdi)
  102795:	02 00                	add    (%rax),%al
  102797:	00 38                	add    %bh,(%rax)
  102799:	f0 ff                	lock (bad) 
  10279b:	ff 1b                	lcall  *(%rbx)
  10279d:	00 00                	add    %al,(%rax)
  10279f:	00 00                	add    %al,(%rax)
  1027a1:	45 0e                	rex.RB (bad) 
  1027a3:	10 41 0e             	adc    %al,0xe(%rcx)
  1027a6:	08 49 0e             	or     %cl,0xe(%rcx)
  1027a9:	10 00                	adc    %al,(%rax)
  1027ab:	00 18                	add    %bl,(%rax)
  1027ad:	00 00                	add    %al,(%rax)
  1027af:	00 88 02 00 00 3c    	add    %cl,0x3c000002(%rax)
  1027b5:	f0 ff                	lock (bad) 
  1027b7:	ff 1b                	lcall  *(%rbx)
  1027b9:	00 00                	add    %al,(%rax)
  1027bb:	00 00                	add    %al,(%rax)
  1027bd:	45 0e                	rex.RB (bad) 
  1027bf:	10 41 0e             	adc    %al,0xe(%rcx)
  1027c2:	08 49 0e             	or     %cl,0xe(%rcx)
  1027c5:	10 00                	adc    %al,(%rax)
  1027c7:	00 18                	add    %bl,(%rax)
  1027c9:	00 00                	add    %al,(%rax)
  1027cb:	00 a4 02 00 00 40 f0 	add    %ah,-0xfc00000(%rdx,%rax,1)
  1027d2:	ff                   	(bad)  
  1027d3:	ff 1b                	lcall  *(%rbx)
  1027d5:	00 00                	add    %al,(%rax)
  1027d7:	00 00                	add    %al,(%rax)
  1027d9:	45 0e                	rex.RB (bad) 
  1027db:	10 41 0e             	adc    %al,0xe(%rcx)
  1027de:	08 49 0e             	or     %cl,0xe(%rcx)
  1027e1:	10 00                	adc    %al,(%rax)
  1027e3:	00 18                	add    %bl,(%rax)
  1027e5:	00 00                	add    %al,(%rax)
  1027e7:	00 c0                	add    %al,%al
  1027e9:	02 00                	add    (%rax),%al
  1027eb:	00 44 f0 ff          	add    %al,-0x1(%rax,%rsi,8)
  1027ef:	ff 1e                	lcall  *(%rsi)
  1027f1:	00 00                	add    %al,(%rax)
  1027f3:	00 00                	add    %al,(%rax)
  1027f5:	45 0e                	rex.RB (bad) 
  1027f7:	10 41 0e             	adc    %al,0xe(%rcx)
  1027fa:	08 4c 0e 10          	or     %cl,0x10(%rsi,%rcx,1)
  1027fe:	00 00                	add    %al,(%rax)
  102800:	18 00                	sbb    %al,(%rax)
  102802:	00 00                	add    %al,(%rax)
  102804:	dc 02                	faddl  (%rdx)
  102806:	00 00                	add    %al,(%rax)
  102808:	48                   	rex.W
  102809:	f0 ff                	lock (bad) 
  10280b:	ff 1b                	lcall  *(%rbx)
  10280d:	00 00                	add    %al,(%rax)
  10280f:	00 00                	add    %al,(%rax)
  102811:	45 0e                	rex.RB (bad) 
  102813:	10 41 0e             	adc    %al,0xe(%rcx)
  102816:	08 49 0e             	or     %cl,0xe(%rcx)
  102819:	10 00                	adc    %al,(%rax)
  10281b:	00 18                	add    %bl,(%rax)
  10281d:	00 00                	add    %al,(%rax)
  10281f:	00 f8                	add    %bh,%al
  102821:	02 00                	add    (%rax),%al
  102823:	00 4c f0 ff          	add    %cl,-0x1(%rax,%rsi,8)
  102827:	ff 1e                	lcall  *(%rsi)
  102829:	00 00                	add    %al,(%rax)
  10282b:	00 00                	add    %al,(%rax)
  10282d:	45 0e                	rex.RB (bad) 
  10282f:	10 41 0e             	adc    %al,0xe(%rcx)
  102832:	08 4c 0e 10          	or     %cl,0x10(%rsi,%rcx,1)
  102836:	00 00                	add    %al,(%rax)
  102838:	18 00                	sbb    %al,(%rax)
  10283a:	00 00                	add    %al,(%rax)
  10283c:	14 03                	adc    $0x3,%al
  10283e:	00 00                	add    %al,(%rax)
  102840:	50                   	push   %rax
  102841:	f0 ff                	lock (bad) 
  102843:	ff 1b                	lcall  *(%rbx)
  102845:	00 00                	add    %al,(%rax)
  102847:	00 00                	add    %al,(%rax)
  102849:	45 0e                	rex.RB (bad) 
  10284b:	10 41 0e             	adc    %al,0xe(%rcx)
  10284e:	08 49 0e             	or     %cl,0xe(%rcx)
  102851:	10 00                	adc    %al,(%rax)
  102853:	00 18                	add    %bl,(%rax)
  102855:	00 00                	add    %al,(%rax)
  102857:	00 30                	add    %dh,(%rax)
  102859:	03 00                	add    (%rax),%eax
  10285b:	00 54 f0 ff          	add    %dl,-0x1(%rax,%rsi,8)
  10285f:	ff 1b                	lcall  *(%rbx)
  102861:	00 00                	add    %al,(%rax)
  102863:	00 00                	add    %al,(%rax)
  102865:	45 0e                	rex.RB (bad) 
  102867:	10 41 0e             	adc    %al,0xe(%rcx)
  10286a:	08 49 0e             	or     %cl,0xe(%rcx)
  10286d:	10 00                	adc    %al,(%rax)
  10286f:	00 10                	add    %dl,(%rax)
  102871:	00 00                	add    %al,(%rax)
  102873:	00 4c 03 00          	add    %cl,0x0(%rbx,%rax,1)
  102877:	00 58 f0             	add    %bl,-0x10(%rax)
  10287a:	ff                   	(bad)  
  10287b:	ff 1d 00 00 00 00    	lcall  *0x0(%rip)        # 102881 <set_timer+0x6e1>
  102881:	00 00                	add    %al,(%rax)
  102883:	00 44 00 00          	add    %al,0x0(%rax,%rax,1)
  102887:	00 60 03             	add    %ah,0x3(%rax)
  10288a:	00 00                	add    %al,(%rax)
  10288c:	64 f0 ff             	fs lock (bad) 
  10288f:	ff                   	(bad)  
  102890:	fd                   	std    
  102891:	00 00                	add    %al,(%rax)
  102893:	00 00                	add    %al,(%rax)
  102895:	46 0e                	rex.RX (bad) 
  102897:	10 8f 02 53 0e 18    	adc    %cl,0x180e5302(%rdi)
  10289d:	8e 03                	mov    (%rbx),%es
  10289f:	42 0e                	rex.X (bad) 
  1028a1:	20 8d 04 42 0e 28    	and    %cl,0x280e4204(%rbp)
  1028a7:	8c 05 41 0e 30 86    	mov    %es,-0x79cff1bf(%rip)        # ffffffff864036ee <Not_implemented_yet+0xffffffff861fb6de>
  1028ad:	06                   	(bad)  
  1028ae:	46 0e                	rex.RX (bad) 
  1028b0:	38 83 07 02 cf c3    	cmp    %al,-0x3c30fdf9(%rbx)
  1028b6:	0e                   	(bad)  
  1028b7:	30 41 c6             	xor    %al,-0x3a(%rcx)
  1028ba:	0e                   	(bad)  
  1028bb:	28 42 cc             	sub    %al,-0x34(%rdx)
  1028be:	0e                   	(bad)  
  1028bf:	20 42 cd             	and    %al,-0x33(%rdx)
  1028c2:	0e                   	(bad)  
  1028c3:	18 42 ce             	sbb    %al,-0x32(%rdx)
  1028c6:	0e                   	(bad)  
  1028c7:	10 42 cf             	adc    %al,-0x31(%rdx)
  1028ca:	0e                   	(bad)  
  1028cb:	08 10                	or     %dl,(%rax)
  1028cd:	00 00                	add    %al,(%rax)
  1028cf:	00 a8 03 00 00 1c    	add    %ch,0x1c000003(%rax)
  1028d5:	f1                   	int1   
  1028d6:	ff                   	(bad)  
  1028d7:	ff 0a                	decl   (%rdx)
  1028d9:	00 00                	add    %al,(%rax)
  1028db:	00 00                	add    %al,(%rax)
  1028dd:	00 00                	add    %al,(%rax)
  1028df:	00 18                	add    %bl,(%rax)
  1028e1:	00 00                	add    %al,(%rax)
  1028e3:	00 bc 03 00 00 18 f1 	add    %bh,-0xee80000(%rbx,%rax,1)
  1028ea:	ff                   	(bad)  
  1028eb:	ff 59 00             	lcall  *0x0(%rcx)
  1028ee:	00 00                	add    %al,(%rax)
  1028f0:	00 4c 0e 10          	add    %cl,0x10(%rsi,%rcx,1)
  1028f4:	83 02 02             	addl   $0x2,(%rdx)
  1028f7:	46 c3                	rex.RX ret 
  1028f9:	0e                   	(bad)  
  1028fa:	08 00                	or     %al,(%rax)
  1028fc:	20 00                	and    %al,(%rax)
  1028fe:	00 00                	add    %al,(%rax)
  102900:	d8 03                	fadds  (%rbx)
  102902:	00 00                	add    %al,(%rax)
  102904:	5c                   	pop    %rsp
  102905:	f1                   	int1   
  102906:	ff                   	(bad)  
  102907:	ff 97 00 00 00 00    	call   *0x0(%rdi)
  10290d:	45 0e                	rex.RB (bad) 
  10290f:	10 86 02 49 0e 18    	adc    %al,0x180e4902(%rsi)
  102915:	83 03 02             	addl   $0x2,(%rbx)
  102918:	87 c3                	xchg   %eax,%ebx
  10291a:	0e                   	(bad)  
  10291b:	10 41 c6             	adc    %al,-0x3a(%rcx)
  10291e:	0e                   	(bad)  
  10291f:	08 20                	or     %ah,(%rax)
  102921:	00 00                	add    %al,(%rax)
  102923:	00 fc                	add    %bh,%ah
  102925:	03 00                	add    (%rax),%eax
  102927:	00 d8                	add    %bl,%al
  102929:	f1                   	int1   
  10292a:	ff                   	(bad)  
  10292b:	ff                   	(bad)  
  10292c:	7b 00                	jnp    10292e <set_timer+0x78e>
  10292e:	00 00                	add    %al,(%rax)
  102930:	00 45 0e             	add    %al,0xe(%rbp)
  102933:	10 86 02 49 0e 18    	adc    %al,0x180e4902(%rsi)
  102939:	83 03 02             	addl   $0x2,(%rbx)
  10293c:	6b c3 0e             	imul   $0xe,%ebx,%eax
  10293f:	10 41 c6             	adc    %al,-0x3a(%rcx)
  102942:	0e                   	(bad)  
  102943:	08 10                	or     %dl,(%rax)
  102945:	00 00                	add    %al,(%rax)
  102947:	00 20                	add    %ah,(%rax)
  102949:	04 00                	add    $0x0,%al
  10294b:	00 34 f2             	add    %dh,(%rdx,%rsi,8)
  10294e:	ff                   	(bad)  
  10294f:	ff 19                	lcall  *(%rcx)
  102951:	00 00                	add    %al,(%rax)
  102953:	00 00                	add    %al,(%rax)
  102955:	00 00                	add    %al,(%rax)
  102957:	00 10                	add    %dl,(%rax)
  102959:	00 00                	add    %al,(%rax)
  10295b:	00 34 04             	add    %dh,(%rsp,%rax,1)
  10295e:	00 00                	add    %al,(%rax)
  102960:	40                   	rex
  102961:	f2 ff                	repnz (bad) 
  102963:	ff 5a 00             	lcall  *0x0(%rdx)
  102966:	00 00                	add    %al,(%rax)
  102968:	00 00                	add    %al,(%rax)
  10296a:	00 00                	add    %al,(%rax)
  10296c:	10 00                	adc    %al,(%rax)
  10296e:	00 00                	add    %al,(%rax)
  102970:	48 04 00             	rex.W add $0x0,%al
  102973:	00 8c f2 ff ff 32 00 	add    %cl,0x32ffff(%rdx,%rsi,8)
  10297a:	00 00                	add    %al,(%rax)
  10297c:	00 00                	add    %al,(%rax)
  10297e:	00 00                	add    %al,(%rax)
  102980:	10 00                	adc    %al,(%rax)
  102982:	00 00                	add    %al,(%rax)
  102984:	5c                   	pop    %rsp
  102985:	04 00                	add    $0x0,%al
  102987:	00 b8 f2 ff ff 0d    	add    %bh,0xdfffff2(%rax)
  10298d:	00 00                	add    %al,(%rax)
  10298f:	00 00                	add    %al,(%rax)
  102991:	00 00                	add    %al,(%rax)
  102993:	00 10                	add    %dl,(%rax)
  102995:	00 00                	add    %al,(%rax)
  102997:	00 70 04             	add    %dh,0x4(%rax)
  10299a:	00 00                	add    %al,(%rax)
  10299c:	b4 f2                	mov    $0xf2,%ah
  10299e:	ff                   	(bad)  
  10299f:	ff 25 00 00 00 00    	jmp    *0x0(%rip)        # 1029a5 <set_timer+0x805>
  1029a5:	00 00                	add    %al,(%rax)
  1029a7:	00 14 00             	add    %dl,(%rax,%rax,1)
  1029aa:	00 00                	add    %al,(%rax)
  1029ac:	84 04 00             	test   %al,(%rax,%rax,1)
  1029af:	00 d0                	add    %dl,%al
  1029b1:	f2 ff                	repnz (bad) 
  1029b3:	ff 57 00             	call   *0x0(%rdi)
	...
  1029be:	00 00                	add    %al,(%rax)
  1029c0:	10 00                	adc    %al,(%rax)
  1029c2:	00 00                	add    %al,(%rax)
  1029c4:	9c                   	pushf  
  1029c5:	04 00                	add    $0x0,%al
  1029c7:	00 18                	add    %bl,(%rax)
  1029c9:	f3 ff                	repz (bad) 
  1029cb:	ff 41 00             	incl   0x0(%rcx)
  1029ce:	00 00                	add    %al,(%rax)
  1029d0:	00 6c 0e 10          	add    %ch,0x10(%rsi,%rcx,1)
  1029d4:	18 00                	sbb    %al,(%rax)
  1029d6:	00 00                	add    %al,(%rax)
  1029d8:	b0 04                	mov    $0x4,%al
  1029da:	00 00                	add    %al,(%rax)
  1029dc:	54                   	push   %rsp
  1029dd:	f3 ff                	repz (bad) 
  1029df:	ff                   	(bad)  
  1029e0:	7a 00                	jp     1029e2 <set_timer+0x842>
  1029e2:	00 00                	add    %al,(%rax)
  1029e4:	00 48 0e             	add    %cl,0xe(%rax)
  1029e7:	10 7b 0a             	adc    %bh,0xa(%rbx)
  1029ea:	0e                   	(bad)  
  1029eb:	08 41 0b             	or     %al,0xb(%rcx)
  1029ee:	00 00                	add    %al,(%rax)
  1029f0:	10 00                	adc    %al,(%rax)
  1029f2:	00 00                	add    %al,(%rax)
  1029f4:	cc                   	int3   
  1029f5:	04 00                	add    $0x0,%al
  1029f7:	00 b8 f3 ff ff 4e    	add    %bh,0x4efffff3(%rax)
  1029fd:	00 00                	add    %al,(%rax)
  1029ff:	00 00                	add    %al,(%rax)
  102a01:	79 0e                	jns    102a11 <set_timer+0x871>
  102a03:	10 10                	adc    %dl,(%rax)
  102a05:	00 00                	add    %al,(%rax)
  102a07:	00 e0                	add    %ah,%al
  102a09:	04 00                	add    $0x0,%al
  102a0b:	00 f4                	add    %dh,%ah
  102a0d:	f3 ff                	repz (bad) 
  102a0f:	ff 2e                	ljmp   *(%rsi)
  102a11:	00 00                	add    %al,(%rax)
  102a13:	00 00                	add    %al,(%rax)
  102a15:	00 00                	add    %al,(%rax)
  102a17:	00 20                	add    %ah,(%rax)
  102a19:	00 00                	add    %al,(%rax)
  102a1b:	00 f4                	add    %dh,%ah
  102a1d:	04 00                	add    $0x0,%al
  102a1f:	00 10                	add    %dl,(%rax)
  102a21:	f4                   	hlt    
  102a22:	ff                   	(bad)  
  102a23:	ff 71 00             	push   0x0(%rcx)
  102a26:	00 00                	add    %al,(%rax)
  102a28:	00 4d 0e             	add    %cl,0xe(%rbp)
  102a2b:	10 83 02 7e 0a c3    	adc    %al,-0x3cf581fe(%rbx)
  102a31:	0e                   	(bad)  
  102a32:	08 41 0b             	or     %al,0xb(%rcx)
  102a35:	64 0e                	fs (bad) 
  102a37:	08 c3                	or     %al,%bl
  102a39:	00 00                	add    %al,(%rax)
  102a3b:	00 10                	add    %dl,(%rax)
  102a3d:	00 00                	add    %al,(%rax)
  102a3f:	00 18                	add    %bl,(%rax)
  102a41:	05 00 00 6c f4       	add    $0xf46c0000,%eax
  102a46:	ff                   	(bad)  
  102a47:	ff 05 00 00 00 00    	incl   0x0(%rip)        # 102a4d <set_timer+0x8ad>
  102a4d:	00 00                	add    %al,(%rax)
  102a4f:	00 4c 00 00          	add    %cl,0x0(%rax,%rax,1)
  102a53:	00 2c 05 00 00 68 f4 	add    %ch,-0xb980000(,%rax,1)
  102a5a:	ff                   	(bad)  
  102a5b:	ff 4c 01 00          	decl   0x0(%rcx,%rax,1)
  102a5f:	00 00                	add    %al,(%rax)
  102a61:	46 0e                	rex.RX (bad) 
  102a63:	10 8f 02 42 0e 18    	adc    %cl,0x180e4202(%rdi)
  102a69:	8e 03                	mov    (%rbx),%es
  102a6b:	42 0e                	rex.X (bad) 
  102a6d:	20 8d 04 42 0e 28    	and    %cl,0x280e4204(%rbp)
  102a73:	8c 05 41 0e 30 86    	mov    %es,-0x79cff1bf(%rip)        # ffffffff864038ba <Not_implemented_yet+0xffffffff861fb8aa>
  102a79:	06                   	(bad)  
  102a7a:	41 0e                	rex.B (bad) 
  102a7c:	38 83 07 44 0e 60    	cmp    %al,0x600e4407(%rbx)
  102a82:	03 2f                	add    (%rdi),%ebp
  102a84:	01 0e                	add    %ecx,(%rsi)
  102a86:	38 41 c3             	cmp    %al,-0x3d(%rcx)
  102a89:	0e                   	(bad)  
  102a8a:	30 41 c6             	xor    %al,-0x3a(%rcx)
  102a8d:	0e                   	(bad)  
  102a8e:	28 42 cc             	sub    %al,-0x34(%rdx)
  102a91:	0e                   	(bad)  
  102a92:	20 42 cd             	and    %al,-0x33(%rdx)
  102a95:	0e                   	(bad)  
  102a96:	18 42 ce             	sbb    %al,-0x32(%rdx)
  102a99:	0e                   	(bad)  
  102a9a:	10 42 cf             	adc    %al,-0x31(%rdx)
  102a9d:	0e                   	(bad)  
  102a9e:	08 00                	or     %al,(%rax)
  102aa0:	54                   	push   %rsp
  102aa1:	00 00                	add    %al,(%rax)
  102aa3:	00 7c 05 00          	add    %bh,0x0(%rbp,%rax,1)
  102aa7:	00 68 f5             	add    %ch,-0xb(%rax)
  102aaa:	ff                   	(bad)  
  102aab:	ff                   	(bad)  
  102aac:	3e 01 00             	ds add %eax,(%rax)
  102aaf:	00 00                	add    %al,(%rax)
  102ab1:	46 0e                	rex.RX (bad) 
  102ab3:	10 8f 02 42 0e 18    	adc    %cl,0x180e4202(%rdi)
  102ab9:	8e 03                	mov    (%rbx),%es
  102abb:	42 0e                	rex.X (bad) 
  102abd:	20 8d 04 42 0e 28    	and    %cl,0x280e4204(%rbp)
  102ac3:	8c 05 41 0e 30 86    	mov    %es,-0x79cff1bf(%rip)        # ffffffff8640390a <Not_implemented_yet+0xffffffff861fb8fa>
  102ac9:	06                   	(bad)  
  102aca:	41 0e                	rex.B (bad) 
  102acc:	38 83 07 44 0e 40    	cmp    %al,0x400e4407(%rbx)
  102ad2:	02 91 0a 0e 38 41    	add    0x41380e0a(%rcx),%dl
  102ad8:	c3                   	ret    
  102ad9:	0e                   	(bad)  
  102ada:	30 41 c6             	xor    %al,-0x3a(%rcx)
  102add:	0e                   	(bad)  
  102ade:	28 42 cc             	sub    %al,-0x34(%rdx)
  102ae1:	0e                   	(bad)  
  102ae2:	20 42 cd             	and    %al,-0x33(%rdx)
  102ae5:	0e                   	(bad)  
  102ae6:	18 42 ce             	sbb    %al,-0x32(%rdx)
  102ae9:	0e                   	(bad)  
  102aea:	10 42 cf             	adc    %al,-0x31(%rdx)
  102aed:	0e                   	(bad)  
  102aee:	08 43 0b             	or     %al,0xb(%rbx)
  102af1:	00 00                	add    %al,(%rax)
  102af3:	00 00                	add    %al,(%rax)
  102af5:	00 00                	add    %al,(%rax)
  102af7:	00 18                	add    %bl,(%rax)
  102af9:	00 00                	add    %al,(%rax)
  102afb:	00 d4                	add    %dl,%ah
  102afd:	05 00 00 50 f6       	add    $0xf6500000,%eax
  102b02:	ff                   	(bad)  
  102b03:	ff 4a 00             	decl   0x0(%rdx)
  102b06:	00 00                	add    %al,(%rax)
  102b08:	00 48 0e             	add    %cl,0xe(%rax)
  102b0b:	10 61 0a             	adc    %ah,0xa(%rcx)
  102b0e:	0e                   	(bad)  
  102b0f:	08 45 0b             	or     %al,0xb(%rbp)
  102b12:	00 00                	add    %al,(%rax)
  102b14:	18 00                	sbb    %al,(%rax)
  102b16:	00 00                	add    %al,(%rax)
  102b18:	f0 05 00 00 84 f6    	lock add $0xf6840000,%eax
  102b1e:	ff                   	(bad)  
  102b1f:	ff                   	(bad)  
  102b20:	79 00                	jns    102b22 <set_timer+0x982>
  102b22:	00 00                	add    %al,(%rax)
  102b24:	00 4d 0e             	add    %cl,0xe(%rbp)
  102b27:	10 02                	adc    %al,(%rdx)
  102b29:	4f 0a 0e             	rex.WRXB or (%r14),%r9b
  102b2c:	08 41 0b             	or     %al,0xb(%rcx)
	...

Disassembly of section .rodata.str1.8:

0000000000102b30 <.rodata.str1.8>:
  102b30:	0a 20                	or     (%rax),%ah
  102b32:	43                   	rex.XB
  102b33:	4f 50                	rex.WRXB push %r8
  102b35:	52                   	push   %rdx
  102b36:	4f                   	rex.WRXB
  102b37:	43                   	rex.XB
  102b38:	45 53                	rex.RB push %r11
  102b3a:	53                   	push   %rbx
  102b3b:	4f 52                	rex.WRXB push %r10
  102b3d:	20 53 45             	and    %dl,0x45(%rbx)
  102b40:	47                   	rex.RXB
  102b41:	4d                   	rex.WRB
  102b42:	45                   	rex.RB
  102b43:	4e 54                	rex.WRX push %rsp
  102b45:	20 4f 56             	and    %cl,0x56(%rdi)
  102b48:	45 52                	rex.RB push %r10
  102b4a:	52                   	push   %rdx
  102b4b:	55                   	push   %rbp
  102b4c:	4e 0a 00             	rex.WRX or (%rax),%r8b
  102b4f:	00 0a                	add    %cl,(%rdx)
  102b51:	20 58 38             	and    %bl,0x38(%rax)
  102b54:	37                   	(bad)  
  102b55:	20 46 4c             	and    %al,0x4c(%rsi)
  102b58:	4f                   	rex.WRXB
  102b59:	41 54                	push   %r12
  102b5b:	49                   	rex.WB
  102b5c:	4e                   	rex.WRX
  102b5d:	47 20 50 4f          	rex.RXB and %r10b,0x4f(%r8)
  102b61:	49                   	rex.WB
  102b62:	4e 54                	rex.WRX push %rsp
  102b64:	20 45 58             	and    %al,0x58(%rbp)
  102b67:	43                   	rex.XB
  102b68:	45 50                	rex.RB push %r8
  102b6a:	54                   	push   %rsp
  102b6b:	49                   	rex.WB
  102b6c:	4f                   	rex.WRXB
  102b6d:	4e 0a 00             	rex.WRX or (%rax),%r8b
  102b70:	0a 20                	or     (%rax),%ah
  102b72:	53                   	push   %rbx
  102b73:	49                   	rex.WB
  102b74:	4d                   	rex.WRB
  102b75:	44 20 46 4c          	and    %r8b,0x4c(%rsi)
  102b79:	4f                   	rex.WRXB
  102b7a:	41 54                	push   %r12
  102b7c:	49                   	rex.WB
  102b7d:	4e                   	rex.WRX
  102b7e:	47 20 50 4f          	rex.RXB and %r10b,0x4f(%r8)
  102b82:	49                   	rex.WB
  102b83:	4e 54                	rex.WRX push %rsp
  102b85:	20 45 58             	and    %al,0x58(%rbp)
  102b88:	43                   	rex.XB
  102b89:	45 50                	rex.RB push %r8
  102b8b:	54                   	push   %rsp
  102b8c:	49                   	rex.WB
  102b8d:	4f                   	rex.WRXB
  102b8e:	4e 0a 00             	rex.WRX or (%rax),%r8b
  102b91:	00 00                	add    %al,(%rax)
  102b93:	00 00                	add    %al,(%rax)
  102b95:	00 00                	add    %al,(%rax)
  102b97:	00 0a                	add    %cl,(%rdx)
  102b99:	20 48 59             	and    %cl,0x59(%rax)
  102b9c:	50                   	push   %rax
  102b9d:	45 52                	rex.RB push %r10
  102b9f:	56                   	push   %rsi
  102ba0:	49 53                	rex.WB push %r11
  102ba2:	4f 52                	rex.WRXB push %r10
  102ba4:	20 49 4e             	and    %cl,0x4e(%rcx)
  102ba7:	4a                   	rex.WX
  102ba8:	45                   	rex.RB
  102ba9:	43 54                	rex.XB push %r12
  102bab:	49                   	rex.WB
  102bac:	4f                   	rex.WRXB
  102bad:	4e 20 45 58          	rex.WRX and %r8b,0x58(%rbp)
  102bb1:	43                   	rex.XB
  102bb2:	45 50                	rex.RB push %r8
  102bb4:	54                   	push   %rsp
  102bb5:	49                   	rex.WB
  102bb6:	4f                   	rex.WRXB
  102bb7:	4e 0a 00             	rex.WRX or (%rax),%r8b
  102bba:	00 00                	add    %al,(%rax)
  102bbc:	00 00                	add    %al,(%rax)
  102bbe:	00 00                	add    %al,(%rax)
  102bc0:	0a 20                	or     (%rax),%ah
  102bc2:	56                   	push   %rsi
  102bc3:	4d                   	rex.WRB
  102bc4:	4d 20 43 4f          	rex.WRB and %r8b,0x4f(%r11)
  102bc8:	4d                   	rex.WRB
  102bc9:	4d 55                	rex.WRB push %r13
  102bcb:	4e                   	rex.WRX
  102bcc:	49                   	rex.WB
  102bcd:	43                   	rex.XB
  102bce:	41 54                	push   %r12
  102bd0:	49                   	rex.WB
  102bd1:	4f                   	rex.WRXB
  102bd2:	4e 20 45 58          	rex.WRX and %r8b,0x58(%rbp)
  102bd6:	43                   	rex.XB
  102bd7:	45 50                	rex.RB push %r8
  102bd9:	54                   	push   %rsp
  102bda:	49                   	rex.WB
  102bdb:	4f                   	rex.WRXB
  102bdc:	4e 0a 00             	rex.WRX or (%rax),%r8b
  102bdf:	00 45 52             	add    %al,0x52(%rbp)
  102be2:	52                   	push   %rdx
  102be3:	4f 52                	rex.WRXB push %r10
  102be5:	3a 20                	cmp    (%rax),%ah
  102be7:	52                   	push   %rdx
  102be8:	53                   	push   %rbx
  102be9:	44 50                	rex.R push %rax
  102beb:	5f                   	pop    %rdi
  102bec:	74 20                	je     102c0e <set_timer+0xa6e>
  102bee:	63 68 65             	movsxd 0x65(%rax),%ebp
  102bf1:	63 6b 73             	movsxd 0x73(%rbx),%ebp
  102bf4:	75 6d                	jne    102c63 <set_timer+0xac3>
  102bf6:	20 69 73             	and    %ch,0x73(%rcx)
  102bf9:	20 6e 6f             	and    %ch,0x6f(%rsi)
  102bfc:	74 20                	je     102c1e <set_timer+0xa7e>
  102bfe:	76 61                	jbe    102c61 <set_timer+0xac1>
  102c00:	6c                   	insb   (%dx),%es:(%rdi)
  102c01:	69 64 00 00 00 00 00 	imul   $0x45000000,0x0(%rax,%rax,1),%esp
  102c08:	45 
  102c09:	52                   	push   %rdx
  102c0a:	52                   	push   %rdx
  102c0b:	4f 52                	rex.WRXB push %r10
  102c0d:	3a 20                	cmp    (%rax),%ah
  102c0f:	58                   	pop    %rax
  102c10:	53                   	push   %rbx
  102c11:	44 50                	rex.R push %rax
  102c13:	5f                   	pop    %rdi
  102c14:	74 20                	je     102c36 <set_timer+0xa96>
  102c16:	63 68 65             	movsxd 0x65(%rax),%ebp
  102c19:	63 6b 73             	movsxd 0x73(%rbx),%ebp
  102c1c:	75 6d                	jne    102c8b <set_timer+0xaeb>
  102c1e:	20 69 73             	and    %ch,0x73(%rcx)
  102c21:	20 6e 6f             	and    %ch,0x6f(%rsi)
  102c24:	74 20                	je     102c46 <set_timer+0xaa6>
  102c26:	76 61                	jbe    102c89 <set_timer+0xae9>
  102c28:	6c                   	insb   (%dx),%es:(%rdi)
  102c29:	69 64 00 00 00 00 00 	imul   $0x45000000,0x0(%rax,%rax,1),%esp
  102c30:	45 
  102c31:	52                   	push   %rdx
  102c32:	52                   	push   %rdx
  102c33:	4f 52                	rex.WRXB push %r10
  102c35:	3a 20                	cmp    (%rax),%ah
  102c37:	58                   	pop    %rax
  102c38:	53                   	push   %rbx
  102c39:	44 54                	rex.R push %rsp
  102c3b:	20 63 68             	and    %ah,0x68(%rbx)
  102c3e:	65 63 6b 73          	movsxd %gs:0x73(%rbx),%ebp
  102c42:	75 6d                	jne    102cb1 <IDTP+0x1>
  102c44:	20 69 73             	and    %ch,0x73(%rcx)
  102c47:	20 6e 6f             	and    %ch,0x6f(%rsi)
  102c4a:	74 20                	je     102c6c <set_timer+0xacc>
  102c4c:	76 61                	jbe    102caf <GDT.Pointer+0x5>
  102c4e:	6c                   	insb   (%dx),%es:(%rdi)
  102c4f:	69 64 00 00 00 00 00 	imul   $0x0,0x0(%rax,%rax,1),%esp
  102c56:	00 
  102c57:	00 0a                	add    %cl,(%rdx)
  102c59:	45 52                	rex.RB push %r10
  102c5b:	52                   	push   %rdx
  102c5c:	4f 52                	rex.WRXB push %r10
  102c5e:	3a 20                	cmp    (%rax),%ah
  102c60:	63 61 6e             	movsxd 0x6e(%rcx),%esp
  102c63:	6e                   	outsb  %ds:(%rsi),(%dx)
  102c64:	6f                   	outsl  %ds:(%rsi),(%dx)
  102c65:	74 20                	je     102c87 <set_timer+0xae7>
  102c67:	70 61                	jo     102cca <hyphen_char+0xa>
  102c69:	72 73                	jb     102cde <point_char+0xe>
  102c6b:	65 20 4d 41          	and    %cl,%gs:0x41(%rbp)
  102c6f:	44 54                	rex.R push %rsp
  102c71:	20 65 6e             	and    %ah,0x6e(%rbp)
  102c74:	74 72                	je     102ce8 <semicolon_char+0x8>
  102c76:	79 20                	jns    102c98 <GDT.Code>
  102c78:	6f                   	outsl  %ds:(%rsi),(%dx)
  102c79:	66 20 74 79 70       	data16 and %dh,0x70(%rcx,%rdi,2)
  102c7e:	65 3a 20             	cmp    %gs:(%rax),%ah
	...

Disassembly of section .data:

0000000000102c90 <end_ctors>:
	...

0000000000102c98 <GDT.Code>:
  102c98:	00 00                	add    %al,(%rax)
  102c9a:	00 00                	add    %al,(%rax)
  102c9c:	00 9a 20 00 00 00    	add    %bl,0x20(%rdx)
  102ca2:	00 00                	add    %al,(%rax)
  102ca4:	00 92 00 00 00 00    	add    %dl,0x0(%rdx)

0000000000102caa <GDT.Pointer>:
  102caa:	19 00                	sbb    %eax,(%rax)
  102cac:	90                   	nop
  102cad:	2c 10                	sub    $0x10,%al
	...

0000000000102cb0 <IDTP>:
  102cb0:	ff 0f                	decl   (%rdi)
  102cb2:	00 70 20             	add    %dh,0x20(%rax)
	...

0000000000102cc0 <hyphen_char>:
  102cc0:	00 00                	add    %al,(%rax)
  102cc2:	00 00                	add    %al,(%rax)
  102cc4:	00 00                	add    %al,(%rax)
  102cc6:	00 7c 00 00          	add    %bh,0x0(%rax,%rax,1)
  102cca:	00 00                	add    %al,(%rax)
  102ccc:	00 00                	add    %al,(%rax)
	...

0000000000102cd0 <point_char>:
	...
  102cd8:	00 00                	add    %al,(%rax)
  102cda:	18 18                	sbb    %bl,(%rax)
  102cdc:	00 00                	add    %al,(%rax)
	...

0000000000102ce0 <semicolon_char>:
  102ce0:	00 00                	add    %al,(%rax)
  102ce2:	00 00                	add    %al,(%rax)
  102ce4:	00 00                	add    %al,(%rax)
  102ce6:	06                   	(bad)  
  102ce7:	06                   	(bad)  
  102ce8:	00 00                	add    %al,(%rax)
  102cea:	06                   	(bad)  
  102ceb:	06                   	(bad)  
  102cec:	0c 00                	or     $0x0,%al
	...

0000000000102cf0 <colon_char>:
  102cf0:	00 00                	add    %al,(%rax)
  102cf2:	00 00                	add    %al,(%rax)
  102cf4:	00 00                	add    %al,(%rax)
  102cf6:	06                   	(bad)  
  102cf7:	06                   	(bad)  
  102cf8:	00 00                	add    %al,(%rax)
  102cfa:	06                   	(bad)  
  102cfb:	06                   	(bad)  
  102cfc:	00 00                	add    %al,(%rax)
	...

0000000000102d00 <nine_char>:
  102d00:	00 00                	add    %al,(%rax)
  102d02:	00 7c c6 c6          	add    %bh,-0x3a(%rsi,%rax,8)
  102d06:	c6                   	(bad)  
  102d07:	7c 06                	jl     102d0f <nine_char+0xf>
  102d09:	06                   	(bad)  
  102d0a:	06                   	(bad)  
  102d0b:	0c 78                	or     $0x78,%al
  102d0d:	00 00                	add    %al,(%rax)
	...

0000000000102d10 <eight_char>:
  102d10:	00 00                	add    %al,(%rax)
  102d12:	00 7c c6 c6          	add    %bh,-0x3a(%rsi,%rax,8)
  102d16:	c6                   	(bad)  
  102d17:	7c c6                	jl     102cdf <point_char+0xf>
  102d19:	c6 c6 c6             	mov    $0xc6,%dh
  102d1c:	7c 00                	jl     102d1e <eight_char+0xe>
	...

0000000000102d20 <seven_char>:
  102d20:	00 00                	add    %al,(%rax)
  102d22:	00 fe                	add    %bh,%dh
  102d24:	c6 06 06             	movb   $0x6,(%rsi)
  102d27:	0c 18                	or     $0x18,%al
  102d29:	30 30                	xor    %dh,(%rax)
  102d2b:	30 30                	xor    %dh,(%rax)
  102d2d:	00 00                	add    %al,(%rax)
	...

0000000000102d30 <six_char>:
  102d30:	00 00                	add    %al,(%rax)
  102d32:	00 38                	add    %bh,(%rax)
  102d34:	60                   	(bad)  
  102d35:	c0 c0 fc             	rol    $0xfc,%al
  102d38:	c6 c6 c6             	mov    $0xc6,%dh
  102d3b:	c6                   	(bad)  
  102d3c:	7c 00                	jl     102d3e <six_char+0xe>
	...

0000000000102d40 <five_char>:
  102d40:	00 00                	add    %al,(%rax)
  102d42:	00 fe                	add    %bh,%dh
  102d44:	c0 c0 c0             	rol    $0xc0,%al
  102d47:	fc                   	cld    
  102d48:	06                   	(bad)  
  102d49:	06                   	(bad)  
  102d4a:	06                   	(bad)  
  102d4b:	c6                   	(bad)  
  102d4c:	7c 00                	jl     102d4e <five_char+0xe>
	...

0000000000102d50 <four_char>:
  102d50:	00 00                	add    %al,(%rax)
  102d52:	00 0c 1c             	add    %cl,(%rsp,%rbx,1)
  102d55:	3c 6c                	cmp    $0x6c,%al
  102d57:	cc                   	int3   
  102d58:	cc                   	int3   
  102d59:	fe 0c 0c             	decb   (%rsp,%rcx,1)
  102d5c:	1e                   	(bad)  
  102d5d:	00 00                	add    %al,(%rax)
	...

0000000000102d60 <three_char>:
  102d60:	00 00                	add    %al,(%rax)
  102d62:	00 7c c6 06          	add    %bh,0x6(%rsi,%rax,8)
  102d66:	06                   	(bad)  
  102d67:	3c 06                	cmp    $0x6,%al
  102d69:	06                   	(bad)  
  102d6a:	06                   	(bad)  
  102d6b:	c6                   	(bad)  
  102d6c:	7c 00                	jl     102d6e <three_char+0xe>
	...

0000000000102d70 <two_char>:
  102d70:	00 00                	add    %al,(%rax)
  102d72:	00 7c c6 06          	add    %bh,0x6(%rsi,%rax,8)
  102d76:	0c 18                	or     $0x18,%al
  102d78:	30 60 c0             	xor    %ah,-0x40(%rax)
  102d7b:	c6                   	(bad)  
  102d7c:	fe 00                	incb   (%rax)
	...

0000000000102d80 <one_char>:
  102d80:	00 00                	add    %al,(%rax)
  102d82:	00 18                	add    %bl,(%rax)
  102d84:	38 78 18             	cmp    %bh,0x18(%rax)
  102d87:	18 18                	sbb    %bl,(%rax)
  102d89:	18 18                	sbb    %bl,(%rax)
  102d8b:	18 7e 00             	sbb    %bh,0x0(%rsi)
	...

0000000000102d90 <zero_char>:
  102d90:	00 00                	add    %al,(%rax)
  102d92:	00 38                	add    %bh,(%rax)
  102d94:	6c                   	insb   (%dx),%es:(%rdi)
  102d95:	c6 c6 d6             	mov    $0xd6,%dh
  102d98:	d6                   	(bad)  
  102d99:	c6 c6 6c             	mov    $0x6c,%dh
  102d9c:	38 00                	cmp    %al,(%rax)
	...

0000000000102da0 <z_char>:
  102da0:	00 00                	add    %al,(%rax)
  102da2:	00 00                	add    %al,(%rax)
  102da4:	00 00                	add    %al,(%rax)
  102da6:	fe cc                	dec    %ah
  102da8:	18 30                	sbb    %dh,(%rax)
  102daa:	60                   	(bad)  
  102dab:	c6                   	(bad)  
  102dac:	fe 00                	incb   (%rax)
	...

0000000000102db0 <y_char>:
  102db0:	00 00                	add    %al,(%rax)
  102db2:	00 00                	add    %al,(%rax)
  102db4:	00 00                	add    %al,(%rax)
  102db6:	c6 c6 c6             	mov    $0xc6,%dh
  102db9:	c6 c6 c6             	mov    $0xc6,%dh
  102dbc:	7e 06                	jle    102dc4 <x_char+0x4>
  102dbe:	0c f8                	or     $0xf8,%al

0000000000102dc0 <x_char>:
  102dc0:	00 00                	add    %al,(%rax)
  102dc2:	00 00                	add    %al,(%rax)
  102dc4:	00 00                	add    %al,(%rax)
  102dc6:	c6                   	(bad)  
  102dc7:	6c                   	insb   (%dx),%es:(%rdi)
  102dc8:	38 38                	cmp    %bh,(%rax)
  102dca:	38 6c c6 00          	cmp    %ch,0x0(%rsi,%rax,8)
	...

0000000000102dd0 <w_char>:
  102dd0:	00 00                	add    %al,(%rax)
  102dd2:	00 00                	add    %al,(%rax)
  102dd4:	00 00                	add    %al,(%rax)
  102dd6:	c6 c6 d6             	mov    $0xd6,%dh
  102dd9:	d6                   	(bad)  
  102dda:	d6                   	(bad)  
  102ddb:	fe                   	(bad)  
  102ddc:	6c                   	insb   (%dx),%es:(%rdi)
  102ddd:	00 00                	add    %al,(%rax)
	...

0000000000102de0 <v_char>:
  102de0:	00 00                	add    %al,(%rax)
  102de2:	00 00                	add    %al,(%rax)
  102de4:	00 00                	add    %al,(%rax)
  102de6:	c6 c6 c6             	mov    $0xc6,%dh
  102de9:	c6 c6 6c             	mov    $0x6c,%dh
  102dec:	38 00                	cmp    %al,(%rax)
	...

0000000000102df0 <u_char>:
  102df0:	00 00                	add    %al,(%rax)
  102df2:	00 00                	add    %al,(%rax)
  102df4:	00 00                	add    %al,(%rax)
  102df6:	cc                   	int3   
  102df7:	cc                   	int3   
  102df8:	cc                   	int3   
  102df9:	cc                   	int3   
  102dfa:	cc                   	int3   
  102dfb:	cc                   	int3   
  102dfc:	76 00                	jbe    102dfe <u_char+0xe>
	...

0000000000102e00 <t_char>:
  102e00:	00 00                	add    %al,(%rax)
  102e02:	00 10                	add    %dl,(%rax)
  102e04:	30 30                	xor    %dh,(%rax)
  102e06:	fc                   	cld    
  102e07:	30 30                	xor    %dh,(%rax)
  102e09:	30 30                	xor    %dh,(%rax)
  102e0b:	36 1c 00             	ss sbb $0x0,%al
	...

0000000000102e10 <s_char>:
  102e10:	00 00                	add    %al,(%rax)
  102e12:	00 00                	add    %al,(%rax)
  102e14:	00 00                	add    %al,(%rax)
  102e16:	7c c6                	jl     102dde <w_char+0xe>
  102e18:	60                   	(bad)  
  102e19:	38 0c c6             	cmp    %cl,(%rsi,%rax,8)
  102e1c:	7c 00                	jl     102e1e <s_char+0xe>
	...

0000000000102e20 <r_char>:
  102e20:	00 00                	add    %al,(%rax)
  102e22:	00 00                	add    %al,(%rax)
  102e24:	00 00                	add    %al,(%rax)
  102e26:	dc 76 66             	fdivl  0x66(%rsi)
  102e29:	60                   	(bad)  
  102e2a:	60                   	(bad)  
  102e2b:	60                   	(bad)  
  102e2c:	f0 00 00             	lock add %al,(%rax)
	...

0000000000102e30 <q_char>:
  102e30:	00 00                	add    %al,(%rax)
  102e32:	00 00                	add    %al,(%rax)
  102e34:	00 00                	add    %al,(%rax)
  102e36:	76 cc                	jbe    102e04 <t_char+0x4>
  102e38:	cc                   	int3   
  102e39:	cc                   	int3   
  102e3a:	cc                   	int3   
  102e3b:	cc                   	int3   
  102e3c:	7c 0c                	jl     102e4a <p_char+0xa>
  102e3e:	0c 1e                	or     $0x1e,%al

0000000000102e40 <p_char>:
  102e40:	00 00                	add    %al,(%rax)
  102e42:	00 00                	add    %al,(%rax)
  102e44:	00 00                	add    %al,(%rax)
  102e46:	dc 66 66             	fsubl  0x66(%rsi)
  102e49:	66 66 66 7c 60       	data16 data16 data16 jl 102eae <j_char+0xe>
  102e4e:	60                   	(bad)  
  102e4f:	f0               	lock add %al,(%rax)

0000000000102e50 <o_char>:
  102e50:	00 00                	add    %al,(%rax)
  102e52:	00 00                	add    %al,(%rax)
  102e54:	00 00                	add    %al,(%rax)
  102e56:	7c c6                	jl     102e1e <s_char+0xe>
  102e58:	c6 c6 c6             	mov    $0xc6,%dh
  102e5b:	c6                   	(bad)  
  102e5c:	7c 00                	jl     102e5e <o_char+0xe>
	...

0000000000102e60 <n_char>:
  102e60:	00 00                	add    %al,(%rax)
  102e62:	00 00                	add    %al,(%rax)
  102e64:	00 00                	add    %al,(%rax)
  102e66:	dc 66 66             	fsubl  0x66(%rsi)
  102e69:	66 66 66 66 00 00    	data16 data16 data16 data16 add %al,(%rax)
	...

0000000000102e70 <m_char>:
  102e70:	00 00                	add    %al,(%rax)
  102e72:	00 00                	add    %al,(%rax)
  102e74:	00 00                	add    %al,(%rax)
  102e76:	ec                   	in     (%dx),%al
  102e77:	fe                   	(bad)  
  102e78:	d6                   	(bad)  
  102e79:	d6                   	(bad)  
  102e7a:	d6                   	(bad)  
  102e7b:	d6                   	(bad)  
  102e7c:	c6 00 00             	movb   $0x0,(%rax)
	...

0000000000102e80 <l_char>:
  102e80:	00 00                	add    %al,(%rax)
  102e82:	00 38                	add    %bh,(%rax)
  102e84:	18 18                	sbb    %bl,(%rax)
  102e86:	18 18                	sbb    %bl,(%rax)
  102e88:	18 18                	sbb    %bl,(%rax)
  102e8a:	18 18                	sbb    %bl,(%rax)
  102e8c:	3c 00                	cmp    $0x0,%al
	...

0000000000102e90 <k_char>:
  102e90:	00 00                	add    %al,(%rax)
  102e92:	00 e0                	add    %ah,%al
  102e94:	60                   	(bad)  
  102e95:	60                   	(bad)  
  102e96:	66 6c                	data16 insb (%dx),%es:(%rdi)
  102e98:	78 78                	js     102f12 <c_char+0x2>
  102e9a:	6c                   	insb   (%dx),%es:(%rdi)
  102e9b:	66 e6 00             	data16 out %al,$0x0
	...

0000000000102ea0 <j_char>:
  102ea0:	00 00                	add    %al,(%rax)
  102ea2:	00 06                	add    %al,(%rsi)
  102ea4:	06                   	(bad)  
  102ea5:	00 0e                	add    %cl,(%rsi)
  102ea7:	06                   	(bad)  
  102ea8:	06                   	(bad)  
  102ea9:	06                   	(bad)  
  102eaa:	06                   	(bad)  
  102eab:	06                   	(bad)  
  102eac:	06                   	(bad)  
  102ead:	c6 c6 7c             	mov    $0x7c,%dh

0000000000102eb0 <i_char>:
  102eb0:	00 00                	add    %al,(%rax)
  102eb2:	00 18                	add    %bl,(%rax)
  102eb4:	18 00                	sbb    %al,(%rax)
  102eb6:	38 18                	cmp    %bl,(%rax)
  102eb8:	18 18                	sbb    %bl,(%rax)
  102eba:	18 18                	sbb    %bl,(%rax)
  102ebc:	3c 00                	cmp    $0x0,%al
	...

0000000000102ec0 <h_char>:
  102ec0:	00 00                	add    %al,(%rax)
  102ec2:	00 e0                	add    %ah,%al
  102ec4:	60                   	(bad)  
  102ec5:	60                   	(bad)  
  102ec6:	6c                   	insb   (%dx),%es:(%rdi)
  102ec7:	76 66                	jbe    102f2f <b_char+0xf>
  102ec9:	66 66 66 e6 00       	data16 data16 data16 out %al,$0x0
	...

0000000000102ed0 <g_char>:
  102ed0:	00 00                	add    %al,(%rax)
  102ed2:	00 00                	add    %al,(%rax)
  102ed4:	00 00                	add    %al,(%rax)
  102ed6:	76 cc                	jbe    102ea4 <j_char+0x4>
  102ed8:	cc                   	int3   
  102ed9:	cc                   	int3   
  102eda:	cc                   	int3   
  102edb:	cc                   	int3   
  102edc:	7c 0c                	jl     102eea <f_char+0xa>
  102ede:	cc                   	int3   
  102edf:	78                 	js     102ee1 <f_char+0x1>

0000000000102ee0 <f_char>:
  102ee0:	00 00                	add    %al,(%rax)
  102ee2:	00 1c 36             	add    %bl,(%rsi,%rsi,1)
  102ee5:	32 30                	xor    (%rax),%dh
  102ee7:	78 30                	js     102f19 <c_char+0x9>
  102ee9:	30 30                	xor    %dh,(%rax)
  102eeb:	30 78 00             	xor    %bh,0x0(%rax)
	...

0000000000102ef0 <e_char>:
  102ef0:	00 00                	add    %al,(%rax)
  102ef2:	00 00                	add    %al,(%rax)
  102ef4:	00 00                	add    %al,(%rax)
  102ef6:	7c c6                	jl     102ebe <i_char+0xe>
  102ef8:	fe c0                	inc    %al
  102efa:	c0 c6 7c             	rol    $0x7c,%dh
  102efd:	00 00                	add    %al,(%rax)
	...

0000000000102f00 <d_char>:
  102f00:	00 00                	add    %al,(%rax)
  102f02:	00 1c 0c             	add    %bl,(%rsp,%rcx,1)
  102f05:	0c 3c                	or     $0x3c,%al
  102f07:	6c                   	insb   (%dx),%es:(%rdi)
  102f08:	cc                   	int3   
  102f09:	cc                   	int3   
  102f0a:	cc                   	int3   
  102f0b:	cc                   	int3   
  102f0c:	76 00                	jbe    102f0e <d_char+0xe>
	...

0000000000102f10 <c_char>:
  102f10:	00 00                	add    %al,(%rax)
  102f12:	00 00                	add    %al,(%rax)
  102f14:	00 00                	add    %al,(%rax)
  102f16:	7c c6                	jl     102ede <g_char+0xe>
  102f18:	c0 c0 c0             	rol    $0xc0,%al
  102f1b:	c6                   	(bad)  
  102f1c:	7c 00                	jl     102f1e <c_char+0xe>
	...

0000000000102f20 <b_char>:
  102f20:	00 00                	add    %al,(%rax)
  102f22:	00 e0                	add    %ah,%al
  102f24:	60                   	(bad)  
  102f25:	60                   	(bad)  
  102f26:	78 6c                	js     102f94 <U_char+0x4>
  102f28:	66 66 66 66 7c 00    	data16 data16 data16 data16 jl 102f2e <b_char+0xe>
	...

0000000000102f30 <a_char>:
  102f30:	00 00                	add    %al,(%rax)
  102f32:	00 00                	add    %al,(%rax)
  102f34:	00 00                	add    %al,(%rax)
  102f36:	78 0c                	js     102f44 <Z_char+0x4>
  102f38:	7c cc                	jl     102f06 <d_char+0x6>
  102f3a:	cc                   	int3   
  102f3b:	cc                   	int3   
  102f3c:	76 00                	jbe    102f3e <a_char+0xe>
	...

0000000000102f40 <Z_char>:
  102f40:	00 00                	add    %al,(%rax)
  102f42:	00 fe                	add    %bh,%dh
  102f44:	c6 86 0c 18 30 60 c2 	movb   $0xc2,0x6030180c(%rsi)
  102f4b:	c6                   	(bad)  
  102f4c:	fe 00                	incb   (%rax)
	...

0000000000102f50 <Y_char>:
  102f50:	00 00                	add    %al,(%rax)
  102f52:	00 c6                	add    %al,%dh
  102f54:	c6 c6 c6             	mov    $0xc6,%dh
  102f57:	c6                   	(bad)  
  102f58:	7c 30                	jl     102f8a <V_char+0xa>
  102f5a:	30 30                	xor    %dh,(%rax)
  102f5c:	78 00                	js     102f5e <Y_char+0xe>
	...

0000000000102f60 <X_char>:
  102f60:	00 00                	add    %al,(%rax)
  102f62:	00 c6                	add    %al,%dh
  102f64:	c6                   	(bad)  
  102f65:	6c                   	insb   (%dx),%es:(%rdi)
  102f66:	7c 38                	jl     102fa0 <T_char>
  102f68:	38 7c 6c c6          	cmp    %bh,-0x3a(%rsp,%rbp,2)
  102f6c:	c6 00 00             	movb   $0x0,(%rax)
	...

0000000000102f70 <W_char>:
  102f70:	00 00                	add    %al,(%rax)
  102f72:	00 c6                	add    %al,%dh
  102f74:	c6 c6 c6             	mov    $0xc6,%dh
  102f77:	d6                   	(bad)  
  102f78:	d6                   	(bad)  
  102f79:	d6                   	(bad)  
  102f7a:	fe                   	(bad)  
  102f7b:	ee                   	out    %al,(%dx)
  102f7c:	6c                   	insb   (%dx),%es:(%rdi)
  102f7d:	00 00                	add    %al,(%rax)
	...

0000000000102f80 <V_char>:
  102f80:	00 00                	add    %al,(%rax)
  102f82:	00 c6                	add    %al,%dh
  102f84:	c6 c6 c6             	mov    $0xc6,%dh
  102f87:	c6 c6 c6             	mov    $0xc6,%dh
  102f8a:	6c                   	insb   (%dx),%es:(%rdi)
  102f8b:	38 10                	cmp    %dl,(%rax)
  102f8d:	00 00                	add    %al,(%rax)
	...

0000000000102f90 <U_char>:
  102f90:	00 00                	add    %al,(%rax)
  102f92:	00 c6                	add    %al,%dh
  102f94:	c6 c6 c6             	mov    $0xc6,%dh
  102f97:	c6 c6 c6             	mov    $0xc6,%dh
  102f9a:	c6 c6 7c             	mov    $0x7c,%dh
  102f9d:	00 00                	add    %al,(%rax)
	...

0000000000102fa0 <T_char>:
  102fa0:	00 00                	add    %al,(%rax)
  102fa2:	00 7e 7e             	add    %bh,0x7e(%rsi)
  102fa5:	5a                   	pop    %rdx
  102fa6:	18 18                	sbb    %bl,(%rax)
  102fa8:	18 18                	sbb    %bl,(%rax)
  102faa:	18 18                	sbb    %bl,(%rax)
  102fac:	3c 00                	cmp    $0x0,%al
	...

0000000000102fb0 <S_char>:
  102fb0:	00 00                	add    %al,(%rax)
  102fb2:	00 7c c6 c6          	add    %bh,-0x3a(%rsi,%rax,8)
  102fb6:	60                   	(bad)  
  102fb7:	38 0c 06             	cmp    %cl,(%rsi,%rax,1)
  102fba:	c6 c6 7c             	mov    $0x7c,%dh
  102fbd:	00 00                	add    %al,(%rax)
	...

0000000000102fc0 <R_char>:
  102fc0:	00 00                	add    %al,(%rax)
  102fc2:	00 fc                	add    %bh,%ah
  102fc4:	66 66 66 7c 6c       	data16 data16 data16 jl 103035 <K_char+0x5>
  102fc9:	66 66 66 f6 00 00    	data16 data16 data16 testb $0x0,(%rax)
	...

0000000000102fd0 <Q_char>:
  102fd0:	00 00                	add    %al,(%rax)
  102fd2:	00 7c c6 c6          	add    %bh,-0x3a(%rsi,%rax,8)
  102fd6:	c6 c6 c6             	mov    $0xc6,%dh
  102fd9:	c6                   	(bad)  
  102fda:	d6                   	(bad)  
  102fdb:	de 7c 0c 0e          	fidivrs 0xe(%rsp,%rcx,1)
	...

0000000000102fe0 <P_char>:
  102fe0:	00 00                	add    %al,(%rax)
  102fe2:	00 fc                	add    %bh,%ah
  102fe4:	66 66 66 7c 60       	data16 data16 data16 jl 103049 <J_char+0x9>
  102fe9:	60                   	(bad)  
  102fea:	60                   	(bad)  
  102feb:	60                   	(bad)  
  102fec:	f0 00 00             	lock add %al,(%rax)
	...

0000000000102ff0 <O_char>:
  102ff0:	00 00                	add    %al,(%rax)
  102ff2:	00 7c c6 c6          	add    %bh,-0x3a(%rsi,%rax,8)
  102ff6:	c6 c6 c6             	mov    $0xc6,%dh
  102ff9:	c6 c6 c6             	mov    $0xc6,%dh
  102ffc:	7c 00                	jl     102ffe <O_char+0xe>
	...

0000000000103000 <N_char>:
  103000:	00 00                	add    %al,(%rax)
  103002:	00 c6                	add    %al,%dh
  103004:	e6 f6                	out    %al,$0xf6
  103006:	fe                   	(bad)  
  103007:	de ce                	fmulp  %st,%st(6)
  103009:	c6 c6 c6             	mov    $0xc6,%dh
  10300c:	c6 00 00             	movb   $0x0,(%rax)
	...

0000000000103010 <M_char>:
  103010:	00 00                	add    %al,(%rax)
  103012:	00 c6                	add    %al,%dh
  103014:	ee                   	out    %al,(%dx)
  103015:	fe                   	(bad)  
  103016:	fe                   	(bad)  
  103017:	d6                   	(bad)  
  103018:	c6 c6 c6             	mov    $0xc6,%dh
  10301b:	c6 c6 00             	mov    $0x0,%dh
	...

0000000000103020 <L_char>:
  103020:	00 00                	add    %al,(%rax)
  103022:	00 78 60             	add    %bh,0x60(%rax)
  103025:	60                   	(bad)  
  103026:	60                   	(bad)  
  103027:	60                   	(bad)  
  103028:	60                   	(bad)  
  103029:	60                   	(bad)  
  10302a:	62 66 fe 00 00       	(bad)  
	...

0000000000103030 <K_char>:
  103030:	00 00                	add    %al,(%rax)
  103032:	00 e6                	add    %ah,%dh
  103034:	66 64 6c             	data16 fs insb (%dx),%es:(%rdi)
  103037:	78 78                	js     1030b1 <C_char+0x1>
  103039:	6c                   	insb   (%dx),%es:(%rdi)
  10303a:	66 66 e6 00          	data16 data16 out %al,$0x0
	...

0000000000103040 <J_char>:
  103040:	00 00                	add    %al,(%rax)
  103042:	00 1e                	add    %bl,(%rsi)
  103044:	0c 0c                	or     $0xc,%al
  103046:	0c 0c                	or     $0xc,%al
  103048:	0c cc                	or     $0xcc,%al
  10304a:	cc                   	int3   
  10304b:	cc                   	int3   
  10304c:	78 00                	js     10304e <J_char+0xe>
	...

0000000000103050 <I_char>:
  103050:	00 00                	add    %al,(%rax)
  103052:	00 3c 18             	add    %bh,(%rax,%rbx,1)
  103055:	18 18                	sbb    %bl,(%rax)
  103057:	18 18                	sbb    %bl,(%rax)
  103059:	18 18                	sbb    %bl,(%rax)
  10305b:	18 3c 00             	sbb    %bh,(%rax,%rax,1)
	...

0000000000103060 <H_char>:
  103060:	00 00                	add    %al,(%rax)
  103062:	00 c6                	add    %al,%dh
  103064:	c6 c6 c6             	mov    $0xc6,%dh
  103067:	fe c6                	inc    %dh
  103069:	c6 c6 c6             	mov    $0xc6,%dh
  10306c:	c6 00 00             	movb   $0x0,(%rax)
	...

0000000000103070 <G_char>:
  103070:	00 00                	add    %al,(%rax)
  103072:	00 3c 66             	add    %bh,(%rsi,%riz,2)
  103075:	c2 c0 c0             	ret    $0xc0c0
  103078:	de c6                	faddp  %st,%st(6)
  10307a:	c6                   	(bad)  
  10307b:	66 3a 00             	data16 cmp (%rax),%al
	...

0000000000103080 <F_char>:
  103080:	00 00                	add    %al,(%rax)
  103082:	00 fe                	add    %bh,%dh
  103084:	66 62                	data16 (bad) 
  103086:	68 78 68 60 60       	push   $0x60606878
  10308b:	60                   	(bad)  
  10308c:	f0 00 00             	lock add %al,(%rax)
	...

0000000000103090 <E_char>:
  103090:	00 00                	add    %al,(%rax)
  103092:	00 fe                	add    %bh,%dh
  103094:	66 62                	data16 (bad) 
  103096:	68 78 68 60 62       	push   $0x62606878
  10309b:	66 fe 00             	data16 incb (%rax)
	...

00000000001030a0 <D_char>:
  1030a0:	00 00                	add    %al,(%rax)
  1030a2:	00 f8                	add    %bh,%al
  1030a4:	6c                   	insb   (%dx),%es:(%rdi)
  1030a5:	66 66 66 66 66 66 6c 	data16 data16 data16 data16 data16 data16 insb (%dx),%es:(%rdi)
  1030ac:	f8                   	clc    
  1030ad:	00 00                	add    %al,(%rax)
	...

00000000001030b0 <C_char>:
  1030b0:	00 00                	add    %al,(%rax)
  1030b2:	00 3c 66             	add    %bh,(%rsi,%riz,2)
  1030b5:	c2 c0 c0             	ret    $0xc0c0
  1030b8:	c0 c0 c2             	rol    $0xc2,%al
  1030bb:	66 3c 00             	data16 cmp $0x0,%al
	...

00000000001030c0 <B_char>:
  1030c0:	00 00                	add    %al,(%rax)
  1030c2:	00 fc                	add    %bh,%ah
  1030c4:	66 66 66 7c 66       	data16 data16 data16 jl 10312f <ascii_chars+0x4f>
  1030c9:	66 66 66 fc          	data16 data16 data16 cld 
  1030cd:	00 00                	add    %al,(%rax)
	...

00000000001030d0 <A_char>:
  1030d0:	00 00                	add    %al,(%rax)
  1030d2:	00 10                	add    %dl,(%rax)
  1030d4:	38 6c c6 c6          	cmp    %ch,-0x3a(%rsi,%rax,8)
  1030d8:	fe c6                	inc    %dh
  1030da:	c6 c6 c6             	mov    $0xc6,%dh
  1030dd:	00 00                	add    %al,(%rax)
	...

Disassembly of section .data.rel.local:

00000000001030e0 <ascii_chars>:
  1030e0:	10 80 20 00 00 00    	adc    %al,0x20(%rax)
  1030e6:	00 00                	add    %al,(%rax)
  1030e8:	10 80 20 00 00 00    	adc    %al,0x20(%rax)
  1030ee:	00 00                	add    %al,(%rax)
  1030f0:	10 80 20 00 00 00    	adc    %al,0x20(%rax)
  1030f6:	00 00                	add    %al,(%rax)
  1030f8:	10 80 20 00 00 00    	adc    %al,0x20(%rax)
  1030fe:	00 00                	add    %al,(%rax)
  103100:	10 80 20 00 00 00    	adc    %al,0x20(%rax)
  103106:	00 00                	add    %al,(%rax)
  103108:	10 80 20 00 00 00    	adc    %al,0x20(%rax)
  10310e:	00 00                	add    %al,(%rax)
  103110:	10 80 20 00 00 00    	adc    %al,0x20(%rax)
  103116:	00 00                	add    %al,(%rax)
  103118:	10 80 20 00 00 00    	adc    %al,0x20(%rax)
  10311e:	00 00                	add    %al,(%rax)
  103120:	10 80 20 00 00 00    	adc    %al,0x20(%rax)
  103126:	00 00                	add    %al,(%rax)
  103128:	10 80 20 00 00 00    	adc    %al,0x20(%rax)
  10312e:	00 00                	add    %al,(%rax)
  103130:	10 80 20 00 00 00    	adc    %al,0x20(%rax)
  103136:	00 00                	add    %al,(%rax)
  103138:	10 80 20 00 00 00    	adc    %al,0x20(%rax)
  10313e:	00 00                	add    %al,(%rax)
  103140:	10 80 20 00 00 00    	adc    %al,0x20(%rax)
  103146:	00 00                	add    %al,(%rax)
  103148:	10 80 20 00 00 00    	adc    %al,0x20(%rax)
  10314e:	00 00                	add    %al,(%rax)
  103150:	10 80 20 00 00 00    	adc    %al,0x20(%rax)
  103156:	00 00                	add    %al,(%rax)
  103158:	10 80 20 00 00 00    	adc    %al,0x20(%rax)
  10315e:	00 00                	add    %al,(%rax)
  103160:	10 80 20 00 00 00    	adc    %al,0x20(%rax)
  103166:	00 00                	add    %al,(%rax)
  103168:	10 80 20 00 00 00    	adc    %al,0x20(%rax)
  10316e:	00 00                	add    %al,(%rax)
  103170:	10 80 20 00 00 00    	adc    %al,0x20(%rax)
  103176:	00 00                	add    %al,(%rax)
  103178:	10 80 20 00 00 00    	adc    %al,0x20(%rax)
  10317e:	00 00                	add    %al,(%rax)
  103180:	10 80 20 00 00 00    	adc    %al,0x20(%rax)
  103186:	00 00                	add    %al,(%rax)
  103188:	10 80 20 00 00 00    	adc    %al,0x20(%rax)
  10318e:	00 00                	add    %al,(%rax)
  103190:	10 80 20 00 00 00    	adc    %al,0x20(%rax)
  103196:	00 00                	add    %al,(%rax)
  103198:	10 80 20 00 00 00    	adc    %al,0x20(%rax)
  10319e:	00 00                	add    %al,(%rax)
  1031a0:	10 80 20 00 00 00    	adc    %al,0x20(%rax)
  1031a6:	00 00                	add    %al,(%rax)
  1031a8:	10 80 20 00 00 00    	adc    %al,0x20(%rax)
  1031ae:	00 00                	add    %al,(%rax)
  1031b0:	10 80 20 00 00 00    	adc    %al,0x20(%rax)
  1031b6:	00 00                	add    %al,(%rax)
  1031b8:	10 80 20 00 00 00    	adc    %al,0x20(%rax)
  1031be:	00 00                	add    %al,(%rax)
  1031c0:	10 80 20 00 00 00    	adc    %al,0x20(%rax)
  1031c6:	00 00                	add    %al,(%rax)
  1031c8:	10 80 20 00 00 00    	adc    %al,0x20(%rax)
  1031ce:	00 00                	add    %al,(%rax)
  1031d0:	10 80 20 00 00 00    	adc    %al,0x20(%rax)
  1031d6:	00 00                	add    %al,(%rax)
  1031d8:	10 80 20 00 00 00    	adc    %al,0x20(%rax)
  1031de:	00 00                	add    %al,(%rax)
  1031e0:	10 80 20 00 00 00    	adc    %al,0x20(%rax)
  1031e6:	00 00                	add    %al,(%rax)
  1031e8:	10 80 20 00 00 00    	adc    %al,0x20(%rax)
  1031ee:	00 00                	add    %al,(%rax)
  1031f0:	10 80 20 00 00 00    	adc    %al,0x20(%rax)
  1031f6:	00 00                	add    %al,(%rax)
  1031f8:	10 80 20 00 00 00    	adc    %al,0x20(%rax)
  1031fe:	00 00                	add    %al,(%rax)
  103200:	10 80 20 00 00 00    	adc    %al,0x20(%rax)
  103206:	00 00                	add    %al,(%rax)
  103208:	10 80 20 00 00 00    	adc    %al,0x20(%rax)
  10320e:	00 00                	add    %al,(%rax)
  103210:	10 80 20 00 00 00    	adc    %al,0x20(%rax)
  103216:	00 00                	add    %al,(%rax)
  103218:	10 80 20 00 00 00    	adc    %al,0x20(%rax)
  10321e:	00 00                	add    %al,(%rax)
  103220:	10 80 20 00 00 00    	adc    %al,0x20(%rax)
  103226:	00 00                	add    %al,(%rax)
  103228:	10 80 20 00 00 00    	adc    %al,0x20(%rax)
  10322e:	00 00                	add    %al,(%rax)
  103230:	10 80 20 00 00 00    	adc    %al,0x20(%rax)
  103236:	00 00                	add    %al,(%rax)
  103238:	10 80 20 00 00 00    	adc    %al,0x20(%rax)
  10323e:	00 00                	add    %al,(%rax)
  103240:	10 80 20 00 00 00    	adc    %al,0x20(%rax)
  103246:	00 00                	add    %al,(%rax)
  103248:	c0 2c 10 00          	shrb   $0x0,(%rax,%rdx,1)
  10324c:	00 00                	add    %al,(%rax)
  10324e:	00 00                	add    %al,(%rax)
  103250:	d0 2c 10             	shrb   (%rax,%rdx,1)
  103253:	00 00                	add    %al,(%rax)
  103255:	00 00                	add    %al,(%rax)
  103257:	00 10                	add    %dl,(%rax)
  103259:	80 20 00             	andb   $0x0,(%rax)
  10325c:	00 00                	add    %al,(%rax)
  10325e:	00 00                	add    %al,(%rax)
  103260:	90                   	nop
  103261:	2d 10 00 00 00       	sub    $0x10,%eax
  103266:	00 00                	add    %al,(%rax)
  103268:	80 2d 10 00 00 00 00 	subb   $0x0,0x10(%rip)        # 10327f <ascii_chars+0x19f>
  10326f:	00 70 2d             	add    %dh,0x2d(%rax)
  103272:	10 00                	adc    %al,(%rax)
  103274:	00 00                	add    %al,(%rax)
  103276:	00 00                	add    %al,(%rax)
  103278:	60                   	(bad)  
  103279:	2d 10 00 00 00       	sub    $0x10,%eax
  10327e:	00 00                	add    %al,(%rax)
  103280:	50                   	push   %rax
  103281:	2d 10 00 00 00       	sub    $0x10,%eax
  103286:	00 00                	add    %al,(%rax)
  103288:	40 2d 10 00 00 00    	rex sub $0x10,%eax
  10328e:	00 00                	add    %al,(%rax)
  103290:	30 2d 10 00 00 00    	xor    %ch,0x10(%rip)        # 1032a6 <ascii_chars+0x1c6>
  103296:	00 00                	add    %al,(%rax)
  103298:	20 2d 10 00 00 00    	and    %ch,0x10(%rip)        # 1032ae <ascii_chars+0x1ce>
  10329e:	00 00                	add    %al,(%rax)
  1032a0:	10 2d 10 00 00 00    	adc    %ch,0x10(%rip)        # 1032b6 <ascii_chars+0x1d6>
  1032a6:	00 00                	add    %al,(%rax)
  1032a8:	00 2d 10 00 00 00    	add    %ch,0x10(%rip)        # 1032be <ascii_chars+0x1de>
  1032ae:	00 00                	add    %al,(%rax)
  1032b0:	f0 2c 10             	lock sub $0x10,%al
  1032b3:	00 00                	add    %al,(%rax)
  1032b5:	00 00                	add    %al,(%rax)
  1032b7:	00 e0                	add    %ah,%al
  1032b9:	2c 10                	sub    $0x10,%al
  1032bb:	00 00                	add    %al,(%rax)
  1032bd:	00 00                	add    %al,(%rax)
  1032bf:	00 10                	add    %dl,(%rax)
  1032c1:	80 20 00             	andb   $0x0,(%rax)
  1032c4:	00 00                	add    %al,(%rax)
  1032c6:	00 00                	add    %al,(%rax)
  1032c8:	10 80 20 00 00 00    	adc    %al,0x20(%rax)
  1032ce:	00 00                	add    %al,(%rax)
  1032d0:	10 80 20 00 00 00    	adc    %al,0x20(%rax)
  1032d6:	00 00                	add    %al,(%rax)
  1032d8:	10 80 20 00 00 00    	adc    %al,0x20(%rax)
  1032de:	00 00                	add    %al,(%rax)
  1032e0:	10 80 20 00 00 00    	adc    %al,0x20(%rax)
  1032e6:	00 00                	add    %al,(%rax)
  1032e8:	d0 30                	shlb   (%rax)
  1032ea:	10 00                	adc    %al,(%rax)
  1032ec:	00 00                	add    %al,(%rax)
  1032ee:	00 00                	add    %al,(%rax)
  1032f0:	c0 30 10             	shlb   $0x10,(%rax)
  1032f3:	00 00                	add    %al,(%rax)
  1032f5:	00 00                	add    %al,(%rax)
  1032f7:	00 b0 30 10 00 00    	add    %dh,0x1030(%rax)
  1032fd:	00 00                	add    %al,(%rax)
  1032ff:	00 a0 30 10 00 00    	add    %ah,0x1030(%rax)
  103305:	00 00                	add    %al,(%rax)
  103307:	00 90 30 10 00 00    	add    %dl,0x1030(%rax)
  10330d:	00 00                	add    %al,(%rax)
  10330f:	00 80 30 10 00 00    	add    %al,0x1030(%rax)
  103315:	00 00                	add    %al,(%rax)
  103317:	00 70 30             	add    %dh,0x30(%rax)
  10331a:	10 00                	adc    %al,(%rax)
  10331c:	00 00                	add    %al,(%rax)
  10331e:	00 00                	add    %al,(%rax)
  103320:	60                   	(bad)  
  103321:	30 10                	xor    %dl,(%rax)
  103323:	00 00                	add    %al,(%rax)
  103325:	00 00                	add    %al,(%rax)
  103327:	00 50 30             	add    %dl,0x30(%rax)
  10332a:	10 00                	adc    %al,(%rax)
  10332c:	00 00                	add    %al,(%rax)
  10332e:	00 00                	add    %al,(%rax)
  103330:	40 30 10             	rex xor %dl,(%rax)
  103333:	00 00                	add    %al,(%rax)
  103335:	00 00                	add    %al,(%rax)
  103337:	00 30                	add    %dh,(%rax)
  103339:	30 10                	xor    %dl,(%rax)
  10333b:	00 00                	add    %al,(%rax)
  10333d:	00 00                	add    %al,(%rax)
  10333f:	00 20                	add    %ah,(%rax)
  103341:	30 10                	xor    %dl,(%rax)
  103343:	00 00                	add    %al,(%rax)
  103345:	00 00                	add    %al,(%rax)
  103347:	00 10                	add    %dl,(%rax)
  103349:	30 10                	xor    %dl,(%rax)
  10334b:	00 00                	add    %al,(%rax)
  10334d:	00 00                	add    %al,(%rax)
  10334f:	00 00                	add    %al,(%rax)
  103351:	30 10                	xor    %dl,(%rax)
  103353:	00 00                	add    %al,(%rax)
  103355:	00 00                	add    %al,(%rax)
  103357:	00 f0                	add    %dh,%al
  103359:	2f                   	(bad)  
  10335a:	10 00                	adc    %al,(%rax)
  10335c:	00 00                	add    %al,(%rax)
  10335e:	00 00                	add    %al,(%rax)
  103360:	e0 2f                	loopne 103391 <ascii_chars+0x2b1>
  103362:	10 00                	adc    %al,(%rax)
  103364:	00 00                	add    %al,(%rax)
  103366:	00 00                	add    %al,(%rax)
  103368:	d0 2f                	shrb   (%rdi)
  10336a:	10 00                	adc    %al,(%rax)
  10336c:	00 00                	add    %al,(%rax)
  10336e:	00 00                	add    %al,(%rax)
  103370:	c0 2f 10             	shrb   $0x10,(%rdi)
  103373:	00 00                	add    %al,(%rax)
  103375:	00 00                	add    %al,(%rax)
  103377:	00 b0 2f 10 00 00    	add    %dh,0x102f(%rax)
  10337d:	00 00                	add    %al,(%rax)
  10337f:	00 a0 2f 10 00 00    	add    %ah,0x102f(%rax)
  103385:	00 00                	add    %al,(%rax)
  103387:	00 90 2f 10 00 00    	add    %dl,0x102f(%rax)
  10338d:	00 00                	add    %al,(%rax)
  10338f:	00 80 2f 10 00 00    	add    %al,0x102f(%rax)
  103395:	00 00                	add    %al,(%rax)
  103397:	00 70 2f             	add    %dh,0x2f(%rax)
  10339a:	10 00                	adc    %al,(%rax)
  10339c:	00 00                	add    %al,(%rax)
  10339e:	00 00                	add    %al,(%rax)
  1033a0:	60                   	(bad)  
  1033a1:	2f                   	(bad)  
  1033a2:	10 00                	adc    %al,(%rax)
  1033a4:	00 00                	add    %al,(%rax)
  1033a6:	00 00                	add    %al,(%rax)
  1033a8:	50                   	push   %rax
  1033a9:	2f                   	(bad)  
  1033aa:	10 00                	adc    %al,(%rax)
  1033ac:	00 00                	add    %al,(%rax)
  1033ae:	00 00                	add    %al,(%rax)
  1033b0:	40 2f                	rex (bad) 
  1033b2:	10 00                	adc    %al,(%rax)
  1033b4:	00 00                	add    %al,(%rax)
  1033b6:	00 00                	add    %al,(%rax)
  1033b8:	10 80 20 00 00 00    	adc    %al,0x20(%rax)
  1033be:	00 00                	add    %al,(%rax)
  1033c0:	10 80 20 00 00 00    	adc    %al,0x20(%rax)
  1033c6:	00 00                	add    %al,(%rax)
  1033c8:	10 80 20 00 00 00    	adc    %al,0x20(%rax)
  1033ce:	00 00                	add    %al,(%rax)
  1033d0:	10 80 20 00 00 00    	adc    %al,0x20(%rax)
  1033d6:	00 00                	add    %al,(%rax)
  1033d8:	10 80 20 00 00 00    	adc    %al,0x20(%rax)
  1033de:	00 00                	add    %al,(%rax)
  1033e0:	10 80 20 00 00 00    	adc    %al,0x20(%rax)
  1033e6:	00 00                	add    %al,(%rax)
  1033e8:	30 2f                	xor    %ch,(%rdi)
  1033ea:	10 00                	adc    %al,(%rax)
  1033ec:	00 00                	add    %al,(%rax)
  1033ee:	00 00                	add    %al,(%rax)
  1033f0:	20 2f                	and    %ch,(%rdi)
  1033f2:	10 00                	adc    %al,(%rax)
  1033f4:	00 00                	add    %al,(%rax)
  1033f6:	00 00                	add    %al,(%rax)
  1033f8:	10 2f                	adc    %ch,(%rdi)
  1033fa:	10 00                	adc    %al,(%rax)
  1033fc:	00 00                	add    %al,(%rax)
  1033fe:	00 00                	add    %al,(%rax)
  103400:	00 2f                	add    %ch,(%rdi)
  103402:	10 00                	adc    %al,(%rax)
  103404:	00 00                	add    %al,(%rax)
  103406:	00 00                	add    %al,(%rax)
  103408:	f0 2e 10 00          	lock cs adc %al,(%rax)
  10340c:	00 00                	add    %al,(%rax)
  10340e:	00 00                	add    %al,(%rax)
  103410:	e0 2e                	loopne 103440 <ascii_chars+0x360>
  103412:	10 00                	adc    %al,(%rax)
  103414:	00 00                	add    %al,(%rax)
  103416:	00 00                	add    %al,(%rax)
  103418:	d0 2e                	shrb   (%rsi)
  10341a:	10 00                	adc    %al,(%rax)
  10341c:	00 00                	add    %al,(%rax)
  10341e:	00 00                	add    %al,(%rax)
  103420:	c0 2e 10             	shrb   $0x10,(%rsi)
  103423:	00 00                	add    %al,(%rax)
  103425:	00 00                	add    %al,(%rax)
  103427:	00 b0 2e 10 00 00    	add    %dh,0x102e(%rax)
  10342d:	00 00                	add    %al,(%rax)
  10342f:	00 a0 2e 10 00 00    	add    %ah,0x102e(%rax)
  103435:	00 00                	add    %al,(%rax)
  103437:	00 90 2e 10 00 00    	add    %dl,0x102e(%rax)
  10343d:	00 00                	add    %al,(%rax)
  10343f:	00 80 2e 10 00 00    	add    %al,0x102e(%rax)
  103445:	00 00                	add    %al,(%rax)
  103447:	00 70 2e             	add    %dh,0x2e(%rax)
  10344a:	10 00                	adc    %al,(%rax)
  10344c:	00 00                	add    %al,(%rax)
  10344e:	00 00                	add    %al,(%rax)
  103450:	60                   	(bad)  
  103451:	2e 10 00             	cs adc %al,(%rax)
  103454:	00 00                	add    %al,(%rax)
  103456:	00 00                	add    %al,(%rax)
  103458:	50                   	push   %rax
  103459:	2e 10 00             	cs adc %al,(%rax)
  10345c:	00 00                	add    %al,(%rax)
  10345e:	00 00                	add    %al,(%rax)
  103460:	40                   	rex
  103461:	2e 10 00             	cs adc %al,(%rax)
  103464:	00 00                	add    %al,(%rax)
  103466:	00 00                	add    %al,(%rax)
  103468:	30 2e                	xor    %ch,(%rsi)
  10346a:	10 00                	adc    %al,(%rax)
  10346c:	00 00                	add    %al,(%rax)
  10346e:	00 00                	add    %al,(%rax)
  103470:	20 2e                	and    %ch,(%rsi)
  103472:	10 00                	adc    %al,(%rax)
  103474:	00 00                	add    %al,(%rax)
  103476:	00 00                	add    %al,(%rax)
  103478:	10 2e                	adc    %ch,(%rsi)
  10347a:	10 00                	adc    %al,(%rax)
  10347c:	00 00                	add    %al,(%rax)
  10347e:	00 00                	add    %al,(%rax)
  103480:	00 2e                	add    %ch,(%rsi)
  103482:	10 00                	adc    %al,(%rax)
  103484:	00 00                	add    %al,(%rax)
  103486:	00 00                	add    %al,(%rax)
  103488:	f0 2d 10 00 00 00    	lock sub $0x10,%eax
  10348e:	00 00                	add    %al,(%rax)
  103490:	e0 2d                	loopne 1034bf <ascii_chars+0x3df>
  103492:	10 00                	adc    %al,(%rax)
  103494:	00 00                	add    %al,(%rax)
  103496:	00 00                	add    %al,(%rax)
  103498:	d0 2d 10 00 00 00    	shrb   0x10(%rip)        # 1034ae <ascii_chars+0x3ce>
  10349e:	00 00                	add    %al,(%rax)
  1034a0:	c0 2d 10 00 00 00 00 	shrb   $0x0,0x10(%rip)        # 1034b7 <ascii_chars+0x3d7>
  1034a7:	00 b0 2d 10 00 00    	add    %dh,0x102d(%rax)
  1034ad:	00 00                	add    %al,(%rax)
  1034af:	00 a0 2d 10 00 00    	add    %ah,0x102d(%rax)
  1034b5:	00 00                	add    %al,(%rax)
  1034b7:	00 10                	add    %dl,(%rax)
  1034b9:	80 20 00             	andb   $0x0,(%rax)
  1034bc:	00 00                	add    %al,(%rax)
  1034be:	00 00                	add    %al,(%rax)
  1034c0:	10 80 20 00 00 00    	adc    %al,0x20(%rax)
  1034c6:	00 00                	add    %al,(%rax)
  1034c8:	10 80 20 00 00 00    	adc    %al,0x20(%rax)
  1034ce:	00 00                	add    %al,(%rax)
  1034d0:	10 80 20 00 00 00    	adc    %al,0x20(%rax)
  1034d6:	00 00                	add    %al,(%rax)
  1034d8:	10 80 20 00 00 00    	adc    %al,0x20(%rax)
	...

Disassembly of section .bss:

0000000000200000 <stack_bottom>:
	...

0000000000201000 <p4_table>:
	...

0000000000202000 <p3_table>:
	...

0000000000203000 <p2_table>:
	...

0000000000207000 <IDT>:
	...

0000000000208000 <framebuffer>:
  208000:	00 00                	add    %al,(%rax)
	...

0000000000208004 <magic>:
  208004:	00 00                	add    %al,(%rax)
	...

0000000000208008 <boot_info>:
	...

0000000000208010 <Not_implemented_yet>:
	...
