
bin/mykernel.bin:     file format elf64-x86-64

Contents of section .multiboot2:
 100000 d65052e8 00000000 30000000 faaead17  .PR.....0.......
 100010 05000000 14000000 80070000 38040000  ............8...
 100020 20000000 90909090 00000000 08000000   ...............
Contents of section .sysvar:
 100030 00000000 00000000 00000000 00000000  ................
 100040 00000000 00000000 00000000 00000000  ................
 100050 00000000 00000000 00000000 00000000  ................
 100060 00000000 00000000 00000000 00000000  ................
 100070 00000000 00000000 00000000 00000000  ................
 100080 00000000 00000000 00000000 00000000  ................
 100090 00000000 00000000 00000000 00000000  ................
 1000a0 00000000 00000000 00000000 00000000  ................
 1000b0 00000000 00000000 00000000 00000000  ................
 1000c0 00000000 00000000 00000000 00000000  ................
 1000d0 00000000 00000000 00000000 00000000  ................
 1000e0 00000000 00000000 00000000 00000000  ................
 1000f0 00000000 00000000 00000000 00000000  ................
 100100 00000000 00000000 00000000 00000000  ................
 100110 00000000 00000000 00000000 00000000  ................
 100120 00000000 00000000 00000000 00000000  ................
Contents of section .text:
 100130 bc083041 00bd0830 4100891d 10404100  ..0A...0A....@A.
 100140 a30c4041 00e85200 0000e85c 000000e8  ..@A..R....\....
 100150 72000000 e8920000 00e8c900 00000f01  r...............
 100160 153a3310 00ea6c01 10000800 66b81000  .:3...l.....f...
 100170 8ed88ec0 8ee08ee8 8ed0e9cc 0a000031  ...............1
 100180 c931ff48 31f68b3c 25104041 008b3425  .1.H1..<%.@A..4%
 100190 0c404100 e8971100 00f4ebfd 3d8962d7  .@A.........=.b.
 1001a0 367501c3 b030e98c 0e00009c 5889c135  6u...0......X..5
 1001b0 00002000 509d9c58 519d39c8 7401c3b0  .. .P..XQ.9.t...
 1001c0 31e9710e 0000b800 0000800f a23d0100  1.q..........=..
 1001d0 00807210 b8010000 800fa2f7 c2000000  ..r.............
 1001e0 207401c3 b032e94c 0e0000b8 00102000   t...2.L...... .
 1001f0 83c803a3 00002000 b8002020 0083c803  ...... ...  ....
 100200 a3001020 00b90000 0000b800 002000f7  ... ......... ..
 100210 e10d8300 00008904 cd002020 004181f9  ..........  .A..
 100220 00020000 75e4c3b8 00002000 0f22d80f  ....u..... .."..
 100230 20e00db0 0000000f 22e0b980 0000c00f   .......".......
 100240 320d0001 00000f30 0f20c00d 00000080  2......0. ......
 100250 0f22c0c3 fafc5053 51525657 55415041  ."....PSQRVWUAPA
 100260 51415241 53415441 55415641 574889e7  QARASATAUAVAWH..
 100270 e83b1300 00415f41 5e415d41 5c415b41  .;...A_A^A]A\A[A
 100280 5a415941 585d5f5e 5a595b58 cffafc50  ZAYAX]_^ZY[X...P
 100290 53515256 57554150 41514152 41534154  SQRVWUAPAQARASAT
 1002a0 41554156 41574889 e7e82213 0000415f  AUAVAWH..."...A_
 1002b0 415e415d 415c415b 415a4159 41585d5f  A^A]A\A[AZAYAX]_
 1002c0 5e5a595b 58cffafc 50535152 56575541  ^ZY[X...PSQRVWUA
 1002d0 50415141 52415341 54415541 56415748  PAQARASATAUAVAWH
 1002e0 89e7e809 13000041 5f415e41 5d415c41  .......A_A^A]A\A
 1002f0 5b415a41 5941585d 5f5e5a59 5b58cffa  [AZAYAX]_^ZY[X..
 100300 fc505351 52565755 41504151 41524153  .PSQRVWUAPAQARAS
 100310 41544155 41564157 4889e7e8 f0120000  ATAUAVAWH.......
 100320 415f415e 415d415c 415b415a 41594158  A_A^A]A\A[AZAYAX
 100330 5d5f5e5a 595b58cf fafc5053 51525657  ]_^ZY[X...PSQRVW
 100340 55415041 51415241 53415441 55415641  UAPAQARASATAUAVA
 100350 574889e7 e8d71200 00415f41 5e415d41  WH.......A_A^A]A
 100360 5c415b41 5a415941 585d5f5e 5a595b58  \A[AZAYAX]_^ZY[X
 100370 cffafc50 53515256 57554150 41514152  ...PSQRVWUAPAQAR
 100380 41534154 41554156 41574889 e7e8be12  ASATAUAVAWH.....
 100390 0000415f 415e415d 415c415b 415a4159  ..A_A^A]A\A[AZAY
 1003a0 41585d5f 5e5a595b 58cffafc 50535152  AX]_^ZY[X...PSQR
 1003b0 56575541 50415141 52415341 54415541  VWUAPAQARASATAUA
 1003c0 56415748 89e7e8a5 12000041 5f415e41  VAWH.......A_A^A
 1003d0 5d415c41 5b415a41 5941585d 5f5e5a59  ]A\A[AZAYAX]_^ZY
 1003e0 5b58cffa fc505351 52565755 41504151  [X...PSQRVWUAPAQ
 1003f0 41524153 41544155 41564157 4889e7e8  ARASATAUAVAWH...
 100400 8c120000 415f415e 415d415c 415b415a  ....A_A^A]A\A[AZ
 100410 41594158 5d5f5e5a 595b58cf fafc5053  AYAX]_^ZY[X...PS
 100420 51525657 55415041 51415241 53415441  QRVWUAPAQARASATA
 100430 55415641 574889e7 e8731200 00415f41  UAVAWH...s...A_A
 100440 5e415d41 5c415b41 5a415941 585d5f5e  ^A]A\A[AZAYAX]_^
 100450 5a595b58 cffafc50 53515256 57554150  ZY[X...PSQRVWUAP
 100460 41514152 41534154 41554156 41574889  AQARASATAUAVAWH.
 100470 e7e85a12 0000415f 415e415d 415c415b  ..Z...A_A^A]A\A[
 100480 415a4159 41585d5f 5e5a595b 58cffafc  AZAYAX]_^ZY[X...
 100490 50535152 56575541 50415141 52415341  PSQRVWUAPAQARASA
 1004a0 54415541 56415748 89e7e841 12000041  TAUAVAWH...A...A
 1004b0 5f415e41 5d415c41 5b415a41 5941585d  _A^A]A\A[AZAYAX]
 1004c0 5f5e5a59 5b58cffa fc505351 52565755  _^ZY[X...PSQRVWU
 1004d0 41504151 41524153 41544155 41564157  APAQARASATAUAVAW
 1004e0 4889e7e8 28120000 415f415e 415d415c  H...(...A_A^A]A\
 1004f0 415b415a 41594158 5d5f5e5a 595b58cf  A[AZAYAX]_^ZY[X.
 100500 fafc5053 51525657 55415041 51415241  ..PSQRVWUAPAQARA
 100510 53415441 55415641 574889e7 e80f1200  SATAUAVAWH......
 100520 00415f41 5e415d41 5c415b41 5a415941  .A_A^A]A\A[AZAYA
 100530 585d5f5e 5a595b58 cffafc50 53515256  X]_^ZY[X...PSQRV
 100540 57554150 41514152 41534154 41554156  WUAPAQARASATAUAV
 100550 41574889 e7e8f611 0000415f 415e415d  AWH.......A_A^A]
 100560 415c415b 415a4159 41585d5f 5e5a595b  A\A[AZAYAX]_^ZY[
 100570 58cffafc 50535152 56575541 50415141  X...PSQRVWUAPAQA
 100580 52415341 54415541 56415748 89e7e8dd  RASATAUAVAWH....
 100590 11000041 5f415e41 5d415c41 5b415a41  ...A_A^A]A\A[AZA
 1005a0 5941585d 5f5e5a59 5b58cffa fc505351  YAX]_^ZY[X...PSQ
 1005b0 52565755 41504151 41524153 41544155  RVWUAPAQARASATAU
 1005c0 41564157 4889e7e8 c4110000 415f415e  AVAWH.......A_A^
 1005d0 415d415c 415b415a 41594158 5d5f5e5a  A]A\A[AZAYAX]_^Z
 1005e0 595b58cf fafc5053 51525657 55415041  Y[X...PSQRVWUAPA
 1005f0 51415241 53415441 55415641 574889e7  QARASATAUAVAWH..
 100600 e8ab1100 00415f41 5e415d41 5c415b41  .....A_A^A]A\A[A
 100610 5a415941 585d5f5e 5a595b58 cffafc50  ZAYAX]_^ZY[X...P
 100620 53515256 57554150 41514152 41534154  SQRVWUAPAQARASAT
 100630 41554156 41574889 e7e89211 0000415f  AUAVAWH.......A_
 100640 415e415d 415c415b 415a4159 41585d5f  A^A]A\A[AZAYAX]_
 100650 5e5a595b 58cffafc 50535152 56575541  ^ZY[X...PSQRVWUA
 100660 50415141 52415341 54415541 56415748  PAQARASATAUAVAWH
 100670 89e7e879 11000041 5f415e41 5d415c41  ...y...A_A^A]A\A
 100680 5b415a41 5941585d 5f5e5a59 5b58cffa  [AZAYAX]_^ZY[X..
 100690 fc505351 52565755 41504151 41524153  .PSQRVWUAPAQARAS
 1006a0 41544155 41564157 4889e7e8 60110000  ATAUAVAWH...`...
 1006b0 415f415e 415d415c 415b415a 41594158  A_A^A]A\A[AZAYAX
 1006c0 5d5f5e5a 595b58cf fafc5053 51525657  ]_^ZY[X...PSQRVW
 1006d0 55415041 51415241 53415441 55415641  UAPAQARASATAUAVA
 1006e0 574889e7 e8471100 00415f41 5e415d41  WH...G...A_A^A]A
 1006f0 5c415b41 5a415941 585d5f5e 5a595b58  \A[AZAYAX]_^ZY[X
 100700 cffafc50 53515256 57554150 41514152  ...PSQRVWUAPAQAR
 100710 41534154 41554156 41574889 e7e82e11  ASATAUAVAWH.....
 100720 0000415f 415e415d 415c415b 415a4159  ..A_A^A]A\A[AZAY
 100730 41585d5f 5e5a595b 58cffafc 50535152  AX]_^ZY[X...PSQR
 100740 56575541 50415141 52415341 54415541  VWUAPAQARASATAUA
 100750 56415748 89e7e815 11000041 5f415e41  VAWH.......A_A^A
 100760 5d415c41 5b415a41 5941585d 5f5e5a59  ]A\A[AZAYAX]_^ZY
 100770 5b58cffa fc505351 52565755 41504151  [X...PSQRVWUAPAQ
 100780 41524153 41544155 41564157 4889e7e8  ARASATAUAVAWH...
 100790 fc100000 415f415e 415d415c 415b415a  ....A_A^A]A\A[AZ
 1007a0 41594158 5d5f5e5a 595b58cf fafc5053  AYAX]_^ZY[X...PS
 1007b0 51525657 55415041 51415241 53415441  QRVWUAPAQARASATA
 1007c0 55415641 57bf2000 0000e821 0c000041  UAVAW. ....!...A
 1007d0 5f415e41 5d415c41 5b415a41 5941585d  _A^A]A\A[AZAYAX]
 1007e0 5f5e5a59 5b58fb48 cffafc50 53515256  _^ZY[X.H...PSQRV
 1007f0 57554150 41514152 41534154 41554156  WUAPAQARASATAUAV
 100800 4157bf21 000000e8 e40b0000 415f415e  AW.!........A_A^
 100810 415d415c 415b415a 41594158 5d5f5e5a  A]A\A[AZAYAX]_^Z
 100820 595b58fb 48cffafc 50535152 56575541  Y[X.H...PSQRVWUA
 100830 50415141 52415341 54415541 564157bf  PAQARASATAUAVAW.
 100840 22000000 e8a70b00 00415f41 5e415d41  "........A_A^A]A
 100850 5c415b41 5a415941 585d5f5e 5a595b58  \A[AZAYAX]_^ZY[X
 100860 48cffafc 50535152 56575541 50415141  H...PSQRVWUAPAQA
 100870 52415341 54415541 564157bf 23000000  RASATAUAVAW.#...
 100880 e86b0b00 00415f41 5e415d41 5c415b41  .k...A_A^A]A\A[A
 100890 5a415941 585d5f5e 5a595b58 48cffafc  ZAYAX]_^ZY[XH...
 1008a0 50535152 56575541 50415141 52415341  PSQRVWUAPAQARASA
 1008b0 54415541 564157bf 24000000 e82f0b00  TAUAVAW.$..../..
 1008c0 00415f41 5e415d41 5c415b41 5a415941  .A_A^A]A\A[AZAYA
 1008d0 585d5f5e 5a595b58 48cffafc 50535152  X]_^ZY[XH...PSQR
 1008e0 56575541 50415141 52415341 54415541  VWUAPAQARASATAUA
 1008f0 564157bf 25000000 e8f30a00 00415f41  VAW.%........A_A
 100900 5e415d41 5c415b41 5a415941 585d5f5e  ^A]A\A[AZAYAX]_^
 100910 5a595b58 48cffafc 50535152 56575541  ZY[XH...PSQRVWUA
 100920 50415141 52415341 54415541 564157bf  PAQARASATAUAVAW.
 100930 26000000 e8b70a00 00415f41 5e415d41  &........A_A^A]A
 100940 5c415b41 5a415941 585d5f5e 5a595b58  \A[AZAYAX]_^ZY[X
 100950 48cffafc 50535152 56575541 50415141  H...PSQRVWUAPAQA
 100960 52415341 54415541 564157bf 27000000  RASATAUAVAW.'...
 100970 e87b0a00 00415f41 5e415d41 5c415b41  .{...A_A^A]A\A[A
 100980 5a415941 585d5f5e 5a595b58 48cffafc  ZAYAX]_^ZY[XH...
 100990 50535152 56575541 50415141 52415341  PSQRVWUAPAQARASA
 1009a0 54415541 564157bf 28000000 e83f0a00  TAUAVAW.(....?..
 1009b0 00415f41 5e415d41 5c415b41 5a415941  .A_A^A]A\A[AZAYA
 1009c0 585d5f5e 5a595b58 48cffafc 50535152  X]_^ZY[XH...PSQR
 1009d0 56575541 50415141 52415341 54415541  VWUAPAQARASATAUA
 1009e0 564157bf 29000000 e8030a00 00415f41  VAW.)........A_A
 1009f0 5e415d41 5c415b41 5a415941 585d5f5e  ^A]A\A[AZAYAX]_^
 100a00 5a595b58 cffafc50 53515256 57554150  ZY[X...PSQRVWUAP
 100a10 41514152 41534154 41554156 4157bf2a  AQARASATAUAVAW.*
 100a20 000000e8 c8090000 415f415e 415d415c  ........A_A^A]A\
 100a30 415b415a 41594158 5d5f5e5a 595b58cf  A[AZAYAX]_^ZY[X.
 100a40 fafc5053 51525657 55415041 51415241  ..PSQRVWUAPAQARA
 100a50 53415441 55415641 57bf2b00 0000e88d  SATAUAVAW.+.....
 100a60 09000041 5f415e41 5d415c41 5b415a41  ...A_A^A]A\A[AZA
 100a70 5941585d 5f5e5a59 5b58cffa fc505351  YAX]_^ZY[X...PSQ
 100a80 52565755 41504151 41524153 41544155  RVWUAPAQARASATAU
 100a90 41564157 bf2c0000 00e85209 0000415f  AVAW.,....R...A_
 100aa0 415e415d 415c415b 415a4159 41585d5f  A^A]A\A[AZAYAX]_
 100ab0 5e5a595b 58cffafc 50535152 56575541  ^ZY[X...PSQRVWUA
 100ac0 50415141 52415341 54415541 564157bf  PAQARASATAUAVAW.
 100ad0 2d000000 e8170900 00415f41 5e415d41  -........A_A^A]A
 100ae0 5c415b41 5a415941 585d5f5e 5a595b58  \A[AZAYAX]_^ZY[X
 100af0 cffafc50 53515256 57554150 41514152  ...PSQRVWUAPAQAR
 100b00 41534154 41554156 4157bf2e 000000e8  ASATAUAVAW......
 100b10 dc080000 415f415e 415d415c 415b415a  ....A_A^A]A\A[AZ
 100b20 41594158 5d5f5e5a 595b58cf fafc5053  AYAX]_^ZY[X...PS
 100b30 51525657 55415041 51415241 53415441  QRVWUAPAQARASATA
 100b40 55415641 57bf2f00 0000e8a1 08000041  UAVAW./........A
 100b50 5f415e41 5d415c41 5b415a41 5941585d  _A^A]A\A[AZAYAX]
 100b60 5f5e5a59 5b58cffa fc505351 52565755  _^ZY[X...PSQRVWU
 100b70 41504151 41524153 41544155 41564157  APAQARASATAUAVAW
 100b80 bf300000 00e86608 0000415f 415e415d  .0....f...A_A^A]
 100b90 415c415b 415a4159 41585d5f 5e5a595b  A\A[AZAYAX]_^ZY[
 100ba0 58cffafc 50535152 56575541 50415141  X...PSQRVWUAPAQA
 100bb0 52415341 54415541 564157bf 31000000  RASATAUAVAW.1...
 100bc0 e82b0800 00415f41 5e415d41 5c415b41  .+...A_A^A]A\A[A
 100bd0 5a415941 585d5f5e 5a595b58 cffaf4eb  ZAYAX]_^ZY[X....
 100be0 fc48ba08 30410000 00000048 01ca6689  .H..0A.....H..f.
 100bf0 0266c742 020800c6 420400c6 42058f48  .f.B....B...B..H
 100c00 c1e81066 89420648 c1e81089 4208c742  ...f.B.H....B..B
 100c10 0c000000 00c348ba 08304100 00000000  ......H..0A.....
 100c20 4801ca66 890266c7 42020800 c6420400  H..f..f.B....B..
 100c30 c642058e 48c1e810 66894206 48c1e810  .B..H...f.B.H...
 100c40 894208c7 420c0000 0000c3eb 0c66ba21  .B..B........f.!
 100c50 00b0ffee 66baa100 ee4831c0 b9000200  ....f....H1.....
 100c60 0048bf08 30410000 000000f3 48ab48b8  .H..0A......H.H.
 100c70 54021000 00000000 b9000000 00e85fff  T............._.
 100c80 ffff48b8 8d021000 00000000 b9100000  ..H.............
 100c90 00e84bff ffff48b8 54021000 00000000  ..K...H.T.......
 100ca0 b9000000 00e837ff ffff48b8 8d021000  ......7...H.....
 100cb0 00000000 b9100000 00e823ff ffff48b8  ..........#...H.
 100cc0 c6021000 00000000 b9200000 00e80fff  ......... ......
 100cd0 ffff48b8 ff021000 00000000 b9300000  ..H..........0..
 100ce0 00e8fbfe ffff48b8 38031000 00000000  ......H.8.......
 100cf0 b9400000 00e8e7fe ffff48b8 71031000  .@........H.q...
 100d00 00000000 b9500000 00e8d3fe ffff48b8  .....P........H.
 100d10 aa031000 00000000 b9600000 00e8bffe  .........`......
 100d20 ffff48b8 e3031000 00000000 b9700000  ..H..........p..
 100d30 00e8abfe ffff48b8 1c041000 00000000  ......H.........
 100d40 b9800000 00e897fe ffff48b8 55041000  ..........H.U...
 100d50 00000000 b9900000 00e883fe ffff48b8  ..............H.
 100d60 8e041000 00000000 b9a00000 00e86ffe  ..............o.
 100d70 ffff48b8 c7041000 00000000 b9b00000  ..H.............
 100d80 00e85bfe ffff48b8 00051000 00000000  ..[...H.........
 100d90 b9c00000 00e847fe ffff48b8 39051000  ......G...H.9...
 100da0 00000000 b9d00000 00e833fe ffff48b8  ..........3...H.
 100db0 72051000 00000000 b9e00000 00e81ffe  r...............
 100dc0 ffff48b8 ab051000 00000000 b9000100  ..H.............
 100dd0 00e80bfe ffff48b8 e4051000 00000000  ......H.........
 100de0 b9100100 00e8f7fd ffff48b8 1d061000  ..........H.....
 100df0 00000000 b9200100 00e8e3fd ffff48b8  ..... ........H.
 100e00 56061000 00000000 b9300100 00e8cffd  V........0......
 100e10 ffff48b8 8f061000 00000000 b9400100  ..H..........@..
 100e20 00e8bbfd ffff48b8 c8061000 00000000  ......H.........
 100e30 b9500100 00e8a7fd ffff48b8 01071000  .P........H.....
 100e40 00000000 b9c00100 00e893fd ffff48b8  ..............H.
 100e50 3a071000 00000000 b9d00100 00e87ffd  :...............
 100e60 ffff48b8 73071000 00000000 b9e00100  ..H.s...........
 100e70 00e86bfd ffff48b8 ac071000 00000000  ..k...H.........
 100e80 b9000200 00e857fd ffff48b8 e9071000  ......W...H.....
 100e90 00000000 b9100200 00e843fd ffff48b8  ..........C...H.
 100ea0 26081000 00000000 b9200200 00e82ffd  &........ ..../.
 100eb0 ffff48b8 62081000 00000000 b9300200  ..H.b........0..
 100ec0 00e81bfd ffff48b8 9e081000 00000000  ......H.........
 100ed0 b9400200 00e807fd ffff48b8 da081000  .@........H.....
 100ee0 00000000 b9500200 00e8f3fc ffff48b8  .....P........H.
 100ef0 16091000 00000000 b9600200 00e8dffc  .........`......
 100f00 ffff48b8 52091000 00000000 b9700200  ..H.R........p..
 100f10 00e8cbfc ffff48b8 8e091000 00000000  ......H.........
 100f20 b9800200 00e8b7fc ffff48b8 ca091000  ..........H.....
 100f30 00000000 b9900200 00e8a3fc ffff48b8  ..............H.
 100f40 050a1000 00000000 b9a00200 00e88ffc  ................
 100f50 ffff48b8 400a1000 00000000 b9b00200  ..H.@...........
 100f60 00e87bfc ffff48b8 7b0a1000 00000000  ..{...H.{.......
 100f70 b9c00200 00e867fc ffff48b8 b60a1000  ......g...H.....
 100f80 00000000 b9d00200 00e853fc ffff48b8  ..........S...H.
 100f90 f10a1000 00000000 b9e00200 00e83ffc  ..............?.
 100fa0 ffff48b8 2c0b1000 00000000 b9f00200  ..H.,...........
 100fb0 00e82bfc fffffa0f 011c2540 33100066  ..+.......%@3..f
 100fc0 b810008e d88ec08e e08ee88e d048bc08  .............H..
 100fd0 30410000 00000048 bd083041 00000000  0A.....H..0A....
 100fe0 00fbe998 f1ffffb8 01000000 0fa20fba  ................
 100ff0 e2097318 0fbae205 7318b91b 0000000f  ..s.....s.......
 101000 320d0008 00000f30 4831c0c3 b8010000  2......0H1......
 101010 00c3b802 000000c3 5150b800 f0ffff48  ........QP.....H
 101020 21c7b91b 0000000f 324825ff 0f000048  !.......2H%....H
 101030 09f80f30 5859c366 baf803ee f40f1f00  ...0XY.f........
 101040 f30f1efa 448b0749 83f80876 5eba0800  ....D..I...v^...
 101050 0000488d 35d71600 0041b908 00000090  ..H.5....A......
 101060 488d0417 83381577 278b0848 630c8e48  H....8.w'..Hc..H
 101070 01f13eff e10f1f00 48830c25 80001000  ..>.....H..%....
 101080 02488904 25880010 000f1f80 00000000  .H..%...........
 101090 8b480448 89c84801 ca83e007 74084489  .H.H..H.....t.D.
 1010a0 c929c148 01ca4c39 c272b5c3 0f1f4000  .).H..L9.r....@.
 1010b0 48810c25 80001000 00002000 48890425  H..%...... .H..%
 1010c0 28011000 ebca662e 0f1f8400 00000000  (.....f.........
 1010d0 48810c25 80001000 00001000 48890425  H..%........H..%
 1010e0 20011000 ebaa662e 0f1f8400 00000000   .....f.........
 1010f0 48810c25 80001000 00000800 48890425  H..%........H..%
 101100 18011000 eb8a662e 0f1f8400 00000000  ......f.........
 101110 48810c25 80001000 00000400 48890425  H..%........H..%
 101120 10011000 e967ffff ff0f1f80 00000000  .....g..........
 101130 48810c25 80001000 00000200 48890425  H..%........H..%
 101140 08011000 e947ffff ff0f1f80 00000000  .....G..........
 101150 48810c25 80001000 00000100 48890425  H..%........H..%
 101160 00011000 e927ffff ff0f1f80 00000000  .....'..........
 101170 48810c25 80001000 00800000 488d4808  H..%........H.H.
 101180 48890c25 f8001000 e903ffff ff0f1f00  H..%............
 101190 48810c25 80001000 00400000 488d4808  H..%.....@..H.H.
 1011a0 48890c25 f0001000 e9e3feff ff0f1f00  H..%............
 1011b0 48810c25 80001000 00200000 48890425  H..%..... ..H..%
 1011c0 e8001000 e9c7feff ff0f1f80 00000000  ................
 1011d0 48810c25 80001000 00100000 48890425  H..%........H..%
 1011e0 e0001000 e9a7feff ff0f1f80 00000000  ................
 1011f0 48810c25 80001000 00080000 48890425  H..%........H..%
 101200 d8001000 e987feff ff0f1f80 00000000  ................
 101210 48810c25 80001000 00040000 48890425  H..%........H..%
 101220 d0001000 e967feff ff0f1f80 00000000  .....g..........
 101230 48810c25 80001000 00020000 48890425  H..%........H..%
 101240 c8001000 e947feff ff0f1f80 00000000  .....G..........
 101250 48810c25 80001000 00010000 48890425  H..%........H..%
 101260 c0001000 e927feff ff0f1f80 00000000  .....'..........
 101270 48810c25 80001000 80000000 48890425  H..%........H..%
 101280 b8001000 e907feff ff0f1f80 00000000  ................
 101290 48830c25 80001000 40488904 25b00010  H..%....@H..%...
 1012a0 00e9eafd ffff662e 0f1f8400 00000000  ......f.........
 1012b0 48830c25 80001000 20488904 25a80010  H..%.... H..%...
 1012c0 00e9cafd ffff662e 0f1f8400 00000000  ......f.........
 1012d0 48830c25 80001000 10488904 25a00010  H..%.....H..%...
 1012e0 00e9aafd ffff662e 0f1f8400 00000000  ......f.........
 1012f0 48830c25 80001000 08488904 25980010  H..%.....H..%...
 101300 00e98afd ffff662e 0f1f8400 00000000  ......f.........
 101310 48830c25 80001000 04488904 25900010  H..%.....H..%...
 101320 00e96afd ffff662e 0f1f8400 00000000  ..j...f.........
 101330 f30f1efa 4883ec08 e803fdff ff488b04  ....H........H..
 101340 25800010 00a84075 5ff6c401 7579e89d  %.....@u_...uy..
 101350 13000048 8d3d4614 0000e8f1 06000048  ...H.=F........H
 101360 8b042590 00100048 8d7808e8 e0060000  ..%....H.x......
 101370 488d3d79 150000e8 d4060000 488b3c25  H.=y........H.<%
 101380 f8001000 e8a70a00 00488b04 25f80010  .........H..%...
 101390 00488b78 18e8760d 000031c0 4883c408  .H.x..v...1.H...
 1013a0 e9fb0e00 000f1f00 488b3c25 b0001000  ........H.<%....
 1013b0 e8cb0f00 00e8f610 0000488b 04258000  ..........H..%..
 1013c0 1000f6c4 01748748 8b3c25c0 001000e8  .....t.H.<%.....
 1013d0 cc080000 488b3c25 c0001000 e80f0800  ....H.<%........
 1013e0 00e968ff ffff662e 0f1f8400 00000000  ..h...f.........
 1013f0 f30f1efa 4883ec08 488d3db9 130000e8  ....H...H.=.....
 101400 4c060000 b8b000e0 eec70000 00000048  L..............H
 101410 83c408c3 66662e0f 1f840000 00000090  ....ff..........
 101420 f30f1efa 41554154 4989fcbf 0000ff00  ....AUATI.......
 101430 554889d5 5389f331 f64881ec a8000000  UH..S..1.H......
 101440 e88b0700 0031ffe8 94050000 4c89e748  .....1......L..H
 101450 c7042548 00100000 000000e8 f0050000  ..%H............
 101460 488d0553 130000f7 db488904 24488d05  H..S.....H..$H..
 101470 51130000 4519e431 db488944 2408488d  Q...E..1.H.D$.H.
 101480 054b1300 004183c4 10488944 2410488d  .K...A...H.D$.H.
 101490 05461300 00458d6c 24014d63 e4488944  .F...E.l$.Mc.H.D
 1014a0 2418488d 053d1300 00488944 2420488d  $.H..=...H.D$ H.
 1014b0 053c1300 00488944 2428488d 053b1300  .<...H.D$(H..;..
 1014c0 00488944 2430488d 053a1300 00488944  .H.D$0H..:...H.D
 1014d0 2438488d 05391300 00488944 2440488d  $8H..9...H.D$@H.
 1014e0 05381300 00488944 2448488d 05371300  .8...H.D$HH..7..
 1014f0 00488944 2450488d 05361300 00488944  .H.D$PH..6...H.D
 101500 2458488d 05351300 00488944 2460488d  $XH..5...H.D$`H.
 101510 05341300 00488944 2468488d 05331300  .4...H.D$hH..3..
 101520 00488944 2470488d 05321300 00488944  .H.D$pH..2...H.D
 101530 2478488d 05311300 00488984 24800000  $xH..1...H..$...
 101540 00488d05 2d130000 48898424 88000000  .H..-...H..$....
 101550 488d0529 13000048 89842490 000000eb  H..)...H..$.....
 101560 280f1f80 00000000 4863c383 c301488b  (.......Hc....H.
 101570 3cc4e8d9 04000048 8b7d00e8 30050000  <......H.}..0...
 101580 83fb1374 204883c5 0883fb0f 75da4a8b  ...t H......u.J.
 101590 3ce44489 ebe8b604 0000488b 7d00e80d  <.D.......H.}...
 1015a0 050000eb e0ebfe66 0f1f8400 00000000  .......f........
 1015b0 f30f1efa 505831f6 4889fa48 83ec0848  ....PX1.H..H...H
 1015c0 8d3dc512 0000e855 feffff0f 1f440000  .=.....U.....D..
 1015d0 f30f1efa 505831f6 4889fa48 83ec0848  ....PX1.H..H...H
 1015e0 8d3db712 0000e835 feffff0f 1f440000  .=.....5.....D..
 1015f0 f30f1efa 505831f6 4889fa48 83ec0848  ....PX1.H..H...H
 101600 8d3da012 0000e815 feffff0f 1f440000  .=...........D..
 101610 f30f1efa 505831f6 4889fa48 83ec0848  ....PX1.H..H...H
 101620 8d3d9a12 0000e8f5 fdffff0f 1f440000  .=...........D..
 101630 f30f1efa 505831f6 4889fa48 83ec0848  ....PX1.H..H...H
 101640 8d3d8812 0000e8d5 fdffff0f 1f440000  .=...........D..
 101650 f30f1efa 505831f6 4889fa48 83ec0848  ....PX1.H..H...H
 101660 8d3d7412 0000e8b5 fdffff0f 1f440000  .=t..........D..
 101670 f30f1efa 505831f6 4889fa48 83ec0848  ....PX1.H..H...H
 101680 8d3d6c12 0000e895 fdffff0f 1f440000  .=l..........D..
 101690 f30f1efa 505831f6 4889fa48 83ec0848  ....PX1.H..H...H
 1016a0 8d3d5e12 0000e875 fdffff0f 1f440000  .=^....u.....D..
 1016b0 f30f1efa 5058be01 00000048 89fa4883  ....PX.....H..H.
 1016c0 ec08488d 3d531200 00e852fd ffff6690  ..H.=S....R...f.
 1016d0 f30f1efa 505831f6 4889fa48 83ec0848  ....PX1.H..H...H
 1016e0 8d3d821a 0000e835 fdffff0f 1f440000  .=.....5.....D..
 1016f0 f30f1efa 5058be01 00000048 89fa4883  ....PX.....H..H.
 101700 ec08488d 3d231200 00e812fd ffff6690  ..H.=#........f.
 101710 f30f1efa 5058be01 00000048 89fa4883  ....PX.....H..H.
 101720 ec08488d 3d121200 00e8f2fc ffff6690  ..H.=.........f.
 101730 f30f1efa 5058be01 00000048 89fa4883  ....PX.....H..H.
 101740 ec08488d 3d091200 00e8d2fc ffff6690  ..H.=.........f.
 101750 f30f1efa 5058be01 00000048 89fa4883  ....PX.....H..H.
 101760 ec08488d 3d001200 00e8b2fc ffff6690  ..H.=.........f.
 101770 f30f1efa 5058be01 00000048 89fa4883  ....PX.....H..H.
 101780 ec08488d 3dfc1100 00e892fc ffff6690  ..H.=.........f.
 101790 f30f1efa 505831f6 4889fa48 83ec0848  ....PX1.H..H...H
 1017a0 8d3de219 0000e875 fcffff0f 1f440000  .=.....u.....D..
 1017b0 f30f1efa 5058be01 00000048 89fa4883  ....PX.....H..H.
 1017c0 ec08488d 3dca1100 00e852fc ffff6690  ..H.=.....R...f.
 1017d0 f30f1efa 505831f6 4889fa48 83ec0848  ....PX1.H..H...H
 1017e0 8d3dc011 0000e835 fcffff0f 1f440000  .=.....5.....D..
 1017f0 f30f1efa 505831f6 4889fa48 83ec0848  ....PX1.H..H...H
 101800 8d3da219 0000e815 fcffff0f 1f440000  .=...........D..
 101810 f30f1efa 505831f6 4889fa48 83ec0848  ....PX1.H..H...H
 101820 8d3d9111 0000e8f5 fbffff0f 1f440000  .=...........D..
 101830 f30f1efa 5058be01 00000048 89fa4883  ....PX.....H..H.
 101840 ec08488d 3d831100 00e8d2fb ffff6690  ..H.=.........f.
 101850 f30f1efa 505831f6 4889fa48 83ec0848  ....PX1.H..H...H
 101860 8d3d6a19 0000e8b5 fbffff0f 1f440000  .=j..........D..
 101870 f30f1efa 5058be01 00000048 89fa4883  ....PX.....H..H.
 101880 ec08488d 3d6f1900 00e892fb ffff6690  ..H.=o........f.
 101890 f30f1efa 505831f6 4889fa48 83ec0848  ....PX1.H..H...H
 1018a0 8d3d4411 0000e875 fbffff0f 1f440000  .=D....u.....D..
 1018b0 f30f1efa 505831f6 4889fa48 83ec0848  ....PX1.H..H...H
 1018c0 8d3d3a11 0000e855 fbffff0f 1f440000  .=:....U.....D..
 1018d0 f30f1efa 0faf3595 e7ffff48 8b057ee7  ......5....H..~.
 1018e0 ffff01fe 4863f689 14b0c30f 1f440000  ....Hc.......D..
 1018f0 f30f1efa 4157480f bec7b907 00000048  ....AWH........H
 101900 8d157a1e 00004156 41bf0100 00004155  ..z...AVA.....AU
 101910 41545553 4883ec10 4c8b2cc2 488b0525  ATUSH...L.,.H..%
 101920 e7ffff44 8b252ee7 ffff8b2d 40e7ffff  ...D.%.....-@...
 101930 4189c148 89442408 4d8d5510 488b05fd  A..H.D$.M.U.H...
 101940 e6ffff41 c1e10448 8b1d12e7 ffff448b  ...A...H......D.
 101950 1dfbe6ff ff488904 24448d34 c5080000  .....H..$D.4....
 101960 004529e9 0f1f4000 4489ff44 89f64c89  .E)...@.D..D..L.
 101970 ead3e729 ce0f1f00 418d0411 440fbe02  ...)....A...D...
 101980 0fafc501 f04185f8 4589d845 0f44c448  .....A..E..E.D.H
 101990 984883c2 01448904 834c39d2 75da83e9  .H...D...L9.u...
 1019a0 0173c548 8b0c2448 3b0d82e6 ffff488d  .s.H..$H;.....H.
 1019b0 41017512 488b4424 084883c0 01488905  A.u.H.D$.H...H..
 1019c0 84e6ffff 31c04889 0573e6ff ff4883c4  ....1.H..s...H..
 1019d0 105b5d41 5c415d41 5e415fc3 0f1f4000  .[]A\A]A^A_...@.
 1019e0 f30f1efa 488b0585 e6ffff48 85c07451  ....H......H..tQ
 1019f0 4c8b1581 e6ffff41 89c34c8b 0d5fe6ff  L......A..L.._..
 101a00 ff489848 8d0c8500 00000045 31c04489  .H.H.......E1.D.
 101a10 d60f1f80 00000000 4c89ca31 c04d85d2  ........L..1.M..
 101a20 7412660f 1f440000 83c00189 3a4801ca  t.f..D......:H..
 101a30 39c675f4 4183c001 4983c104 4539d875  9.u.A...I...E9.u
 101a40 d7c36666 2e0f1f84 00000000 000f1f00  ..ff............
 101a50 f30f1efa 0fb60784 c0744d53 488d5f01  .........tMSH._.
 101a60 eb25660f 1f440000 4883c301 488305d4  .%f..D..H...H...
 101a70 e5ffff01 48c705c1 e5ffff00 0000000f  ....H...........
 101a80 b643ff84 c074183c 0a74dd0f bef84883  .C...t.<.t....H.
 101a90 c301e859 feffff0f b643ff84 c075e85b  ...Y.....C...u.[
 101aa0 c30f1f80 00000000 c30f1f80 00000000  ................
 101ab0 f30f1efa 554889fd bf300000 0053488d  ....UH...0...SH.
 101ac0 1d530f00 00eb2866 0f1f8400 00000000  .S....(f........
 101ad0 0fbe3b48 83c30148 830569e5 ffff0148  ..;H...H..i....H
 101ae0 c70556e5 ffff0000 00004084 ff741740  ..V.......@..t.@
 101af0 80ff0a74 dbe8f6fd ffff0fbe 3b4883c3  ...t........;H..
 101b00 014084ff 75e9bb3c 000000eb 130f1f00  .@..u..<........
 101b10 83c73083 eb04e8d5 fdffff83 fbfc7424  ..0...........t$
 101b20 4889ef89 d948d3ef 83e70f83 ff097ee0  H....H........~.
 101b30 83c75783 eb04400f b6ffe8b1 fdffff83  ..W...@.........
 101b40 fbfc75dc 5b5dc366 0f1f8400 00000000  ..u.[].f........
 101b50 f30f1efa 554889fd bf300000 0053488d  ....UH...0...SH.
 101b60 1db60e00 00eb2866 0f1f8400 00000000  ......(f........
 101b70 0fbe3b48 83c30148 8305c9e4 ffff0148  ..;H...H.......H
 101b80 c705b6e4 ffff0000 00004084 ff741740  ..........@..t.@
 101b90 80ff0a74 dbe856fd ffff0fbe 3b4883c3  ...t..V.....;H..
 101ba0 014084ff 75e9bb3f 0000000f 1f440000  .@..u..?.....D..
 101bb0 89d94889 e848d3e8 83e0018d 7830e82d  ..H..H......x0.-
 101bc0 fdffff83 eb0173e8 5b5dc30f 1f440000  ......s.[]...D..
 101bd0 f30f1efa 89f84889 0573e4ff ff89f048  ......H..s.....H
 101be0 890572e4 ffffc366 0f1f8400 00000000  ..r....f........
 101bf0 f30f1efa 0fb74714 48c7053d e4ffff00  ......G.H..=....
 101c00 00000066 c1e8030f b7c04889 051fe4ff  ...f......H.....
 101c10 ff8b4718 48c70529 e4ffff00 00000048  ..G.H..).......H
 101c20 c70526e4 ffff00ff 000066c1 e80448c7  ..&.......f...H.
 101c30 051fe4ff ff000000 000fb7c0 488905f5  ............H...
 101c40 e3ffff48 8b0526e4 ffff4885 c0744d4c  ...H..&...H..tML
 101c50 8b0d22e4 ffff4189 c24c8b05 00e4ffff  .."...A..L......
 101c60 4898488d 0c850000 000031ff 4489ce90  H.H.......1.D...
 101c70 4c89c231 c04d85c9 7416660f 1f440000  L..1.M..t.f..D..
 101c80 83c001c7 02000000 004801ca 39c675f0  .........H..9.u.
 101c90 83c70149 83c00444 39d775d4 c30f1f00  ...I...D9.u.....
 101ca0 f30f1efa 41545548 89fd538b 471448c7  ....ATUH..S.G.H.
 101cb0 05a7e3ff ff000000 048b5710 488905ad  ..........W.H...
 101cc0 e3ffff8b 47184889 159be3ff ff488905  ....G.H......H..
 101cd0 a4e3ffff 480fafc2 4989c449 c1ec15a9  ....H...I..I....
 101ce0 ffff1f00 74424983 c40131db bf000000  ....tBI...1.....
 101cf0 04eb0c0f 1f440000 488b3d61 e3ffff48  .....D..H.=a...H
 101d00 8b750848 89d84883 c30148c1 e0154801  .u.H..H...H...H.
 101d10 c64801c7 e8670800 004939dc 77da5b5d  .H...g...I9.w.[]
 101d20 415cc30f 1f440000 4d85e475 bd5b5d41  A\...D..M..u.[]A
 101d30 5cc3662e 0f1f8400 00000000 0f1f4000  \.f...........@.
 101d40 f30f1efa baf80300 0089f8ee c30f1f00  ................
 101d50 f30f1efa 0fb60784 c0741948 83c701ba  .........t.H....
 101d60 f8030000 0f1f4000 ee0fb607 4883c701  ......@.....H...
 101d70 84c075f4 c366662e 0f1f8400 00000000  ..u..ff.........
 101d80 f30f1efa 488d0d8d 0c0000b8 30000000  ....H.......0...
 101d90 baf80300 000f1f00 ee0fb601 4883c101  ............H...
 101da0 84c075f4 b93c0000 00baf803 0000eb0c  ..u..<..........
 101db0 83c030ee 83e90483 f9fc741a 4889f848  ..0.......t.H..H
 101dc0 d3e883e0 0f83f809 7ee683c0 57ee83e9  ........~...W...
 101dd0 0483f9fc 75e6c366 0f1f8400 00000000  ....u..f........
 101de0 f30f1efa 488d4f14 0f1f8400 00000000  ....H.O.........
 101df0 0fb61748 83c70101 d04839cf 75f2a811  ...H.....H9.u...
 101e00 7501c3bf 0000ff00 4883ec08 31f6e8bd  u.......H...1...
 101e10 fdffff48 8d3dfe13 0000e831 fcffffeb  ...H.=.....1....
 101e20 fe66662e 0f1f8400 00000000 0f1f4000  .ff...........@.
 101e30 f30f1efa 4883ec08 488d4f14 4889f831  ....H...H.O.H..1
 101e40 d20f1f80 00000000 02104883 c0014839  ..........H...H9
 101e50 c875f548 8d4f2484 d275350f 1f440000  .u.H.O$..u5..D..
 101e60 02104883 c0014839 c875f584 d2750548  ..H...H9.u...u.H
 101e70 83c408c3 bf0000ff 0031f6e8 50fdffff  .........1..P...
 101e80 488d3db9 130000e8 c4fbffff ebfe6690  H.=...........f.
 101e90 bf0000ff 0031f6e8 34fdffff 488d3d9d  .....1..4...H.=.
 101ea0 130000e8 a8fbffff ebfe660f 1f440000  ..........f..D..
 101eb0 f30f1efa 8b470485 c0741c83 e801488d  .....G...t....H.
 101ec0 54070131 c00f1f00 02074883 c7014839  T..1......H...H9
 101ed0 d775f584 c07509c3 0f1f8400 00000000  .u...u..........
 101ee0 bf0000ff 004883ec 0831f6e8 e0fcffff  .....H...1......
 101ef0 488d3d71 130000e8 54fbffff ebfe6690  H.=q....T.....f.
 101f00 f30f1efa 85d27e20 4863d231 c0eb0a90  ......~ Hc.1....
 101f10 4883c001 4839d074 0f0fb60c 06380c07  H...H9.t.....8..
 101f20 74ee31c0 c30f1f00 b8010000 00c36690  t.1...........f.
 101f30 f30f1efa 8b770483 fe2c7664 53ba2c00  .....w...,vdS.,.
 101f40 0000488d 0d3f0800 000f1f80 00000000  ..H..?..........
 101f50 4863da48 01fb803b 0577210f b6034863  Hc.H...;.w!...Hc
 101f60 04814801 c83effe0 0f1f8400 00000000  ..H..>..........
 101f70 0fb64301 01c239f2 72d65bc3 31f6bf00  ..C...9.r.[.1...
 101f80 00ff00e8 48fcffff 488d3d01 130000e8  ....H...H.=.....
 101f90 bcfaffff 0fb63be8 14fbffff ebfe6690  ......;.......f.
 101fa0 c366662e 0f1f8400 00000000 0f1f4000  .ff...........@.
 101fb0 f30f1efa c366662e 0f1f8400 00000000  .....ff.........
 101fc0 f30f1efa 41574156 41554154 55534883  ....AWAVAUATUSH.
 101fd0 ec28837f 042c4889 7c241848 c7442410  .(...,H.|$.H.D$.
 101fe0 2c000000 0f861301 00004c8d 2dff0800  ,.........L.-...
 101ff0 00488b74 2418488b 4c241048 8d2d0e08  .H.t$.H.L$.H.-..
 102000 00000fb6 540e0a4c 8b3c0e89 54240c3a  ....T..L.<..T$.:
 102010 540e0b0f 83cb0000 008b4424 0cc74424  T.........D$..D$
 102020 04000000 00c1e014 89442408 0f1f4000  .........D$...@.
 102030 448b6424 084531f6 440b6424 040f1f00  D.d$.E1.D.d$....
 102040 4489e344 09f34863 db4c01fb 66833bff  D..D..Hc.L..f.;.
 102050 744b4c89 efe8f6f9 ffff0fb7 3be84efa  tKL.........;.N.
 102060 ffff4889 efe8e6f9 ffff0fb7 7b02e83d  ..H.........{..=
 102070 faffff48 89efe8d5 f9ffff0f b67b0be8  ...H.........{..
 102080 2cfaffff 4889efe8 c4f9ffff 0fb67b0a  ,...H.........{.
 102090 e81bfaff ff4c89ef e8b3f9ff ff4181c6  .....L.......A..
 1020a0 00100000 4181fe00 80000075 93814424  ....A......u..D$
 1020b0 04008000 008b4424 043d0000 10000f85  ......D$.=......
 1020c0 6cffffff 488b4424 18488b4c 24108344  l...H.D$.H.L$..D
 1020d0 240c018b 54240c0f b644080b 39d00f8f  $...T$...D..9...
 1020e0 35ffffff 488b7424 18488344 24101048  5...H.t$.H.D$..H
 1020f0 8b442410 3946040f 87f4feff ff4883c4  .D$.9F.......H..
 102100 285b5d41 5c415d41 5e415fc3 0f1f4000  ([]A\A]A^A_...@.
 102110 f30f1efa 41574156 41554154 55534883  ....AWAVAUATUSH.
 102120 ec088b77 0485f60f 84130100 008d46ff  ...w..........F.
 102130 31d2488d 4c070148 89f8660f 1f440000  1.H.L..H..f..D..
 102140 02104883 c0014839 c875f584 d20f85cd  ..H...H9.u......
 102150 0000008d 6edc488d 5f24c1ed 0374504c  ....n.H._$...tPL
 102160 8d3dc808 00004531 ed4c8d35 b1080000  .=....E1.L.5....
 102170 4d8d67fc 0f1f4000 4a8b3ceb 488d05a7  M.g...@.J.<.H...
 102180 080000ba 41000000 4889f94c 29e1eb03  ....A...H..L)...
 102190 0fb61038 14017528 4883c001 4c39f875  ...8..u(H...L9.u
 1021a0 efe88afd ffff4983 c5014439 ed7fc948  ......I...D9...H
 1021b0 83c4085b 5d415c41 5d415e41 5fc36690  ...[]A\A]A^A_.f.
 1021c0 488d0556 08000048 89f9ba46 00000048  H..V...H...F...H
 1021d0 29c1eb10 0f1f4000 4883c001 4939c674  ).....@.H...I9.t
 1021e0 c50fb610 38140174 ef4c8d0d 36080000  ....8..t.L..6...
 1021f0 4889f9ba 4d000000 498d41fc 4829c1eb  H...M...I.A.H)..
 102200 0a0f1f80 00000000 0fb61038 14017596  ...........8..u.
 102210 4883c001 4939c175 efe8a2fd ffffeb86  H...I9.u........
 102220 bf0000ff 0031f6e8 a4f9ffff 488d3d35  .....1......H.=5
 102230 100000e8 18f8ffff ebfe660f 1f440000  ..........f..D..
 102240 488d5f24 bdfbffff 1fe911ff ffff6690  H._$..........f.
 102250 f30f1efa 4883ec08 e88aedff ff85c074  ....H..........t
 102260 0f83f801 742683f8 027413eb fe0f1f00  ....t&...t......
 102270 bf0000e0 ee4883c4 08e99aed ffff488d  .....H........H.
 102280 3daa0700 00e8c6f7 ffffebdf 488d3d94  =...........H.=.
 102290 070000e8 b8f7ffff ebd1660f 1f440000  ..........f..D..
 1022a0 f30f1efa b8f000e0 ee4883ec 08c70020  .........H..... 
 1022b0 010000e8 2fedffff 85c07414 83f80174  ..../.....t....t
 1022c0 4a83f802 7437ebfe 0f1f8400 00000000  J...t7..........
 1022d0 bf0000e0 eee83eed ffffba20 03e0ee8b  ......>.... ....
 1022e0 022500ff f8ff0d20 00020089 02b88003  .%..... ........
 1022f0 e0eec700 00000010 4883c408 c3488d3d  ........H....H.=
 102300 2b070000 e847f7ff ffebbb48 8d3d1507  +....G.....H.=..
 102310 0000e839 f7ffffeb ad0f1f80 00000000  ...9............
 102320 f30f1efa 488b05d5 fc300048 8d15cefc  ....H....0.H....
 102330 2f004863 c84883e8 014c8b04 ca488905  /.Hc.H...L...H..
 102340 bcfc3000 4c89c0c3 0f1f8400 00000000  ..0.L...........
 102350 f30f1efa 488b05a5 fc300048 8d159efc  ....H....0.H....
 102360 2f004883 c0014889 0593fc30 00489848  /.H...H....0.H.H
 102370 893cc2c3 66662e0f 1f840000 00000090  .<..ff..........
 102380 f30f1efa 8b770448 8d056afc 2f008b4f  .....w.H..j./..O
 102390 0831d248 890566fc 30004c8d 47104531  .1.H..f.0.L.G.E1
 1023a0 c94c8d15 58fc0f00 89f04c8d 1d4ffc2f  .L..X.....L..O./
 1023b0 00f7f139 ce0f82e5 0000000f 1f440000  ...9.........D..
 1023c0 498b0849 8b700848 01ce4183 78100174  I..I.p.H..A.x..t
 1023d0 4f4889ca 48c1e915 4881e200 00e0ff48  OH..H...H......H
 1023e0 39d67627 4863c949 8d0cca0f 1f440000  9.v'Hc.I.....D..
 1023f0 4889d748 81c20000 20004883 c1084080  H..H.... .H...@.
 102400 cf834889 79f84839 d677e541 83c10149  ..H.y.H9.w.A...I
 102410 83c01841 39c172a8 c30f1f80 00000000  ...A9.r.........
 102420 4839ce77 59ebe466 0f1f8400 00000000  H9.wY..f........
 102430 4889cf48 8d910000 200081e7 ffff1f00  H..H.... .......
 102440 75564881 f9000060 00762b48 89cf48c1  uVH....`.v+H..H.
 102450 ef154863 ff49c704 fa000000 00488b3d  ..Hc.I.......H.=
 102460 9cfb3000 4883c701 48893d91 fb300048  ..0.H...H.=..0.H
 102470 63ff4989 0cfb4889 d14839f1 738d4889  c.I...H..H9.s.H.
 102480 f24829ca 4881faff ff1f0077 a3490348  .H).H......w.I.H
 102490 08ebe60f 1f440000 4889d148 29f9ebd9  .....D..H..H)...
 1024a0 c366662e 0f1f8400 00000000 0f1f4000  .ff...........@.
 1024b0 f30f1efa 488d1545 eb0f0048 89d04883  ....H..E...H..H.
 1024c0 c8034889 0537db0f 00488d05 30fb0f00  ..H..7...H..0...
 1024d0 488db000 00200066 0f1f8400 00000000  H.... .f........
 1024e0 4889c148 05001000 004883c2 084883c9  H..H.....H...H..
 1024f0 0348894a f84839f0 75e60f20 d80f22d8  .H.J.H9.u.. ..".
 102500 c366662e 0f1f8400 00000000 0f1f4000  .ff...........@.
 102510 f30f1efa 488b15e5 fa300031 c0488d0d  ....H....0.1.H..
 102520 dcfa2f00 eb13662e 0f1f8400 00000000  ../...f.........
 102530 4883c001 4839d077 204863f0 48393cc1  H...H9.w Hc.H9<.
 102540 75ee4863 c24883ea 01488b04 c1488904  u.Hc.H...H...H..
 102550 f1488915 a8fa3000 c34883ec 0831ffe8  .H....0..H...1..
 102560 7cf4ffff bf0000ff 0031f6e8 60f6ffff  |........1..`...
 102570 488d3dbf 040000e8 d4f4ffff ebfe6690  H.=...........f.
 102580 f30f1efa 4883ec08 f7c7ff0f 00000f85  ....H...........
 102590 9c000000 f7c6ff0f 0000756c 4889f848  ..........ulH..H
 1025a0 89fa488d 3d57ea0f 004881e6 00f0ffff  ..H.=W...H......
 1025b0 48c1ea27 4989f848 8d0d42da 0f004080  H..'I..H..B...@.
 1025c0 ce8381e2 ff010000 4983c803 4c8904d1  ........I...L...
 1025d0 488d0d29 fa0f0048 89c248c1 ea1e4989  H..)...H..H...I.
 1025e0 c881e2ff 01000049 83c8034c 8904d748  .......I...L...H
 1025f0 89c248c1 ea1581e2 ff010000 488934d1  ..H.........H.4.
 102600 0f013848 83c408c3 31ffe8d1 f3ffffbf  ..8H....1.......
 102610 0000ff00 31f6e8b5 f5ffff48 8d3dce0c  ....1......H.=..
 102620 0000e829 f4ffffeb fe0f1f80 00000000  ...)............
 102630 31ffe8a9 f3ffffbf 0000ff00 31f6e88d  1...........1...
 102640 f5ffff48 8d3d760c 0000e801 f4ffffeb  ...H.=v.........
 102650 fe66662e 0f1f8400 00000000 0f1f4000  .ff...........@.
 102660 f30f1efa 31c94c8d 1d93f90f 004c63c7  ....1.L......Lc.
 102670 eb11660f 1f440000 83c10181 f9ffff03  ..f..D..........
 102680 007f4148 63c141f6 04c30175 eb85ff7e  ..AHc.A....u...~
 102690 4f4d8d0c c3ba0100 0000660f 1f440000  OM........f..D..
 1026a0 4c39c274 3b498b34 d1448d14 114883c2  L9.t;I.4.D...H..
 1026b0 0183e601 74ea4489 d183c101 81f9ffff  ....t.D.........
 1026c0 03007ebf 4883ec08 488d3d7c 030000e8  ..~.H...H.=|....
 1026d0 7cf3ffff ebfe662e 0f1f8400 00000000  |.....f.........
 1026e0 48c1e015 c366662e 0f1f8400 00000000  H....ff.........
 1026f0 f30f1efa 41545548 8d2df201 00005348  ....ATUH.-....SH
 102700 8d1dfaf8 0f004c8d a3004000 000f1f00  ......L...@.....
 102710 488b3b48 83c308e8 64f6ffff 4889efe8  H.;H....d...H...
 102720 2cf6ffff 4c39e375 e75b5d41 5cc3      ,...L9.u.[]A\.  
Contents of section .rodata:
 102730 60e9ffff 48e9ffff e0ebffff c0ebffff  `...H...........
 102740 a0ebffff 80ebffff 60ebffff 40ebffff  ........`...@...
 102750 20ebffff 00ebffff e0eaffff c0eaffff   ...............
 102760 a0eaffff 80eaffff 60eaffff 40eaffff  ........`...@...
 102770 20eaffff 00eaffff e0e9ffff c0e9ffff   ...............
 102780 a0e9ffff 80e9ffff e8f7ffff e8f7ffff  ................
 102790 e8f7ffff e8f7ffff e8f7ffff e8f7ffff  ................
Contents of section .rodata.str1.1:
 1027a0 0a6b6572 6e656c20 77617320 626f6f74  .kernel was boot
 1027b0 65642062 793a2000 2e000a20 52313520  ed by: .... R15 
 1027c0 20203a20 000a2052 31342020 203a2000    : .. R14   : .
 1027d0 0a205231 33202020 3a20000a 20523132  . R13   : .. R12
 1027e0 2020203a 20000a20 52313120 20203a20     : .. R11   : 
 1027f0 000a2052 31302020 203a2000 0a205239  .. R10   : .. R9
 102800 20202020 3a20000a 20523820 2020203a      : .. R8    :
 102810 20000a20 52425020 20203a20 000a2052   .. RBP   : .. R
 102820 44492020 203a2000 0a205253 49202020  DI   : .. RSI   
 102830 3a20000a 20524458 2020203a 20000a20  : .. RDX   : .. 
 102840 52435820 20203a20 000a2052 42582020  RCX   : .. RBX  
 102850 203a2000 0a205241 58202020 3a20000a   : .. RAX   : ..
 102860 20455252 2020203a 20000a20 52495020   ERR   : .. RIP 
 102870 20203a20 000a2043 53202020 203a2000    : .. CS    : .
 102880 0a204546 4c414753 3a20000a 20444956  . EFLAGS: .. DIV
 102890 4953494f 4e204552 524f520a 000a2044  ISION ERROR... D
 1028a0 45425547 0a000a20 4e4f4e20 4d41534b  EBUG... NON MASK
 1028b0 41424c45 20494e54 45525255 50540a00  ABLE INTERRUPT..
 1028c0 0a204252 45414b50 4f494e54 0a000a20  . BREAKPOINT... 
 1028d0 4f564552 464c4f57 0a000a20 424f554e  OVERFLOW... BOUN
 1028e0 44205241 4e474520 45584345 45444544  D RANGE EXCEEDED
 1028f0 0a000a20 494e5641 4c494420 4f50434f  ... INVALID OPCO
 102900 44450a00 0a204445 56494345 204e4f54  DE... DEVICE NOT
 102910 20415641 494c4142 4c450a00 0a20444f   AVAILABLE... DO
 102920 55424c45 20464155 4c540a00 0a20494e  UBLE FAULT... IN
 102930 56414c49 44205453 530a000a 20534547  VALID TSS... SEG
 102940 4d454e54 204e4f54 20505245 53454e54  MENT NOT PRESENT
 102950 0a000a20 53544143 4b205345 474d454e  ... STACK SEGMEN
 102960 54204641 554c540a 000a2047 454e4552  T FAULT... GENER
 102970 414c2050 524f5445 4354494f 4e204641  AL PROTECTION FA
 102980 554c540a 000a2050 41474520 4641554c  ULT... PAGE FAUL
 102990 540a000a 20414c49 474e4d45 4e542043  T... ALIGNMENT C
 1029a0 4845434b 0a000a20 4d414348 494e4520  HECK... MACHINE 
 1029b0 43484543 4b0a000a 20564952 5455414c  CHECK... VIRTUAL
 1029c0 20455843 45505449 4f4e0a00 0a20434f   EXCEPTION... CO
 1029d0 4e54524f 4c205052 4f544543 54494f4e  NTROL PROTECTION
 1029e0 204f5645 5252554e 0a000a20 53454355   OVERRUN... SECU
 1029f0 52495459 20455843 45505449 4f4e0a00  RITY EXCEPTION..
 102a00 0a204650 55204552 524f5220 494e5445  . FPU ERROR INTE
 102a10 52525550 540a0030 78003062 00464143  RRUPT..0x.0b.FAC
 102a20 50004d43 4647006e 6f204150 4943006e  P.MCFG.no APIC.n
 102a30 6f204d53 52004552 524f523a 20506167  o MSR.ERROR: Pag
 102a40 65206e6f 7420666f 6e640045 52524f52  e not fond.ERROR
 102a50 3a20766d 616c6c6f 63206661 696c6564  : vmalloc failed
 102a60 00                                   .               
Contents of section .eh_frame:
 102a68 14000000 00000000 017a5200 01781001  .........zR..x..
 102a78 1b0c0708 90010000 10000000 1c000000  ................
 102a88 b8e5ffff e6020000 00000000 18000000  ................
 102a98 30000000 94e8ffff b6000000 00480e10  0............H..
 102aa8 02680a0e 08480b00 14000000 4c000000  .h...H......L...
 102ab8 38e9ffff 24000000 00480e10 5b0e0800  8...$....H..[...
 102ac8 28000000 64000000 50e9ffff 87010000  (...d...P.......
 102ad8 00460e10 8d02420e 188c0349 0e208604  .F....B....I. ..
 102ae8 440e2883 054b0ed0 01000000 18000000  D.(..K..........
 102af8 90000000 b4eaffff 1b000000 00450e10  .............E..
 102b08 410e0849 0e100000 18000000 ac000000  A..I............
 102b18 b8eaffff 1b000000 00450e10 410e0849  .........E..A..I
 102b28 0e100000 18000000 c8000000 bceaffff  ................
 102b38 1b000000 00450e10 410e0849 0e100000  .....E..A..I....
 102b48 18000000 e4000000 c0eaffff 1b000000  ................
 102b58 00450e10 410e0849 0e100000 18000000  .E..A..I........
 102b68 00010000 c4eaffff 1b000000 00450e10  .............E..
 102b78 410e0849 0e100000 18000000 1c010000  A..I............
 102b88 c8eaffff 1b000000 00450e10 410e0849  .........E..A..I
 102b98 0e100000 18000000 38010000 cceaffff  ........8.......
 102ba8 1b000000 00450e10 410e0849 0e100000  .....E..A..I....
 102bb8 18000000 54010000 d0eaffff 1b000000  ....T...........
 102bc8 00450e10 410e0849 0e100000 18000000  .E..A..I........
 102bd8 70010000 d4eaffff 1e000000 00450e10  p............E..
 102be8 410e084c 0e100000 18000000 8c010000  A..L............
 102bf8 d8eaffff 1b000000 00450e10 410e0849  .........E..A..I
 102c08 0e100000 18000000 a8010000 dceaffff  ................
 102c18 1e000000 00450e10 410e084c 0e100000  .....E..A..L....
 102c28 18000000 c4010000 e0eaffff 1e000000  ................
 102c38 00450e10 410e084c 0e100000 18000000  .E..A..L........
 102c48 e0010000 e4eaffff 1e000000 00450e10  .............E..
 102c58 410e084c 0e100000 18000000 fc010000  A..L............
 102c68 e8eaffff 1e000000 00450e10 410e084c  .........E..A..L
 102c78 0e100000 18000000 18020000 eceaffff  ................
 102c88 1e000000 00450e10 410e084c 0e100000  .....E..A..L....
 102c98 18000000 34020000 f0eaffff 1b000000  ....4...........
 102ca8 00450e10 410e0849 0e100000 18000000  .E..A..I........
 102cb8 50020000 f4eaffff 1e000000 00450e10  P............E..
 102cc8 410e084c 0e100000 18000000 6c020000  A..L........l...
 102cd8 f8eaffff 1b000000 00450e10 410e0849  .........E..A..I
 102ce8 0e100000 18000000 88020000 fceaffff  ................
 102cf8 1b000000 00450e10 410e0849 0e100000  .....E..A..I....
 102d08 18000000 a4020000 00ebffff 1b000000  ................
 102d18 00450e10 410e0849 0e100000 18000000  .E..A..I........
 102d28 c0020000 04ebffff 1e000000 00450e10  .............E..
 102d38 410e084c 0e100000 18000000 dc020000  A..L............
 102d48 08ebffff 1b000000 00450e10 410e0849  .........E..A..I
 102d58 0e100000 18000000 f8020000 0cebffff  ................
 102d68 1e000000 00450e10 410e084c 0e100000  .....E..A..L....
 102d78 18000000 14030000 10ebffff 1b000000  ................
 102d88 00450e10 410e0849 0e100000 18000000  .E..A..I........
 102d98 30030000 14ebffff 1b000000 00450e10  0............E..
 102da8 410e0849 0e100000 10000000 4c030000  A..I........L...
 102db8 18ebffff 1b000000 00000000 4c000000  ............L...
 102dc8 60030000 24ebffff ec000000 00460e10  `...$........F..
 102dd8 8f02520e 188e0348 0e208d04 420e288c  ..R....H. ..B.(.
 102de8 05410e30 8606410e 38830744 0e4802b9  .A.0..A.8..D.H..
 102df8 0e3841c3 0e3041c6 0e2842cc 0e2042cd  .8A..0A..(B.. B.
 102e08 0e1842ce 0e1042cf 0e080000 10000000  ..B...B.........
 102e18 b0030000 c4ebffff 62000000 00000000  ........b.......
 102e28 18000000 c4030000 20ecffff 59000000  ........ ...Y...
 102e38 004c0e10 83020244 c30e0800 20000000  .L.....D.... ...
 102e48 e0030000 64ecffff 97000000 00450e10  ....d........E..
 102e58 8602490e 18830302 87c30e10 41c60e08  ..I.........A...
 102e68 20000000 04040000 e0ecffff 7b000000   ...........{...
 102e78 00450e10 8602490e 18830302 6bc30e10  .E....I.....k...
 102e88 41c60e08 10000000 28040000 3cedffff  A.......(...<...
 102e98 17000000 00000000 10000000 3c040000  ............<...
 102ea8 48edffff ad000000 00000000 38000000  H...........8...
 102eb8 50040000 e4edffff 92000000 00460e10  P............F..
 102ec8 8c02410e 18860344 0e208304 02740ac3  ..A....D. ...t..
 102ed8 0e1841c6 0e1042cc 0e08460b 46c30e18  ..A...B...F.F...
 102ee8 41c60e10 42cc0e08 10000000 8c040000  A...B...........
 102ef8 48eeffff 0d000000 00000000 10000000  H...............
 102f08 a0040000 44eeffff 25000000 00000000  ....D...%.......
 102f18 14000000 b4040000 60eeffff 57000000  ........`...W...
 102f28 00000000 00000000 10000000 cc040000  ................
 102f38 a8eeffff 41000000 006c0e10 18000000  ....A....l......
 102f48 e0040000 e4eeffff 7a000000 00480e10  ........z....H..
 102f58 7b0a0e08 410b0000 10000000 fc040000  {...A...........
 102f68 48efffff 4e000000 00790e10 10000000  H...N....y......
 102f78 10050000 84efffff 2e000000 00000000  ................
 102f88 20000000 24050000 a0efffff 71000000   ...$.......q...
 102f98 004d0e10 83027e0a c30e0841 0b640e08  .M....~....A.d..
 102fa8 c3000000 10000000 48050000 fcefffff  ........H.......
 102fb8 05000000 00000000 4c000000 5c050000  ........L...\...
 102fc8 f8efffff 4c010000 00460e10 8f02420e  ....L....F....B.
 102fd8 188e0342 0e208d04 420e288c 05410e30  ...B. ..B.(..A.0
 102fe8 8606410e 38830744 0e60032f 010e3841  ..A.8..D.`./..8A
 102ff8 c30e3041 c60e2842 cc0e2042 cd0e1842  ..0A..(B.. B...B
 103008 ce0e1042 cf0e0800 54000000 ac050000  ...B....T.......
 103018 f8f0ffff 3e010000 00460e10 8f02420e  ....>....F....B.
 103028 188e0342 0e208d04 420e288c 05410e30  ...B. ..B.(..A.0
 103038 8606410e 38830744 0e400291 0a0e3841  ..A.8..D.@....8A
 103048 c30e3041 c60e2842 cc0e2042 cd0e1842  ..0A..(B.. B...B
 103058 ce0e1042 cf0e0843 0b000000 00000000  ...B...C........
 103068 18000000 04060000 e0f1ffff 4a000000  ............J...
 103078 00480e10 610a0e08 450b0000 18000000  .H..a...E.......
 103088 20060000 14f2ffff 79000000 004d0e10   .......y....M..
 103098 024f0a0e 08410b00 10000000 3c060000  .O...A......<...
 1030a8 78f2ffff 28000000 00000000 10000000  x...(...........
 1030b8 50060000 94f2ffff 24000000 00000000  P.......$.......
 1030c8 10000000 64060000 b0f2ffff 21010000  ....d.......!...
 1030d8 00000000 10000000 78060000 ccf3ffff  ........x.......
 1030e8 51000000 00000000 14000000 8c060000  Q...............
 1030f8 18f4ffff 6e000000 00024d0e 10000000  ....n.....M.....
 103108 18000000 a4060000 70f4ffff d1000000  ........p.......
 103118 00480e10 027f0a0e 08410b00 14000000  .H.......A......
 103128 c0060000 34f5ffff 85000000 0002680e  ....4.........h.
 103138 10580e08 28000000 d8060000 acf5ffff  .X..(...........
 103148 3e000000 00460e10 8c02410e 18860348  >....F....A....H
 103158 0e208304 6bc30e18 41c60e10 42cc0e08  . ..k...A...B...
Contents of section .rodata.str1.8:
 103168 0a20434f 50524f43 4553534f 52205345  . COPROCESSOR SE
 103178 474d454e 54204f56 45525255 4e0a0000  GMENT OVERRUN...
 103188 0a205838 3720464c 4f415449 4e472050  . X87 FLOATING P
 103198 4f494e54 20455843 45505449 4f4e0a00  OINT EXCEPTION..
 1031a8 0a205349 4d442046 4c4f4154 494e4720  . SIMD FLOATING 
 1031b8 504f494e 54204558 43455054 494f4e0a  POINT EXCEPTION.
 1031c8 00000000 00000000 0a204859 50455256  ......... HYPERV
 1031d8 49534f52 20494e4a 45435449 4f4e2045  ISOR INJECTION E
 1031e8 58434550 54494f4e 0a000000 00000000  XCEPTION........
 1031f8 0a20564d 4d20434f 4d4d554e 49434154  . VMM COMMUNICAT
 103208 494f4e20 45584345 5054494f 4e0a0000  ION EXCEPTION...
 103218 4552524f 523a2052 5344505f 74206368  ERROR: RSDP_t ch
 103228 65636b73 756d2069 73206e6f 74207661  ecksum is not va
 103238 6c696400 00000000 4552524f 523a2058  lid.....ERROR: X
 103248 5344505f 74206368 65636b73 756d2069  SDP_t checksum i
 103258 73206e6f 74207661 6c696400 00000000  s not valid.....
 103268 4552524f 523a2058 53445420 63686563  ERROR: XSDT chec
 103278 6b73756d 20697320 6e6f7420 76616c69  ksum is not vali
 103288 64000000 00000000 0a455252 4f523a20  d........ERROR: 
 103298 63616e6e 6f742070 61727365 204d4144  cannot parse MAD
 1032a8 5420656e 74727920 6f662074 7970653a  T entry of type:
 1032b8 20000000 00000000 4552524f 523a2076   .......ERROR: v
 1032c8 69727475 616c2061 64647265 7373206d  irtual address m
 1032d8 75737420 62652070 61676520 616c6967  ust be page alig
 1032e8 6e656400 00000000 4552524f 523a2070  ned.....ERROR: p
 1032f8 68797369 63616c20 61646472 65737320  hysical address 
 103308 6d757374 20626520 70616765 20616c69  must be page ali
 103318 676e6564 00                          gned.           
Contents of section .data:
 103320 00000000 00000000 00000000 009a2000  .............. .
 103330 00000000 00920000 00001900 20331000  ............ 3..
 103340 ff0f0830 41000000 00000000 00000000  ...0A...........
 103350 00000000 0000007c 00000000 00000000  .......|........
 103360 00000000 00000000 00001818 00000000  ................
 103370 00000000 00000606 00000606 0c000000  ................
 103380 00000000 00000606 00000606 00000000  ................
 103390 0000007c c6c6c67c 0606060c 78000000  ...|...|....x...
 1033a0 0000007c c6c6c67c c6c6c6c6 7c000000  ...|...|....|...
 1033b0 000000fe c606060c 18303030 30000000  .........0000...
 1033c0 00000038 60c0c0fc c6c6c6c6 7c000000  ...8`.......|...
 1033d0 000000fe c0c0c0fc 060606c6 7c000000  ............|...
 1033e0 0000000c 1c3c6ccc ccfe0c0c 1e000000  .....<l.........
 1033f0 0000007c c606063c 060606c6 7c000000  ...|...<....|...
 103400 0000007c c6060c18 3060c0c6 fe000000  ...|....0`......
 103410 00000018 38781818 18181818 7e000000  ....8x......~...
 103420 00000038 6cc6c6d6 d6c6c66c 38000000  ...8l......l8...
 103430 00000000 0000fecc 183060c6 fe000000  .........0`.....
 103440 00000000 0000c6c6 c6c6c6c6 7e060cf8  ............~...
 103450 00000000 0000c66c 3838386c c6000000  .......l888l....
 103460 00000000 0000c6c6 d6d6d6fe 6c000000  ............l...
 103470 00000000 0000c6c6 c6c6c66c 38000000  ...........l8...
 103480 00000000 0000cccc cccccccc 76000000  ............v...
 103490 00000010 3030fc30 30303036 1c000000  ....00.00006....
 1034a0 00000000 00007cc6 60380cc6 7c000000  ......|.`8..|...
 1034b0 00000000 0000dc76 66606060 f0000000  .......vf```....
 1034c0 00000000 000076cc cccccccc 7c0c0c1e  ......v.....|...
 1034d0 00000000 0000dc66 66666666 7c6060f0  .......fffff|``.
 1034e0 00000000 00007cc6 c6c6c6c6 7c000000  ......|.....|...
 1034f0 00000000 0000dc66 66666666 66000000  .......ffffff...
 103500 00000000 0000ecfe d6d6d6d6 c6000000  ................
 103510 00000038 18181818 18181818 3c000000  ...8........<...
 103520 000000e0 6060666c 78786c66 e6000000  ....``flxxlf....
 103530 00000006 06000e06 06060606 06c6c67c  ...............|
 103540 00000018 18003818 18181818 3c000000  ......8.....<...
 103550 000000e0 60606c76 66666666 e6000000  ....``lvffff....
 103560 00000000 000076cc cccccccc 7c0ccc78  ......v.....|..x
 103570 0000001c 36323078 30303030 78000000  ....620x0000x...
 103580 00000000 00007cc6 fec0c0c6 7c000000  ......|.....|...
 103590 0000001c 0c0c3c6c cccccccc 76000000  ......<l....v...
 1035a0 00000000 00007cc6 c0c0c0c6 7c000000  ......|.....|...
 1035b0 000000e0 6060786c 66666666 7c000000  ....``xlffff|...
 1035c0 00000000 0000780c 7ccccccc 76000000  ......x.|...v...
 1035d0 000000fe c6860c18 3060c2c6 fe000000  ........0`......
 1035e0 000000c6 c6c6c6c6 7c303030 78000000  ........|000x...
 1035f0 000000c6 c66c7c38 387c6cc6 c6000000  .....l|88|l.....
 103600 000000c6 c6c6c6d6 d6d6feee 6c000000  ............l...
 103610 000000c6 c6c6c6c6 c6c66c38 10000000  ..........l8....
 103620 000000c6 c6c6c6c6 c6c6c6c6 7c000000  ............|...
 103630 0000007e 7e5a1818 18181818 3c000000  ...~~Z......<...
 103640 0000007c c6c66038 0c06c6c6 7c000000  ...|..`8....|...
 103650 000000fc 6666667c 6c666666 f6000000  ....fff|lfff....
 103660 0000007c c6c6c6c6 c6c6d6de 7c0c0e00  ...|........|...
 103670 000000fc 6666667c 60606060 f0000000  ....fff|````....
 103680 0000007c c6c6c6c6 c6c6c6c6 7c000000  ...|........|...
 103690 000000c6 e6f6fede cec6c6c6 c6000000  ................
 1036a0 000000c6 eefefed6 c6c6c6c6 c6000000  ................
 1036b0 00000078 60606060 60606266 fe000000  ...x``````bf....
 1036c0 000000e6 66646c78 786c6666 e6000000  ....fdlxxlff....
 1036d0 0000001e 0c0c0c0c 0ccccccc 78000000  ............x...
 1036e0 0000003c 18181818 18181818 3c000000  ...<........<...
 1036f0 000000c6 c6c6c6fe c6c6c6c6 c6000000  ................
 103700 0000003c 66c2c0c0 dec6c666 3a000000  ...<f......f:...
 103710 000000fe 66626878 68606060 f0000000  ....fbhxh```....
 103720 000000fe 66626878 68606266 fe000000  ....fbhxh`bf....
 103730 000000f8 6c666666 6666666c f8000000  ....lffffffl....
 103740 0000003c 66c2c0c0 c0c0c266 3c000000  ...<f......f<...
 103750 000000fc 6666667c 66666666 fc000000  ....fff|ffff....
 103760 00000010 386cc6c6 fec6c6c6 c6000000  ....8l..........
Contents of section .data.rel.local:
 103780 20404100 00000000 20404100 00000000   @A..... @A.....
 103790 20404100 00000000 20404100 00000000   @A..... @A.....
 1037a0 20404100 00000000 20404100 00000000   @A..... @A.....
 1037b0 20404100 00000000 20404100 00000000   @A..... @A.....
 1037c0 20404100 00000000 20404100 00000000   @A..... @A.....
 1037d0 20404100 00000000 20404100 00000000   @A..... @A.....
 1037e0 20404100 00000000 20404100 00000000   @A..... @A.....
 1037f0 20404100 00000000 20404100 00000000   @A..... @A.....
 103800 20404100 00000000 20404100 00000000   @A..... @A.....
 103810 20404100 00000000 20404100 00000000   @A..... @A.....
 103820 20404100 00000000 20404100 00000000   @A..... @A.....
 103830 20404100 00000000 20404100 00000000   @A..... @A.....
 103840 20404100 00000000 20404100 00000000   @A..... @A.....
 103850 20404100 00000000 20404100 00000000   @A..... @A.....
 103860 20404100 00000000 20404100 00000000   @A..... @A.....
 103870 20404100 00000000 20404100 00000000   @A..... @A.....
 103880 20404100 00000000 20404100 00000000   @A..... @A.....
 103890 20404100 00000000 20404100 00000000   @A..... @A.....
 1038a0 20404100 00000000 20404100 00000000   @A..... @A.....
 1038b0 20404100 00000000 20404100 00000000   @A..... @A.....
 1038c0 20404100 00000000 20404100 00000000   @A..... @A.....
 1038d0 20404100 00000000 20404100 00000000   @A..... @A.....
 1038e0 20404100 00000000 50331000 00000000   @A.....P3......
 1038f0 60331000 00000000 20404100 00000000  `3...... @A.....
 103900 20341000 00000000 10341000 00000000   4.......4......
 103910 00341000 00000000 f0331000 00000000  .4.......3......
 103920 e0331000 00000000 d0331000 00000000  .3.......3......
 103930 c0331000 00000000 b0331000 00000000  .3.......3......
 103940 a0331000 00000000 90331000 00000000  .3.......3......
 103950 80331000 00000000 70331000 00000000  .3......p3......
 103960 20404100 00000000 20404100 00000000   @A..... @A.....
 103970 20404100 00000000 20404100 00000000   @A..... @A.....
 103980 20404100 00000000 60371000 00000000   @A.....`7......
 103990 50371000 00000000 40371000 00000000  P7......@7......
 1039a0 30371000 00000000 20371000 00000000  07...... 7......
 1039b0 10371000 00000000 00371000 00000000  .7.......7......
 1039c0 f0361000 00000000 e0361000 00000000  .6.......6......
 1039d0 d0361000 00000000 c0361000 00000000  .6.......6......
 1039e0 b0361000 00000000 a0361000 00000000  .6.......6......
 1039f0 90361000 00000000 80361000 00000000  .6.......6......
 103a00 70361000 00000000 60361000 00000000  p6......`6......
 103a10 50361000 00000000 40361000 00000000  P6......@6......
 103a20 30361000 00000000 20361000 00000000  06...... 6......
 103a30 10361000 00000000 00361000 00000000  .6.......6......
 103a40 f0351000 00000000 e0351000 00000000  .5.......5......
 103a50 d0351000 00000000 20404100 00000000  .5...... @A.....
 103a60 20404100 00000000 20404100 00000000   @A..... @A.....
 103a70 20404100 00000000 20404100 00000000   @A..... @A.....
 103a80 20404100 00000000 c0351000 00000000   @A......5......
 103a90 b0351000 00000000 a0351000 00000000  .5.......5......
 103aa0 90351000 00000000 80351000 00000000  .5.......5......
 103ab0 70351000 00000000 60351000 00000000  p5......`5......
 103ac0 50351000 00000000 40351000 00000000  P5......@5......
 103ad0 30351000 00000000 20351000 00000000  05...... 5......
 103ae0 10351000 00000000 00351000 00000000  .5.......5......
 103af0 f0341000 00000000 e0341000 00000000  .4.......4......
 103b00 d0341000 00000000 c0341000 00000000  .4.......4......
 103b10 b0341000 00000000 a0341000 00000000  .4.......4......
 103b20 90341000 00000000 80341000 00000000  .4.......4......
 103b30 70341000 00000000 60341000 00000000  p4......`4......
 103b40 50341000 00000000 40341000 00000000  P4......@4......
 103b50 30341000 00000000 20404100 00000000  04...... @A.....
 103b60 20404100 00000000 20404100 00000000   @A..... @A.....
 103b70 20404100 00000000 20404100 00000000   @A..... @A.....

Disassembly of section .multiboot2:

0000000000100000 <header_start>:
  100000:	d6                   	(bad)  
  100001:	50                   	push   %rax
  100002:	52                   	push   %rdx
  100003:	e8 00 00 00 00       	call   100008 <header_start+0x8>
  100008:	30 00                	xor    %al,(%rax)
  10000a:	00 00                	add    %al,(%rax)
  10000c:	fa                   	cli    
  10000d:	ae                   	scas   %es:(%rdi),%al
  10000e:	ad                   	lods   %ds:(%rsi),%eax
  10000f:	17                   	(bad)  
  100010:	05 00 00 00 14       	add    $0x14000000,%eax
  100015:	00 00                	add    %al,(%rax)
  100017:	00 80 07 00 00 38    	add    %al,0x38000007(%rax)
  10001d:	04 00                	add    $0x0,%al
  10001f:	00 20                	add    %ah,(%rax)
  100021:	00 00                	add    %al,(%rax)
  100023:	00 90 90 90 90 00    	add    %dl,0x909090(%rax)
  100029:	00 00                	add    %al,(%rax)
  10002b:	00 08                	add    %cl,(%rax)
  10002d:	00 00                	add    %al,(%rax)
	...

Disassembly of section .sysvar:

0000000000100030 <tm>:
	...

0000000000100060 <fb>:
	...

0000000000100080 <bi>:
	...

Disassembly of section .text:

0000000000100130 <loader>:
  100130:	bc 08 30 41 00       	mov    $0x413008,%esp
  100135:	bd 08 30 41 00       	mov    $0x413008,%ebp
  10013a:	89 1d 10 40 41 00    	mov    %ebx,0x414010(%rip)        # 514150 <Not_implemented_yet+0x100130>
  100140:	a3 0c 40 41 00 e8 52 	movabs %eax,0x52e80041400c
  100147:	00 00 
  100149:	00 e8                	add    %ch,%al
  10014b:	5c                   	pop    %rsp
  10014c:	00 00                	add    %al,(%rax)
  10014e:	00 e8                	add    %ch,%al
  100150:	72 00                	jb     100152 <loader+0x22>
  100152:	00 00                	add    %al,(%rax)
  100154:	e8 92 00 00 00       	call   1001eb <set_up_page_tables>
  100159:	e8 c9 00 00 00       	call   100227 <enable_paging>
  10015e:	0f 01 15 3a 33 10 00 	lgdt   0x10333a(%rip)        # 20349f <p2_table+0x149f>
  100165:	ea                   	(bad)  
  100166:	6c                   	insb   (%dx),%es:(%rdi)
  100167:	01 10                	add    %edx,(%rax)
  100169:	00 08                	add    %cl,(%rax)
	...

000000000010016c <longmode>:
  10016c:	66 b8 10 00          	mov    $0x10,%ax
  100170:	8e d8                	mov    %eax,%ds
  100172:	8e c0                	mov    %eax,%es
  100174:	8e e0                	mov    %eax,%fs
  100176:	8e e8                	mov    %eax,%gs
  100178:	8e d0                	mov    %eax,%ss
  10017a:	e9 cc 0a 00 00       	jmp    100c4b <enable_interrupts>

000000000010017f <interrupts_enabled>:
  10017f:	31 c9                	xor    %ecx,%ecx
  100181:	31 ff                	xor    %edi,%edi
  100183:	48 31 f6             	xor    %rsi,%rsi
  100186:	8b 3c 25 10 40 41 00 	mov    0x414010,%edi
  10018d:	8b 34 25 0c 40 41 00 	mov    0x41400c,%esi
  100194:	e8 97 11 00 00       	call   101330 <kernelmain>

0000000000100199 <loop>:
  100199:	f4                   	hlt    
  10019a:	eb fd                	jmp    100199 <loop>

000000000010019c <check_multiboot>:
  10019c:	3d 89 62 d7 36       	cmp    $0x36d76289,%eax
  1001a1:	75 01                	jne    1001a4 <check_multiboot.no_multiboot>
  1001a3:	c3                   	ret    

00000000001001a4 <check_multiboot.no_multiboot>:
  1001a4:	b0 30                	mov    $0x30,%al
  1001a6:	e9 8c 0e 00 00       	jmp    101037 <error>

00000000001001ab <check_cpuid>:
  1001ab:	9c                   	pushf  
  1001ac:	58                   	pop    %rax
  1001ad:	89 c1                	mov    %eax,%ecx
  1001af:	35 00 00 20 00       	xor    $0x200000,%eax
  1001b4:	50                   	push   %rax
  1001b5:	9d                   	popf   
  1001b6:	9c                   	pushf  
  1001b7:	58                   	pop    %rax
  1001b8:	51                   	push   %rcx
  1001b9:	9d                   	popf   
  1001ba:	39 c8                	cmp    %ecx,%eax
  1001bc:	74 01                	je     1001bf <check_cpuid.no_cpuid>
  1001be:	c3                   	ret    

00000000001001bf <check_cpuid.no_cpuid>:
  1001bf:	b0 31                	mov    $0x31,%al
  1001c1:	e9 71 0e 00 00       	jmp    101037 <error>

00000000001001c6 <check_long_mode>:
  1001c6:	b8 00 00 00 80       	mov    $0x80000000,%eax
  1001cb:	0f a2                	cpuid  
  1001cd:	3d 01 00 00 80       	cmp    $0x80000001,%eax
  1001d2:	72 10                	jb     1001e4 <check_long_mode.no_long_mode>
  1001d4:	b8 01 00 00 80       	mov    $0x80000001,%eax
  1001d9:	0f a2                	cpuid  
  1001db:	f7 c2 00 00 00 20    	test   $0x20000000,%edx
  1001e1:	74 01                	je     1001e4 <check_long_mode.no_long_mode>
  1001e3:	c3                   	ret    

00000000001001e4 <check_long_mode.no_long_mode>:
  1001e4:	b0 32                	mov    $0x32,%al
  1001e6:	e9 4c 0e 00 00       	jmp    101037 <error>

00000000001001eb <set_up_page_tables>:
  1001eb:	b8 00 10 20 00       	mov    $0x201000,%eax
  1001f0:	83 c8 03             	or     $0x3,%eax
  1001f3:	a3 00 00 20 00 b8 00 	movabs %eax,0x202000b800200000
  1001fa:	20 20 
  1001fc:	00 83 c8 03 a3 00    	add    %al,0xa303c8(%rbx)
  100202:	10 20                	adc    %ah,(%rax)
  100204:	00 b9 00 00 00 00    	add    %bh,0x0(%rcx)

000000000010020a <set_up_page_tables.map_p2_table>:
  10020a:	b8 00 00 20 00       	mov    $0x200000,%eax
  10020f:	f7 e1                	mul    %ecx
  100211:	0d 83 00 00 00       	or     $0x83,%eax
  100216:	89 04 cd 00 20 20 00 	mov    %eax,0x202000(,%rcx,8)
  10021d:	41 81 f9 00 02 00 00 	cmp    $0x200,%r9d
  100224:	75 e4                	jne    10020a <set_up_page_tables.map_p2_table>
  100226:	c3                   	ret    

0000000000100227 <enable_paging>:
  100227:	b8 00 00 20 00       	mov    $0x200000,%eax
  10022c:	0f 22 d8             	mov    %rax,%cr3
  10022f:	0f 20 e0             	mov    %cr4,%rax
  100232:	0d b0 00 00 00       	or     $0xb0,%eax
  100237:	0f 22 e0             	mov    %rax,%cr4
  10023a:	b9 80 00 00 c0       	mov    $0xc0000080,%ecx
  10023f:	0f 32                	rdmsr  
  100241:	0d 00 01 00 00       	or     $0x100,%eax
  100246:	0f 30                	wrmsr  
  100248:	0f 20 c0             	mov    %cr0,%rax
  10024b:	0d 00 00 00 80       	or     $0x80000000,%eax
  100250:	0f 22 c0             	mov    %rax,%cr0
  100253:	c3                   	ret    

0000000000100254 <int0>:
  100254:	fa                   	cli    
  100255:	fc                   	cld    
  100256:	50                   	push   %rax
  100257:	53                   	push   %rbx
  100258:	51                   	push   %rcx
  100259:	52                   	push   %rdx
  10025a:	56                   	push   %rsi
  10025b:	57                   	push   %rdi
  10025c:	55                   	push   %rbp
  10025d:	41 50                	push   %r8
  10025f:	41 51                	push   %r9
  100261:	41 52                	push   %r10
  100263:	41 53                	push   %r11
  100265:	41 54                	push   %r12
  100267:	41 55                	push   %r13
  100269:	41 56                	push   %r14
  10026b:	41 57                	push   %r15
  10026d:	48 89 e7             	mov    %rsp,%rdi
  100270:	e8 3b 13 00 00       	call   1015b0 <division_error>
  100275:	41 5f                	pop    %r15
  100277:	41 5e                	pop    %r14
  100279:	41 5d                	pop    %r13
  10027b:	41 5c                	pop    %r12
  10027d:	41 5b                	pop    %r11
  10027f:	41 5a                	pop    %r10
  100281:	41 59                	pop    %r9
  100283:	41 58                	pop    %r8
  100285:	5d                   	pop    %rbp
  100286:	5f                   	pop    %rdi
  100287:	5e                   	pop    %rsi
  100288:	5a                   	pop    %rdx
  100289:	59                   	pop    %rcx
  10028a:	5b                   	pop    %rbx
  10028b:	58                   	pop    %rax
  10028c:	cf                   	iret   

000000000010028d <int1>:
  10028d:	fa                   	cli    
  10028e:	fc                   	cld    
  10028f:	50                   	push   %rax
  100290:	53                   	push   %rbx
  100291:	51                   	push   %rcx
  100292:	52                   	push   %rdx
  100293:	56                   	push   %rsi
  100294:	57                   	push   %rdi
  100295:	55                   	push   %rbp
  100296:	41 50                	push   %r8
  100298:	41 51                	push   %r9
  10029a:	41 52                	push   %r10
  10029c:	41 53                	push   %r11
  10029e:	41 54                	push   %r12
  1002a0:	41 55                	push   %r13
  1002a2:	41 56                	push   %r14
  1002a4:	41 57                	push   %r15
  1002a6:	48 89 e7             	mov    %rsp,%rdi
  1002a9:	e8 22 13 00 00       	call   1015d0 <debug>
  1002ae:	41 5f                	pop    %r15
  1002b0:	41 5e                	pop    %r14
  1002b2:	41 5d                	pop    %r13
  1002b4:	41 5c                	pop    %r12
  1002b6:	41 5b                	pop    %r11
  1002b8:	41 5a                	pop    %r10
  1002ba:	41 59                	pop    %r9
  1002bc:	41 58                	pop    %r8
  1002be:	5d                   	pop    %rbp
  1002bf:	5f                   	pop    %rdi
  1002c0:	5e                   	pop    %rsi
  1002c1:	5a                   	pop    %rdx
  1002c2:	59                   	pop    %rcx
  1002c3:	5b                   	pop    %rbx
  1002c4:	58                   	pop    %rax
  1002c5:	cf                   	iret   

00000000001002c6 <int2>:
  1002c6:	fa                   	cli    
  1002c7:	fc                   	cld    
  1002c8:	50                   	push   %rax
  1002c9:	53                   	push   %rbx
  1002ca:	51                   	push   %rcx
  1002cb:	52                   	push   %rdx
  1002cc:	56                   	push   %rsi
  1002cd:	57                   	push   %rdi
  1002ce:	55                   	push   %rbp
  1002cf:	41 50                	push   %r8
  1002d1:	41 51                	push   %r9
  1002d3:	41 52                	push   %r10
  1002d5:	41 53                	push   %r11
  1002d7:	41 54                	push   %r12
  1002d9:	41 55                	push   %r13
  1002db:	41 56                	push   %r14
  1002dd:	41 57                	push   %r15
  1002df:	48 89 e7             	mov    %rsp,%rdi
  1002e2:	e8 09 13 00 00       	call   1015f0 <non_maskable_interrupt>
  1002e7:	41 5f                	pop    %r15
  1002e9:	41 5e                	pop    %r14
  1002eb:	41 5d                	pop    %r13
  1002ed:	41 5c                	pop    %r12
  1002ef:	41 5b                	pop    %r11
  1002f1:	41 5a                	pop    %r10
  1002f3:	41 59                	pop    %r9
  1002f5:	41 58                	pop    %r8
  1002f7:	5d                   	pop    %rbp
  1002f8:	5f                   	pop    %rdi
  1002f9:	5e                   	pop    %rsi
  1002fa:	5a                   	pop    %rdx
  1002fb:	59                   	pop    %rcx
  1002fc:	5b                   	pop    %rbx
  1002fd:	58                   	pop    %rax
  1002fe:	cf                   	iret   

00000000001002ff <int3>:
  1002ff:	fa                   	cli    
  100300:	fc                   	cld    
  100301:	50                   	push   %rax
  100302:	53                   	push   %rbx
  100303:	51                   	push   %rcx
  100304:	52                   	push   %rdx
  100305:	56                   	push   %rsi
  100306:	57                   	push   %rdi
  100307:	55                   	push   %rbp
  100308:	41 50                	push   %r8
  10030a:	41 51                	push   %r9
  10030c:	41 52                	push   %r10
  10030e:	41 53                	push   %r11
  100310:	41 54                	push   %r12
  100312:	41 55                	push   %r13
  100314:	41 56                	push   %r14
  100316:	41 57                	push   %r15
  100318:	48 89 e7             	mov    %rsp,%rdi
  10031b:	e8 f0 12 00 00       	call   101610 <breakpoint>
  100320:	41 5f                	pop    %r15
  100322:	41 5e                	pop    %r14
  100324:	41 5d                	pop    %r13
  100326:	41 5c                	pop    %r12
  100328:	41 5b                	pop    %r11
  10032a:	41 5a                	pop    %r10
  10032c:	41 59                	pop    %r9
  10032e:	41 58                	pop    %r8
  100330:	5d                   	pop    %rbp
  100331:	5f                   	pop    %rdi
  100332:	5e                   	pop    %rsi
  100333:	5a                   	pop    %rdx
  100334:	59                   	pop    %rcx
  100335:	5b                   	pop    %rbx
  100336:	58                   	pop    %rax
  100337:	cf                   	iret   

0000000000100338 <int4>:
  100338:	fa                   	cli    
  100339:	fc                   	cld    
  10033a:	50                   	push   %rax
  10033b:	53                   	push   %rbx
  10033c:	51                   	push   %rcx
  10033d:	52                   	push   %rdx
  10033e:	56                   	push   %rsi
  10033f:	57                   	push   %rdi
  100340:	55                   	push   %rbp
  100341:	41 50                	push   %r8
  100343:	41 51                	push   %r9
  100345:	41 52                	push   %r10
  100347:	41 53                	push   %r11
  100349:	41 54                	push   %r12
  10034b:	41 55                	push   %r13
  10034d:	41 56                	push   %r14
  10034f:	41 57                	push   %r15
  100351:	48 89 e7             	mov    %rsp,%rdi
  100354:	e8 d7 12 00 00       	call   101630 <overflow>
  100359:	41 5f                	pop    %r15
  10035b:	41 5e                	pop    %r14
  10035d:	41 5d                	pop    %r13
  10035f:	41 5c                	pop    %r12
  100361:	41 5b                	pop    %r11
  100363:	41 5a                	pop    %r10
  100365:	41 59                	pop    %r9
  100367:	41 58                	pop    %r8
  100369:	5d                   	pop    %rbp
  10036a:	5f                   	pop    %rdi
  10036b:	5e                   	pop    %rsi
  10036c:	5a                   	pop    %rdx
  10036d:	59                   	pop    %rcx
  10036e:	5b                   	pop    %rbx
  10036f:	58                   	pop    %rax
  100370:	cf                   	iret   

0000000000100371 <int5>:
  100371:	fa                   	cli    
  100372:	fc                   	cld    
  100373:	50                   	push   %rax
  100374:	53                   	push   %rbx
  100375:	51                   	push   %rcx
  100376:	52                   	push   %rdx
  100377:	56                   	push   %rsi
  100378:	57                   	push   %rdi
  100379:	55                   	push   %rbp
  10037a:	41 50                	push   %r8
  10037c:	41 51                	push   %r9
  10037e:	41 52                	push   %r10
  100380:	41 53                	push   %r11
  100382:	41 54                	push   %r12
  100384:	41 55                	push   %r13
  100386:	41 56                	push   %r14
  100388:	41 57                	push   %r15
  10038a:	48 89 e7             	mov    %rsp,%rdi
  10038d:	e8 be 12 00 00       	call   101650 <bound_range_exceeded>
  100392:	41 5f                	pop    %r15
  100394:	41 5e                	pop    %r14
  100396:	41 5d                	pop    %r13
  100398:	41 5c                	pop    %r12
  10039a:	41 5b                	pop    %r11
  10039c:	41 5a                	pop    %r10
  10039e:	41 59                	pop    %r9
  1003a0:	41 58                	pop    %r8
  1003a2:	5d                   	pop    %rbp
  1003a3:	5f                   	pop    %rdi
  1003a4:	5e                   	pop    %rsi
  1003a5:	5a                   	pop    %rdx
  1003a6:	59                   	pop    %rcx
  1003a7:	5b                   	pop    %rbx
  1003a8:	58                   	pop    %rax
  1003a9:	cf                   	iret   

00000000001003aa <int6>:
  1003aa:	fa                   	cli    
  1003ab:	fc                   	cld    
  1003ac:	50                   	push   %rax
  1003ad:	53                   	push   %rbx
  1003ae:	51                   	push   %rcx
  1003af:	52                   	push   %rdx
  1003b0:	56                   	push   %rsi
  1003b1:	57                   	push   %rdi
  1003b2:	55                   	push   %rbp
  1003b3:	41 50                	push   %r8
  1003b5:	41 51                	push   %r9
  1003b7:	41 52                	push   %r10
  1003b9:	41 53                	push   %r11
  1003bb:	41 54                	push   %r12
  1003bd:	41 55                	push   %r13
  1003bf:	41 56                	push   %r14
  1003c1:	41 57                	push   %r15
  1003c3:	48 89 e7             	mov    %rsp,%rdi
  1003c6:	e8 a5 12 00 00       	call   101670 <invalid_opcode>
  1003cb:	41 5f                	pop    %r15
  1003cd:	41 5e                	pop    %r14
  1003cf:	41 5d                	pop    %r13
  1003d1:	41 5c                	pop    %r12
  1003d3:	41 5b                	pop    %r11
  1003d5:	41 5a                	pop    %r10
  1003d7:	41 59                	pop    %r9
  1003d9:	41 58                	pop    %r8
  1003db:	5d                   	pop    %rbp
  1003dc:	5f                   	pop    %rdi
  1003dd:	5e                   	pop    %rsi
  1003de:	5a                   	pop    %rdx
  1003df:	59                   	pop    %rcx
  1003e0:	5b                   	pop    %rbx
  1003e1:	58                   	pop    %rax
  1003e2:	cf                   	iret   

00000000001003e3 <int7>:
  1003e3:	fa                   	cli    
  1003e4:	fc                   	cld    
  1003e5:	50                   	push   %rax
  1003e6:	53                   	push   %rbx
  1003e7:	51                   	push   %rcx
  1003e8:	52                   	push   %rdx
  1003e9:	56                   	push   %rsi
  1003ea:	57                   	push   %rdi
  1003eb:	55                   	push   %rbp
  1003ec:	41 50                	push   %r8
  1003ee:	41 51                	push   %r9
  1003f0:	41 52                	push   %r10
  1003f2:	41 53                	push   %r11
  1003f4:	41 54                	push   %r12
  1003f6:	41 55                	push   %r13
  1003f8:	41 56                	push   %r14
  1003fa:	41 57                	push   %r15
  1003fc:	48 89 e7             	mov    %rsp,%rdi
  1003ff:	e8 8c 12 00 00       	call   101690 <device_not_available>
  100404:	41 5f                	pop    %r15
  100406:	41 5e                	pop    %r14
  100408:	41 5d                	pop    %r13
  10040a:	41 5c                	pop    %r12
  10040c:	41 5b                	pop    %r11
  10040e:	41 5a                	pop    %r10
  100410:	41 59                	pop    %r9
  100412:	41 58                	pop    %r8
  100414:	5d                   	pop    %rbp
  100415:	5f                   	pop    %rdi
  100416:	5e                   	pop    %rsi
  100417:	5a                   	pop    %rdx
  100418:	59                   	pop    %rcx
  100419:	5b                   	pop    %rbx
  10041a:	58                   	pop    %rax
  10041b:	cf                   	iret   

000000000010041c <int8>:
  10041c:	fa                   	cli    
  10041d:	fc                   	cld    
  10041e:	50                   	push   %rax
  10041f:	53                   	push   %rbx
  100420:	51                   	push   %rcx
  100421:	52                   	push   %rdx
  100422:	56                   	push   %rsi
  100423:	57                   	push   %rdi
  100424:	55                   	push   %rbp
  100425:	41 50                	push   %r8
  100427:	41 51                	push   %r9
  100429:	41 52                	push   %r10
  10042b:	41 53                	push   %r11
  10042d:	41 54                	push   %r12
  10042f:	41 55                	push   %r13
  100431:	41 56                	push   %r14
  100433:	41 57                	push   %r15
  100435:	48 89 e7             	mov    %rsp,%rdi
  100438:	e8 73 12 00 00       	call   1016b0 <double_fault>
  10043d:	41 5f                	pop    %r15
  10043f:	41 5e                	pop    %r14
  100441:	41 5d                	pop    %r13
  100443:	41 5c                	pop    %r12
  100445:	41 5b                	pop    %r11
  100447:	41 5a                	pop    %r10
  100449:	41 59                	pop    %r9
  10044b:	41 58                	pop    %r8
  10044d:	5d                   	pop    %rbp
  10044e:	5f                   	pop    %rdi
  10044f:	5e                   	pop    %rsi
  100450:	5a                   	pop    %rdx
  100451:	59                   	pop    %rcx
  100452:	5b                   	pop    %rbx
  100453:	58                   	pop    %rax
  100454:	cf                   	iret   

0000000000100455 <int9>:
  100455:	fa                   	cli    
  100456:	fc                   	cld    
  100457:	50                   	push   %rax
  100458:	53                   	push   %rbx
  100459:	51                   	push   %rcx
  10045a:	52                   	push   %rdx
  10045b:	56                   	push   %rsi
  10045c:	57                   	push   %rdi
  10045d:	55                   	push   %rbp
  10045e:	41 50                	push   %r8
  100460:	41 51                	push   %r9
  100462:	41 52                	push   %r10
  100464:	41 53                	push   %r11
  100466:	41 54                	push   %r12
  100468:	41 55                	push   %r13
  10046a:	41 56                	push   %r14
  10046c:	41 57                	push   %r15
  10046e:	48 89 e7             	mov    %rsp,%rdi
  100471:	e8 5a 12 00 00       	call   1016d0 <coprocessor_segment_overrun>
  100476:	41 5f                	pop    %r15
  100478:	41 5e                	pop    %r14
  10047a:	41 5d                	pop    %r13
  10047c:	41 5c                	pop    %r12
  10047e:	41 5b                	pop    %r11
  100480:	41 5a                	pop    %r10
  100482:	41 59                	pop    %r9
  100484:	41 58                	pop    %r8
  100486:	5d                   	pop    %rbp
  100487:	5f                   	pop    %rdi
  100488:	5e                   	pop    %rsi
  100489:	5a                   	pop    %rdx
  10048a:	59                   	pop    %rcx
  10048b:	5b                   	pop    %rbx
  10048c:	58                   	pop    %rax
  10048d:	cf                   	iret   

000000000010048e <int10>:
  10048e:	fa                   	cli    
  10048f:	fc                   	cld    
  100490:	50                   	push   %rax
  100491:	53                   	push   %rbx
  100492:	51                   	push   %rcx
  100493:	52                   	push   %rdx
  100494:	56                   	push   %rsi
  100495:	57                   	push   %rdi
  100496:	55                   	push   %rbp
  100497:	41 50                	push   %r8
  100499:	41 51                	push   %r9
  10049b:	41 52                	push   %r10
  10049d:	41 53                	push   %r11
  10049f:	41 54                	push   %r12
  1004a1:	41 55                	push   %r13
  1004a3:	41 56                	push   %r14
  1004a5:	41 57                	push   %r15
  1004a7:	48 89 e7             	mov    %rsp,%rdi
  1004aa:	e8 41 12 00 00       	call   1016f0 <invalid_tss>
  1004af:	41 5f                	pop    %r15
  1004b1:	41 5e                	pop    %r14
  1004b3:	41 5d                	pop    %r13
  1004b5:	41 5c                	pop    %r12
  1004b7:	41 5b                	pop    %r11
  1004b9:	41 5a                	pop    %r10
  1004bb:	41 59                	pop    %r9
  1004bd:	41 58                	pop    %r8
  1004bf:	5d                   	pop    %rbp
  1004c0:	5f                   	pop    %rdi
  1004c1:	5e                   	pop    %rsi
  1004c2:	5a                   	pop    %rdx
  1004c3:	59                   	pop    %rcx
  1004c4:	5b                   	pop    %rbx
  1004c5:	58                   	pop    %rax
  1004c6:	cf                   	iret   

00000000001004c7 <int11>:
  1004c7:	fa                   	cli    
  1004c8:	fc                   	cld    
  1004c9:	50                   	push   %rax
  1004ca:	53                   	push   %rbx
  1004cb:	51                   	push   %rcx
  1004cc:	52                   	push   %rdx
  1004cd:	56                   	push   %rsi
  1004ce:	57                   	push   %rdi
  1004cf:	55                   	push   %rbp
  1004d0:	41 50                	push   %r8
  1004d2:	41 51                	push   %r9
  1004d4:	41 52                	push   %r10
  1004d6:	41 53                	push   %r11
  1004d8:	41 54                	push   %r12
  1004da:	41 55                	push   %r13
  1004dc:	41 56                	push   %r14
  1004de:	41 57                	push   %r15
  1004e0:	48 89 e7             	mov    %rsp,%rdi
  1004e3:	e8 28 12 00 00       	call   101710 <segment_not_present>
  1004e8:	41 5f                	pop    %r15
  1004ea:	41 5e                	pop    %r14
  1004ec:	41 5d                	pop    %r13
  1004ee:	41 5c                	pop    %r12
  1004f0:	41 5b                	pop    %r11
  1004f2:	41 5a                	pop    %r10
  1004f4:	41 59                	pop    %r9
  1004f6:	41 58                	pop    %r8
  1004f8:	5d                   	pop    %rbp
  1004f9:	5f                   	pop    %rdi
  1004fa:	5e                   	pop    %rsi
  1004fb:	5a                   	pop    %rdx
  1004fc:	59                   	pop    %rcx
  1004fd:	5b                   	pop    %rbx
  1004fe:	58                   	pop    %rax
  1004ff:	cf                   	iret   

0000000000100500 <int12>:
  100500:	fa                   	cli    
  100501:	fc                   	cld    
  100502:	50                   	push   %rax
  100503:	53                   	push   %rbx
  100504:	51                   	push   %rcx
  100505:	52                   	push   %rdx
  100506:	56                   	push   %rsi
  100507:	57                   	push   %rdi
  100508:	55                   	push   %rbp
  100509:	41 50                	push   %r8
  10050b:	41 51                	push   %r9
  10050d:	41 52                	push   %r10
  10050f:	41 53                	push   %r11
  100511:	41 54                	push   %r12
  100513:	41 55                	push   %r13
  100515:	41 56                	push   %r14
  100517:	41 57                	push   %r15
  100519:	48 89 e7             	mov    %rsp,%rdi
  10051c:	e8 0f 12 00 00       	call   101730 <stack_segment_fault>
  100521:	41 5f                	pop    %r15
  100523:	41 5e                	pop    %r14
  100525:	41 5d                	pop    %r13
  100527:	41 5c                	pop    %r12
  100529:	41 5b                	pop    %r11
  10052b:	41 5a                	pop    %r10
  10052d:	41 59                	pop    %r9
  10052f:	41 58                	pop    %r8
  100531:	5d                   	pop    %rbp
  100532:	5f                   	pop    %rdi
  100533:	5e                   	pop    %rsi
  100534:	5a                   	pop    %rdx
  100535:	59                   	pop    %rcx
  100536:	5b                   	pop    %rbx
  100537:	58                   	pop    %rax
  100538:	cf                   	iret   

0000000000100539 <int13>:
  100539:	fa                   	cli    
  10053a:	fc                   	cld    
  10053b:	50                   	push   %rax
  10053c:	53                   	push   %rbx
  10053d:	51                   	push   %rcx
  10053e:	52                   	push   %rdx
  10053f:	56                   	push   %rsi
  100540:	57                   	push   %rdi
  100541:	55                   	push   %rbp
  100542:	41 50                	push   %r8
  100544:	41 51                	push   %r9
  100546:	41 52                	push   %r10
  100548:	41 53                	push   %r11
  10054a:	41 54                	push   %r12
  10054c:	41 55                	push   %r13
  10054e:	41 56                	push   %r14
  100550:	41 57                	push   %r15
  100552:	48 89 e7             	mov    %rsp,%rdi
  100555:	e8 f6 11 00 00       	call   101750 <general_protection_fault>
  10055a:	41 5f                	pop    %r15
  10055c:	41 5e                	pop    %r14
  10055e:	41 5d                	pop    %r13
  100560:	41 5c                	pop    %r12
  100562:	41 5b                	pop    %r11
  100564:	41 5a                	pop    %r10
  100566:	41 59                	pop    %r9
  100568:	41 58                	pop    %r8
  10056a:	5d                   	pop    %rbp
  10056b:	5f                   	pop    %rdi
  10056c:	5e                   	pop    %rsi
  10056d:	5a                   	pop    %rdx
  10056e:	59                   	pop    %rcx
  10056f:	5b                   	pop    %rbx
  100570:	58                   	pop    %rax
  100571:	cf                   	iret   

0000000000100572 <int14>:
  100572:	fa                   	cli    
  100573:	fc                   	cld    
  100574:	50                   	push   %rax
  100575:	53                   	push   %rbx
  100576:	51                   	push   %rcx
  100577:	52                   	push   %rdx
  100578:	56                   	push   %rsi
  100579:	57                   	push   %rdi
  10057a:	55                   	push   %rbp
  10057b:	41 50                	push   %r8
  10057d:	41 51                	push   %r9
  10057f:	41 52                	push   %r10
  100581:	41 53                	push   %r11
  100583:	41 54                	push   %r12
  100585:	41 55                	push   %r13
  100587:	41 56                	push   %r14
  100589:	41 57                	push   %r15
  10058b:	48 89 e7             	mov    %rsp,%rdi
  10058e:	e8 dd 11 00 00       	call   101770 <page_fault>
  100593:	41 5f                	pop    %r15
  100595:	41 5e                	pop    %r14
  100597:	41 5d                	pop    %r13
  100599:	41 5c                	pop    %r12
  10059b:	41 5b                	pop    %r11
  10059d:	41 5a                	pop    %r10
  10059f:	41 59                	pop    %r9
  1005a1:	41 58                	pop    %r8
  1005a3:	5d                   	pop    %rbp
  1005a4:	5f                   	pop    %rdi
  1005a5:	5e                   	pop    %rsi
  1005a6:	5a                   	pop    %rdx
  1005a7:	59                   	pop    %rcx
  1005a8:	5b                   	pop    %rbx
  1005a9:	58                   	pop    %rax
  1005aa:	cf                   	iret   

00000000001005ab <int15>:
  1005ab:	fa                   	cli    
  1005ac:	fc                   	cld    
  1005ad:	50                   	push   %rax
  1005ae:	53                   	push   %rbx
  1005af:	51                   	push   %rcx
  1005b0:	52                   	push   %rdx
  1005b1:	56                   	push   %rsi
  1005b2:	57                   	push   %rdi
  1005b3:	55                   	push   %rbp
  1005b4:	41 50                	push   %r8
  1005b6:	41 51                	push   %r9
  1005b8:	41 52                	push   %r10
  1005ba:	41 53                	push   %r11
  1005bc:	41 54                	push   %r12
  1005be:	41 55                	push   %r13
  1005c0:	41 56                	push   %r14
  1005c2:	41 57                	push   %r15
  1005c4:	48 89 e7             	mov    %rsp,%rdi
  1005c7:	e8 c4 11 00 00       	call   101790 <x87_floating_point_exception>
  1005cc:	41 5f                	pop    %r15
  1005ce:	41 5e                	pop    %r14
  1005d0:	41 5d                	pop    %r13
  1005d2:	41 5c                	pop    %r12
  1005d4:	41 5b                	pop    %r11
  1005d6:	41 5a                	pop    %r10
  1005d8:	41 59                	pop    %r9
  1005da:	41 58                	pop    %r8
  1005dc:	5d                   	pop    %rbp
  1005dd:	5f                   	pop    %rdi
  1005de:	5e                   	pop    %rsi
  1005df:	5a                   	pop    %rdx
  1005e0:	59                   	pop    %rcx
  1005e1:	5b                   	pop    %rbx
  1005e2:	58                   	pop    %rax
  1005e3:	cf                   	iret   

00000000001005e4 <int17>:
  1005e4:	fa                   	cli    
  1005e5:	fc                   	cld    
  1005e6:	50                   	push   %rax
  1005e7:	53                   	push   %rbx
  1005e8:	51                   	push   %rcx
  1005e9:	52                   	push   %rdx
  1005ea:	56                   	push   %rsi
  1005eb:	57                   	push   %rdi
  1005ec:	55                   	push   %rbp
  1005ed:	41 50                	push   %r8
  1005ef:	41 51                	push   %r9
  1005f1:	41 52                	push   %r10
  1005f3:	41 53                	push   %r11
  1005f5:	41 54                	push   %r12
  1005f7:	41 55                	push   %r13
  1005f9:	41 56                	push   %r14
  1005fb:	41 57                	push   %r15
  1005fd:	48 89 e7             	mov    %rsp,%rdi
  100600:	e8 ab 11 00 00       	call   1017b0 <alignment_check>
  100605:	41 5f                	pop    %r15
  100607:	41 5e                	pop    %r14
  100609:	41 5d                	pop    %r13
  10060b:	41 5c                	pop    %r12
  10060d:	41 5b                	pop    %r11
  10060f:	41 5a                	pop    %r10
  100611:	41 59                	pop    %r9
  100613:	41 58                	pop    %r8
  100615:	5d                   	pop    %rbp
  100616:	5f                   	pop    %rdi
  100617:	5e                   	pop    %rsi
  100618:	5a                   	pop    %rdx
  100619:	59                   	pop    %rcx
  10061a:	5b                   	pop    %rbx
  10061b:	58                   	pop    %rax
  10061c:	cf                   	iret   

000000000010061d <int18>:
  10061d:	fa                   	cli    
  10061e:	fc                   	cld    
  10061f:	50                   	push   %rax
  100620:	53                   	push   %rbx
  100621:	51                   	push   %rcx
  100622:	52                   	push   %rdx
  100623:	56                   	push   %rsi
  100624:	57                   	push   %rdi
  100625:	55                   	push   %rbp
  100626:	41 50                	push   %r8
  100628:	41 51                	push   %r9
  10062a:	41 52                	push   %r10
  10062c:	41 53                	push   %r11
  10062e:	41 54                	push   %r12
  100630:	41 55                	push   %r13
  100632:	41 56                	push   %r14
  100634:	41 57                	push   %r15
  100636:	48 89 e7             	mov    %rsp,%rdi
  100639:	e8 92 11 00 00       	call   1017d0 <machine_check>
  10063e:	41 5f                	pop    %r15
  100640:	41 5e                	pop    %r14
  100642:	41 5d                	pop    %r13
  100644:	41 5c                	pop    %r12
  100646:	41 5b                	pop    %r11
  100648:	41 5a                	pop    %r10
  10064a:	41 59                	pop    %r9
  10064c:	41 58                	pop    %r8
  10064e:	5d                   	pop    %rbp
  10064f:	5f                   	pop    %rdi
  100650:	5e                   	pop    %rsi
  100651:	5a                   	pop    %rdx
  100652:	59                   	pop    %rcx
  100653:	5b                   	pop    %rbx
  100654:	58                   	pop    %rax
  100655:	cf                   	iret   

0000000000100656 <int19>:
  100656:	fa                   	cli    
  100657:	fc                   	cld    
  100658:	50                   	push   %rax
  100659:	53                   	push   %rbx
  10065a:	51                   	push   %rcx
  10065b:	52                   	push   %rdx
  10065c:	56                   	push   %rsi
  10065d:	57                   	push   %rdi
  10065e:	55                   	push   %rbp
  10065f:	41 50                	push   %r8
  100661:	41 51                	push   %r9
  100663:	41 52                	push   %r10
  100665:	41 53                	push   %r11
  100667:	41 54                	push   %r12
  100669:	41 55                	push   %r13
  10066b:	41 56                	push   %r14
  10066d:	41 57                	push   %r15
  10066f:	48 89 e7             	mov    %rsp,%rdi
  100672:	e8 79 11 00 00       	call   1017f0 <simd_floating_point_exception>
  100677:	41 5f                	pop    %r15
  100679:	41 5e                	pop    %r14
  10067b:	41 5d                	pop    %r13
  10067d:	41 5c                	pop    %r12
  10067f:	41 5b                	pop    %r11
  100681:	41 5a                	pop    %r10
  100683:	41 59                	pop    %r9
  100685:	41 58                	pop    %r8
  100687:	5d                   	pop    %rbp
  100688:	5f                   	pop    %rdi
  100689:	5e                   	pop    %rsi
  10068a:	5a                   	pop    %rdx
  10068b:	59                   	pop    %rcx
  10068c:	5b                   	pop    %rbx
  10068d:	58                   	pop    %rax
  10068e:	cf                   	iret   

000000000010068f <int20>:
  10068f:	fa                   	cli    
  100690:	fc                   	cld    
  100691:	50                   	push   %rax
  100692:	53                   	push   %rbx
  100693:	51                   	push   %rcx
  100694:	52                   	push   %rdx
  100695:	56                   	push   %rsi
  100696:	57                   	push   %rdi
  100697:	55                   	push   %rbp
  100698:	41 50                	push   %r8
  10069a:	41 51                	push   %r9
  10069c:	41 52                	push   %r10
  10069e:	41 53                	push   %r11
  1006a0:	41 54                	push   %r12
  1006a2:	41 55                	push   %r13
  1006a4:	41 56                	push   %r14
  1006a6:	41 57                	push   %r15
  1006a8:	48 89 e7             	mov    %rsp,%rdi
  1006ab:	e8 60 11 00 00       	call   101810 <virtualization_exception>
  1006b0:	41 5f                	pop    %r15
  1006b2:	41 5e                	pop    %r14
  1006b4:	41 5d                	pop    %r13
  1006b6:	41 5c                	pop    %r12
  1006b8:	41 5b                	pop    %r11
  1006ba:	41 5a                	pop    %r10
  1006bc:	41 59                	pop    %r9
  1006be:	41 58                	pop    %r8
  1006c0:	5d                   	pop    %rbp
  1006c1:	5f                   	pop    %rdi
  1006c2:	5e                   	pop    %rsi
  1006c3:	5a                   	pop    %rdx
  1006c4:	59                   	pop    %rcx
  1006c5:	5b                   	pop    %rbx
  1006c6:	58                   	pop    %rax
  1006c7:	cf                   	iret   

00000000001006c8 <int21>:
  1006c8:	fa                   	cli    
  1006c9:	fc                   	cld    
  1006ca:	50                   	push   %rax
  1006cb:	53                   	push   %rbx
  1006cc:	51                   	push   %rcx
  1006cd:	52                   	push   %rdx
  1006ce:	56                   	push   %rsi
  1006cf:	57                   	push   %rdi
  1006d0:	55                   	push   %rbp
  1006d1:	41 50                	push   %r8
  1006d3:	41 51                	push   %r9
  1006d5:	41 52                	push   %r10
  1006d7:	41 53                	push   %r11
  1006d9:	41 54                	push   %r12
  1006db:	41 55                	push   %r13
  1006dd:	41 56                	push   %r14
  1006df:	41 57                	push   %r15
  1006e1:	48 89 e7             	mov    %rsp,%rdi
  1006e4:	e8 47 11 00 00       	call   101830 <control_protection_exception>
  1006e9:	41 5f                	pop    %r15
  1006eb:	41 5e                	pop    %r14
  1006ed:	41 5d                	pop    %r13
  1006ef:	41 5c                	pop    %r12
  1006f1:	41 5b                	pop    %r11
  1006f3:	41 5a                	pop    %r10
  1006f5:	41 59                	pop    %r9
  1006f7:	41 58                	pop    %r8
  1006f9:	5d                   	pop    %rbp
  1006fa:	5f                   	pop    %rdi
  1006fb:	5e                   	pop    %rsi
  1006fc:	5a                   	pop    %rdx
  1006fd:	59                   	pop    %rcx
  1006fe:	5b                   	pop    %rbx
  1006ff:	58                   	pop    %rax
  100700:	cf                   	iret   

0000000000100701 <int22>:
  100701:	fa                   	cli    
  100702:	fc                   	cld    
  100703:	50                   	push   %rax
  100704:	53                   	push   %rbx
  100705:	51                   	push   %rcx
  100706:	52                   	push   %rdx
  100707:	56                   	push   %rsi
  100708:	57                   	push   %rdi
  100709:	55                   	push   %rbp
  10070a:	41 50                	push   %r8
  10070c:	41 51                	push   %r9
  10070e:	41 52                	push   %r10
  100710:	41 53                	push   %r11
  100712:	41 54                	push   %r12
  100714:	41 55                	push   %r13
  100716:	41 56                	push   %r14
  100718:	41 57                	push   %r15
  10071a:	48 89 e7             	mov    %rsp,%rdi
  10071d:	e8 2e 11 00 00       	call   101850 <hypervisor_injection_exception>
  100722:	41 5f                	pop    %r15
  100724:	41 5e                	pop    %r14
  100726:	41 5d                	pop    %r13
  100728:	41 5c                	pop    %r12
  10072a:	41 5b                	pop    %r11
  10072c:	41 5a                	pop    %r10
  10072e:	41 59                	pop    %r9
  100730:	41 58                	pop    %r8
  100732:	5d                   	pop    %rbp
  100733:	5f                   	pop    %rdi
  100734:	5e                   	pop    %rsi
  100735:	5a                   	pop    %rdx
  100736:	59                   	pop    %rcx
  100737:	5b                   	pop    %rbx
  100738:	58                   	pop    %rax
  100739:	cf                   	iret   

000000000010073a <int29>:
  10073a:	fa                   	cli    
  10073b:	fc                   	cld    
  10073c:	50                   	push   %rax
  10073d:	53                   	push   %rbx
  10073e:	51                   	push   %rcx
  10073f:	52                   	push   %rdx
  100740:	56                   	push   %rsi
  100741:	57                   	push   %rdi
  100742:	55                   	push   %rbp
  100743:	41 50                	push   %r8
  100745:	41 51                	push   %r9
  100747:	41 52                	push   %r10
  100749:	41 53                	push   %r11
  10074b:	41 54                	push   %r12
  10074d:	41 55                	push   %r13
  10074f:	41 56                	push   %r14
  100751:	41 57                	push   %r15
  100753:	48 89 e7             	mov    %rsp,%rdi
  100756:	e8 15 11 00 00       	call   101870 <vmm_communication_exception>
  10075b:	41 5f                	pop    %r15
  10075d:	41 5e                	pop    %r14
  10075f:	41 5d                	pop    %r13
  100761:	41 5c                	pop    %r12
  100763:	41 5b                	pop    %r11
  100765:	41 5a                	pop    %r10
  100767:	41 59                	pop    %r9
  100769:	41 58                	pop    %r8
  10076b:	5d                   	pop    %rbp
  10076c:	5f                   	pop    %rdi
  10076d:	5e                   	pop    %rsi
  10076e:	5a                   	pop    %rdx
  10076f:	59                   	pop    %rcx
  100770:	5b                   	pop    %rbx
  100771:	58                   	pop    %rax
  100772:	cf                   	iret   

0000000000100773 <int30>:
  100773:	fa                   	cli    
  100774:	fc                   	cld    
  100775:	50                   	push   %rax
  100776:	53                   	push   %rbx
  100777:	51                   	push   %rcx
  100778:	52                   	push   %rdx
  100779:	56                   	push   %rsi
  10077a:	57                   	push   %rdi
  10077b:	55                   	push   %rbp
  10077c:	41 50                	push   %r8
  10077e:	41 51                	push   %r9
  100780:	41 52                	push   %r10
  100782:	41 53                	push   %r11
  100784:	41 54                	push   %r12
  100786:	41 55                	push   %r13
  100788:	41 56                	push   %r14
  10078a:	41 57                	push   %r15
  10078c:	48 89 e7             	mov    %rsp,%rdi
  10078f:	e8 fc 10 00 00       	call   101890 <security_exception>
  100794:	41 5f                	pop    %r15
  100796:	41 5e                	pop    %r14
  100798:	41 5d                	pop    %r13
  10079a:	41 5c                	pop    %r12
  10079c:	41 5b                	pop    %r11
  10079e:	41 5a                	pop    %r10
  1007a0:	41 59                	pop    %r9
  1007a2:	41 58                	pop    %r8
  1007a4:	5d                   	pop    %rbp
  1007a5:	5f                   	pop    %rdi
  1007a6:	5e                   	pop    %rsi
  1007a7:	5a                   	pop    %rdx
  1007a8:	59                   	pop    %rcx
  1007a9:	5b                   	pop    %rbx
  1007aa:	58                   	pop    %rax
  1007ab:	cf                   	iret   

00000000001007ac <int31>:
  1007ac:	fa                   	cli    
  1007ad:	fc                   	cld    
  1007ae:	50                   	push   %rax
  1007af:	53                   	push   %rbx
  1007b0:	51                   	push   %rcx
  1007b1:	52                   	push   %rdx
  1007b2:	56                   	push   %rsi
  1007b3:	57                   	push   %rdi
  1007b4:	55                   	push   %rbp
  1007b5:	41 50                	push   %r8
  1007b7:	41 51                	push   %r9
  1007b9:	41 52                	push   %r10
  1007bb:	41 53                	push   %r11
  1007bd:	41 54                	push   %r12
  1007bf:	41 55                	push   %r13
  1007c1:	41 56                	push   %r14
  1007c3:	41 57                	push   %r15
  1007c5:	bf 20 00 00 00       	mov    $0x20,%edi
  1007ca:	e8 21 0c 00 00       	call   1013f0 <irq_handler>
  1007cf:	41 5f                	pop    %r15
  1007d1:	41 5e                	pop    %r14
  1007d3:	41 5d                	pop    %r13
  1007d5:	41 5c                	pop    %r12
  1007d7:	41 5b                	pop    %r11
  1007d9:	41 5a                	pop    %r10
  1007db:	41 59                	pop    %r9
  1007dd:	41 58                	pop    %r8
  1007df:	5d                   	pop    %rbp
  1007e0:	5f                   	pop    %rdi
  1007e1:	5e                   	pop    %rsi
  1007e2:	5a                   	pop    %rdx
  1007e3:	59                   	pop    %rcx
  1007e4:	5b                   	pop    %rbx
  1007e5:	58                   	pop    %rax
  1007e6:	fb                   	sti    
  1007e7:	48 cf                	iretq  

00000000001007e9 <int33>:
  1007e9:	fa                   	cli    
  1007ea:	fc                   	cld    
  1007eb:	50                   	push   %rax
  1007ec:	53                   	push   %rbx
  1007ed:	51                   	push   %rcx
  1007ee:	52                   	push   %rdx
  1007ef:	56                   	push   %rsi
  1007f0:	57                   	push   %rdi
  1007f1:	55                   	push   %rbp
  1007f2:	41 50                	push   %r8
  1007f4:	41 51                	push   %r9
  1007f6:	41 52                	push   %r10
  1007f8:	41 53                	push   %r11
  1007fa:	41 54                	push   %r12
  1007fc:	41 55                	push   %r13
  1007fe:	41 56                	push   %r14
  100800:	41 57                	push   %r15
  100802:	bf 21 00 00 00       	mov    $0x21,%edi
  100807:	e8 e4 0b 00 00       	call   1013f0 <irq_handler>
  10080c:	41 5f                	pop    %r15
  10080e:	41 5e                	pop    %r14
  100810:	41 5d                	pop    %r13
  100812:	41 5c                	pop    %r12
  100814:	41 5b                	pop    %r11
  100816:	41 5a                	pop    %r10
  100818:	41 59                	pop    %r9
  10081a:	41 58                	pop    %r8
  10081c:	5d                   	pop    %rbp
  10081d:	5f                   	pop    %rdi
  10081e:	5e                   	pop    %rsi
  10081f:	5a                   	pop    %rdx
  100820:	59                   	pop    %rcx
  100821:	5b                   	pop    %rbx
  100822:	58                   	pop    %rax
  100823:	fb                   	sti    
  100824:	48 cf                	iretq  

0000000000100826 <int34>:
  100826:	fa                   	cli    
  100827:	fc                   	cld    
  100828:	50                   	push   %rax
  100829:	53                   	push   %rbx
  10082a:	51                   	push   %rcx
  10082b:	52                   	push   %rdx
  10082c:	56                   	push   %rsi
  10082d:	57                   	push   %rdi
  10082e:	55                   	push   %rbp
  10082f:	41 50                	push   %r8
  100831:	41 51                	push   %r9
  100833:	41 52                	push   %r10
  100835:	41 53                	push   %r11
  100837:	41 54                	push   %r12
  100839:	41 55                	push   %r13
  10083b:	41 56                	push   %r14
  10083d:	41 57                	push   %r15
  10083f:	bf 22 00 00 00       	mov    $0x22,%edi
  100844:	e8 a7 0b 00 00       	call   1013f0 <irq_handler>
  100849:	41 5f                	pop    %r15
  10084b:	41 5e                	pop    %r14
  10084d:	41 5d                	pop    %r13
  10084f:	41 5c                	pop    %r12
  100851:	41 5b                	pop    %r11
  100853:	41 5a                	pop    %r10
  100855:	41 59                	pop    %r9
  100857:	41 58                	pop    %r8
  100859:	5d                   	pop    %rbp
  10085a:	5f                   	pop    %rdi
  10085b:	5e                   	pop    %rsi
  10085c:	5a                   	pop    %rdx
  10085d:	59                   	pop    %rcx
  10085e:	5b                   	pop    %rbx
  10085f:	58                   	pop    %rax
  100860:	48 cf                	iretq  

0000000000100862 <int35>:
  100862:	fa                   	cli    
  100863:	fc                   	cld    
  100864:	50                   	push   %rax
  100865:	53                   	push   %rbx
  100866:	51                   	push   %rcx
  100867:	52                   	push   %rdx
  100868:	56                   	push   %rsi
  100869:	57                   	push   %rdi
  10086a:	55                   	push   %rbp
  10086b:	41 50                	push   %r8
  10086d:	41 51                	push   %r9
  10086f:	41 52                	push   %r10
  100871:	41 53                	push   %r11
  100873:	41 54                	push   %r12
  100875:	41 55                	push   %r13
  100877:	41 56                	push   %r14
  100879:	41 57                	push   %r15
  10087b:	bf 23 00 00 00       	mov    $0x23,%edi
  100880:	e8 6b 0b 00 00       	call   1013f0 <irq_handler>
  100885:	41 5f                	pop    %r15
  100887:	41 5e                	pop    %r14
  100889:	41 5d                	pop    %r13
  10088b:	41 5c                	pop    %r12
  10088d:	41 5b                	pop    %r11
  10088f:	41 5a                	pop    %r10
  100891:	41 59                	pop    %r9
  100893:	41 58                	pop    %r8
  100895:	5d                   	pop    %rbp
  100896:	5f                   	pop    %rdi
  100897:	5e                   	pop    %rsi
  100898:	5a                   	pop    %rdx
  100899:	59                   	pop    %rcx
  10089a:	5b                   	pop    %rbx
  10089b:	58                   	pop    %rax
  10089c:	48 cf                	iretq  

000000000010089e <int36>:
  10089e:	fa                   	cli    
  10089f:	fc                   	cld    
  1008a0:	50                   	push   %rax
  1008a1:	53                   	push   %rbx
  1008a2:	51                   	push   %rcx
  1008a3:	52                   	push   %rdx
  1008a4:	56                   	push   %rsi
  1008a5:	57                   	push   %rdi
  1008a6:	55                   	push   %rbp
  1008a7:	41 50                	push   %r8
  1008a9:	41 51                	push   %r9
  1008ab:	41 52                	push   %r10
  1008ad:	41 53                	push   %r11
  1008af:	41 54                	push   %r12
  1008b1:	41 55                	push   %r13
  1008b3:	41 56                	push   %r14
  1008b5:	41 57                	push   %r15
  1008b7:	bf 24 00 00 00       	mov    $0x24,%edi
  1008bc:	e8 2f 0b 00 00       	call   1013f0 <irq_handler>
  1008c1:	41 5f                	pop    %r15
  1008c3:	41 5e                	pop    %r14
  1008c5:	41 5d                	pop    %r13
  1008c7:	41 5c                	pop    %r12
  1008c9:	41 5b                	pop    %r11
  1008cb:	41 5a                	pop    %r10
  1008cd:	41 59                	pop    %r9
  1008cf:	41 58                	pop    %r8
  1008d1:	5d                   	pop    %rbp
  1008d2:	5f                   	pop    %rdi
  1008d3:	5e                   	pop    %rsi
  1008d4:	5a                   	pop    %rdx
  1008d5:	59                   	pop    %rcx
  1008d6:	5b                   	pop    %rbx
  1008d7:	58                   	pop    %rax
  1008d8:	48 cf                	iretq  

00000000001008da <int37>:
  1008da:	fa                   	cli    
  1008db:	fc                   	cld    
  1008dc:	50                   	push   %rax
  1008dd:	53                   	push   %rbx
  1008de:	51                   	push   %rcx
  1008df:	52                   	push   %rdx
  1008e0:	56                   	push   %rsi
  1008e1:	57                   	push   %rdi
  1008e2:	55                   	push   %rbp
  1008e3:	41 50                	push   %r8
  1008e5:	41 51                	push   %r9
  1008e7:	41 52                	push   %r10
  1008e9:	41 53                	push   %r11
  1008eb:	41 54                	push   %r12
  1008ed:	41 55                	push   %r13
  1008ef:	41 56                	push   %r14
  1008f1:	41 57                	push   %r15
  1008f3:	bf 25 00 00 00       	mov    $0x25,%edi
  1008f8:	e8 f3 0a 00 00       	call   1013f0 <irq_handler>
  1008fd:	41 5f                	pop    %r15
  1008ff:	41 5e                	pop    %r14
  100901:	41 5d                	pop    %r13
  100903:	41 5c                	pop    %r12
  100905:	41 5b                	pop    %r11
  100907:	41 5a                	pop    %r10
  100909:	41 59                	pop    %r9
  10090b:	41 58                	pop    %r8
  10090d:	5d                   	pop    %rbp
  10090e:	5f                   	pop    %rdi
  10090f:	5e                   	pop    %rsi
  100910:	5a                   	pop    %rdx
  100911:	59                   	pop    %rcx
  100912:	5b                   	pop    %rbx
  100913:	58                   	pop    %rax
  100914:	48 cf                	iretq  

0000000000100916 <int38>:
  100916:	fa                   	cli    
  100917:	fc                   	cld    
  100918:	50                   	push   %rax
  100919:	53                   	push   %rbx
  10091a:	51                   	push   %rcx
  10091b:	52                   	push   %rdx
  10091c:	56                   	push   %rsi
  10091d:	57                   	push   %rdi
  10091e:	55                   	push   %rbp
  10091f:	41 50                	push   %r8
  100921:	41 51                	push   %r9
  100923:	41 52                	push   %r10
  100925:	41 53                	push   %r11
  100927:	41 54                	push   %r12
  100929:	41 55                	push   %r13
  10092b:	41 56                	push   %r14
  10092d:	41 57                	push   %r15
  10092f:	bf 26 00 00 00       	mov    $0x26,%edi
  100934:	e8 b7 0a 00 00       	call   1013f0 <irq_handler>
  100939:	41 5f                	pop    %r15
  10093b:	41 5e                	pop    %r14
  10093d:	41 5d                	pop    %r13
  10093f:	41 5c                	pop    %r12
  100941:	41 5b                	pop    %r11
  100943:	41 5a                	pop    %r10
  100945:	41 59                	pop    %r9
  100947:	41 58                	pop    %r8
  100949:	5d                   	pop    %rbp
  10094a:	5f                   	pop    %rdi
  10094b:	5e                   	pop    %rsi
  10094c:	5a                   	pop    %rdx
  10094d:	59                   	pop    %rcx
  10094e:	5b                   	pop    %rbx
  10094f:	58                   	pop    %rax
  100950:	48 cf                	iretq  

0000000000100952 <int39>:
  100952:	fa                   	cli    
  100953:	fc                   	cld    
  100954:	50                   	push   %rax
  100955:	53                   	push   %rbx
  100956:	51                   	push   %rcx
  100957:	52                   	push   %rdx
  100958:	56                   	push   %rsi
  100959:	57                   	push   %rdi
  10095a:	55                   	push   %rbp
  10095b:	41 50                	push   %r8
  10095d:	41 51                	push   %r9
  10095f:	41 52                	push   %r10
  100961:	41 53                	push   %r11
  100963:	41 54                	push   %r12
  100965:	41 55                	push   %r13
  100967:	41 56                	push   %r14
  100969:	41 57                	push   %r15
  10096b:	bf 27 00 00 00       	mov    $0x27,%edi
  100970:	e8 7b 0a 00 00       	call   1013f0 <irq_handler>
  100975:	41 5f                	pop    %r15
  100977:	41 5e                	pop    %r14
  100979:	41 5d                	pop    %r13
  10097b:	41 5c                	pop    %r12
  10097d:	41 5b                	pop    %r11
  10097f:	41 5a                	pop    %r10
  100981:	41 59                	pop    %r9
  100983:	41 58                	pop    %r8
  100985:	5d                   	pop    %rbp
  100986:	5f                   	pop    %rdi
  100987:	5e                   	pop    %rsi
  100988:	5a                   	pop    %rdx
  100989:	59                   	pop    %rcx
  10098a:	5b                   	pop    %rbx
  10098b:	58                   	pop    %rax
  10098c:	48 cf                	iretq  

000000000010098e <int40>:
  10098e:	fa                   	cli    
  10098f:	fc                   	cld    
  100990:	50                   	push   %rax
  100991:	53                   	push   %rbx
  100992:	51                   	push   %rcx
  100993:	52                   	push   %rdx
  100994:	56                   	push   %rsi
  100995:	57                   	push   %rdi
  100996:	55                   	push   %rbp
  100997:	41 50                	push   %r8
  100999:	41 51                	push   %r9
  10099b:	41 52                	push   %r10
  10099d:	41 53                	push   %r11
  10099f:	41 54                	push   %r12
  1009a1:	41 55                	push   %r13
  1009a3:	41 56                	push   %r14
  1009a5:	41 57                	push   %r15
  1009a7:	bf 28 00 00 00       	mov    $0x28,%edi
  1009ac:	e8 3f 0a 00 00       	call   1013f0 <irq_handler>
  1009b1:	41 5f                	pop    %r15
  1009b3:	41 5e                	pop    %r14
  1009b5:	41 5d                	pop    %r13
  1009b7:	41 5c                	pop    %r12
  1009b9:	41 5b                	pop    %r11
  1009bb:	41 5a                	pop    %r10
  1009bd:	41 59                	pop    %r9
  1009bf:	41 58                	pop    %r8
  1009c1:	5d                   	pop    %rbp
  1009c2:	5f                   	pop    %rdi
  1009c3:	5e                   	pop    %rsi
  1009c4:	5a                   	pop    %rdx
  1009c5:	59                   	pop    %rcx
  1009c6:	5b                   	pop    %rbx
  1009c7:	58                   	pop    %rax
  1009c8:	48 cf                	iretq  

00000000001009ca <int41>:
  1009ca:	fa                   	cli    
  1009cb:	fc                   	cld    
  1009cc:	50                   	push   %rax
  1009cd:	53                   	push   %rbx
  1009ce:	51                   	push   %rcx
  1009cf:	52                   	push   %rdx
  1009d0:	56                   	push   %rsi
  1009d1:	57                   	push   %rdi
  1009d2:	55                   	push   %rbp
  1009d3:	41 50                	push   %r8
  1009d5:	41 51                	push   %r9
  1009d7:	41 52                	push   %r10
  1009d9:	41 53                	push   %r11
  1009db:	41 54                	push   %r12
  1009dd:	41 55                	push   %r13
  1009df:	41 56                	push   %r14
  1009e1:	41 57                	push   %r15
  1009e3:	bf 29 00 00 00       	mov    $0x29,%edi
  1009e8:	e8 03 0a 00 00       	call   1013f0 <irq_handler>
  1009ed:	41 5f                	pop    %r15
  1009ef:	41 5e                	pop    %r14
  1009f1:	41 5d                	pop    %r13
  1009f3:	41 5c                	pop    %r12
  1009f5:	41 5b                	pop    %r11
  1009f7:	41 5a                	pop    %r10
  1009f9:	41 59                	pop    %r9
  1009fb:	41 58                	pop    %r8
  1009fd:	5d                   	pop    %rbp
  1009fe:	5f                   	pop    %rdi
  1009ff:	5e                   	pop    %rsi
  100a00:	5a                   	pop    %rdx
  100a01:	59                   	pop    %rcx
  100a02:	5b                   	pop    %rbx
  100a03:	58                   	pop    %rax
  100a04:	cf                   	iret   

0000000000100a05 <int42>:
  100a05:	fa                   	cli    
  100a06:	fc                   	cld    
  100a07:	50                   	push   %rax
  100a08:	53                   	push   %rbx
  100a09:	51                   	push   %rcx
  100a0a:	52                   	push   %rdx
  100a0b:	56                   	push   %rsi
  100a0c:	57                   	push   %rdi
  100a0d:	55                   	push   %rbp
  100a0e:	41 50                	push   %r8
  100a10:	41 51                	push   %r9
  100a12:	41 52                	push   %r10
  100a14:	41 53                	push   %r11
  100a16:	41 54                	push   %r12
  100a18:	41 55                	push   %r13
  100a1a:	41 56                	push   %r14
  100a1c:	41 57                	push   %r15
  100a1e:	bf 2a 00 00 00       	mov    $0x2a,%edi
  100a23:	e8 c8 09 00 00       	call   1013f0 <irq_handler>
  100a28:	41 5f                	pop    %r15
  100a2a:	41 5e                	pop    %r14
  100a2c:	41 5d                	pop    %r13
  100a2e:	41 5c                	pop    %r12
  100a30:	41 5b                	pop    %r11
  100a32:	41 5a                	pop    %r10
  100a34:	41 59                	pop    %r9
  100a36:	41 58                	pop    %r8
  100a38:	5d                   	pop    %rbp
  100a39:	5f                   	pop    %rdi
  100a3a:	5e                   	pop    %rsi
  100a3b:	5a                   	pop    %rdx
  100a3c:	59                   	pop    %rcx
  100a3d:	5b                   	pop    %rbx
  100a3e:	58                   	pop    %rax
  100a3f:	cf                   	iret   

0000000000100a40 <int43>:
  100a40:	fa                   	cli    
  100a41:	fc                   	cld    
  100a42:	50                   	push   %rax
  100a43:	53                   	push   %rbx
  100a44:	51                   	push   %rcx
  100a45:	52                   	push   %rdx
  100a46:	56                   	push   %rsi
  100a47:	57                   	push   %rdi
  100a48:	55                   	push   %rbp
  100a49:	41 50                	push   %r8
  100a4b:	41 51                	push   %r9
  100a4d:	41 52                	push   %r10
  100a4f:	41 53                	push   %r11
  100a51:	41 54                	push   %r12
  100a53:	41 55                	push   %r13
  100a55:	41 56                	push   %r14
  100a57:	41 57                	push   %r15
  100a59:	bf 2b 00 00 00       	mov    $0x2b,%edi
  100a5e:	e8 8d 09 00 00       	call   1013f0 <irq_handler>
  100a63:	41 5f                	pop    %r15
  100a65:	41 5e                	pop    %r14
  100a67:	41 5d                	pop    %r13
  100a69:	41 5c                	pop    %r12
  100a6b:	41 5b                	pop    %r11
  100a6d:	41 5a                	pop    %r10
  100a6f:	41 59                	pop    %r9
  100a71:	41 58                	pop    %r8
  100a73:	5d                   	pop    %rbp
  100a74:	5f                   	pop    %rdi
  100a75:	5e                   	pop    %rsi
  100a76:	5a                   	pop    %rdx
  100a77:	59                   	pop    %rcx
  100a78:	5b                   	pop    %rbx
  100a79:	58                   	pop    %rax
  100a7a:	cf                   	iret   

0000000000100a7b <int44>:
  100a7b:	fa                   	cli    
  100a7c:	fc                   	cld    
  100a7d:	50                   	push   %rax
  100a7e:	53                   	push   %rbx
  100a7f:	51                   	push   %rcx
  100a80:	52                   	push   %rdx
  100a81:	56                   	push   %rsi
  100a82:	57                   	push   %rdi
  100a83:	55                   	push   %rbp
  100a84:	41 50                	push   %r8
  100a86:	41 51                	push   %r9
  100a88:	41 52                	push   %r10
  100a8a:	41 53                	push   %r11
  100a8c:	41 54                	push   %r12
  100a8e:	41 55                	push   %r13
  100a90:	41 56                	push   %r14
  100a92:	41 57                	push   %r15
  100a94:	bf 2c 00 00 00       	mov    $0x2c,%edi
  100a99:	e8 52 09 00 00       	call   1013f0 <irq_handler>
  100a9e:	41 5f                	pop    %r15
  100aa0:	41 5e                	pop    %r14
  100aa2:	41 5d                	pop    %r13
  100aa4:	41 5c                	pop    %r12
  100aa6:	41 5b                	pop    %r11
  100aa8:	41 5a                	pop    %r10
  100aaa:	41 59                	pop    %r9
  100aac:	41 58                	pop    %r8
  100aae:	5d                   	pop    %rbp
  100aaf:	5f                   	pop    %rdi
  100ab0:	5e                   	pop    %rsi
  100ab1:	5a                   	pop    %rdx
  100ab2:	59                   	pop    %rcx
  100ab3:	5b                   	pop    %rbx
  100ab4:	58                   	pop    %rax
  100ab5:	cf                   	iret   

0000000000100ab6 <int45>:
  100ab6:	fa                   	cli    
  100ab7:	fc                   	cld    
  100ab8:	50                   	push   %rax
  100ab9:	53                   	push   %rbx
  100aba:	51                   	push   %rcx
  100abb:	52                   	push   %rdx
  100abc:	56                   	push   %rsi
  100abd:	57                   	push   %rdi
  100abe:	55                   	push   %rbp
  100abf:	41 50                	push   %r8
  100ac1:	41 51                	push   %r9
  100ac3:	41 52                	push   %r10
  100ac5:	41 53                	push   %r11
  100ac7:	41 54                	push   %r12
  100ac9:	41 55                	push   %r13
  100acb:	41 56                	push   %r14
  100acd:	41 57                	push   %r15
  100acf:	bf 2d 00 00 00       	mov    $0x2d,%edi
  100ad4:	e8 17 09 00 00       	call   1013f0 <irq_handler>
  100ad9:	41 5f                	pop    %r15
  100adb:	41 5e                	pop    %r14
  100add:	41 5d                	pop    %r13
  100adf:	41 5c                	pop    %r12
  100ae1:	41 5b                	pop    %r11
  100ae3:	41 5a                	pop    %r10
  100ae5:	41 59                	pop    %r9
  100ae7:	41 58                	pop    %r8
  100ae9:	5d                   	pop    %rbp
  100aea:	5f                   	pop    %rdi
  100aeb:	5e                   	pop    %rsi
  100aec:	5a                   	pop    %rdx
  100aed:	59                   	pop    %rcx
  100aee:	5b                   	pop    %rbx
  100aef:	58                   	pop    %rax
  100af0:	cf                   	iret   

0000000000100af1 <int46>:
  100af1:	fa                   	cli    
  100af2:	fc                   	cld    
  100af3:	50                   	push   %rax
  100af4:	53                   	push   %rbx
  100af5:	51                   	push   %rcx
  100af6:	52                   	push   %rdx
  100af7:	56                   	push   %rsi
  100af8:	57                   	push   %rdi
  100af9:	55                   	push   %rbp
  100afa:	41 50                	push   %r8
  100afc:	41 51                	push   %r9
  100afe:	41 52                	push   %r10
  100b00:	41 53                	push   %r11
  100b02:	41 54                	push   %r12
  100b04:	41 55                	push   %r13
  100b06:	41 56                	push   %r14
  100b08:	41 57                	push   %r15
  100b0a:	bf 2e 00 00 00       	mov    $0x2e,%edi
  100b0f:	e8 dc 08 00 00       	call   1013f0 <irq_handler>
  100b14:	41 5f                	pop    %r15
  100b16:	41 5e                	pop    %r14
  100b18:	41 5d                	pop    %r13
  100b1a:	41 5c                	pop    %r12
  100b1c:	41 5b                	pop    %r11
  100b1e:	41 5a                	pop    %r10
  100b20:	41 59                	pop    %r9
  100b22:	41 58                	pop    %r8
  100b24:	5d                   	pop    %rbp
  100b25:	5f                   	pop    %rdi
  100b26:	5e                   	pop    %rsi
  100b27:	5a                   	pop    %rdx
  100b28:	59                   	pop    %rcx
  100b29:	5b                   	pop    %rbx
  100b2a:	58                   	pop    %rax
  100b2b:	cf                   	iret   

0000000000100b2c <int47>:
  100b2c:	fa                   	cli    
  100b2d:	fc                   	cld    
  100b2e:	50                   	push   %rax
  100b2f:	53                   	push   %rbx
  100b30:	51                   	push   %rcx
  100b31:	52                   	push   %rdx
  100b32:	56                   	push   %rsi
  100b33:	57                   	push   %rdi
  100b34:	55                   	push   %rbp
  100b35:	41 50                	push   %r8
  100b37:	41 51                	push   %r9
  100b39:	41 52                	push   %r10
  100b3b:	41 53                	push   %r11
  100b3d:	41 54                	push   %r12
  100b3f:	41 55                	push   %r13
  100b41:	41 56                	push   %r14
  100b43:	41 57                	push   %r15
  100b45:	bf 2f 00 00 00       	mov    $0x2f,%edi
  100b4a:	e8 a1 08 00 00       	call   1013f0 <irq_handler>
  100b4f:	41 5f                	pop    %r15
  100b51:	41 5e                	pop    %r14
  100b53:	41 5d                	pop    %r13
  100b55:	41 5c                	pop    %r12
  100b57:	41 5b                	pop    %r11
  100b59:	41 5a                	pop    %r10
  100b5b:	41 59                	pop    %r9
  100b5d:	41 58                	pop    %r8
  100b5f:	5d                   	pop    %rbp
  100b60:	5f                   	pop    %rdi
  100b61:	5e                   	pop    %rsi
  100b62:	5a                   	pop    %rdx
  100b63:	59                   	pop    %rcx
  100b64:	5b                   	pop    %rbx
  100b65:	58                   	pop    %rax
  100b66:	cf                   	iret   

0000000000100b67 <int48>:
  100b67:	fa                   	cli    
  100b68:	fc                   	cld    
  100b69:	50                   	push   %rax
  100b6a:	53                   	push   %rbx
  100b6b:	51                   	push   %rcx
  100b6c:	52                   	push   %rdx
  100b6d:	56                   	push   %rsi
  100b6e:	57                   	push   %rdi
  100b6f:	55                   	push   %rbp
  100b70:	41 50                	push   %r8
  100b72:	41 51                	push   %r9
  100b74:	41 52                	push   %r10
  100b76:	41 53                	push   %r11
  100b78:	41 54                	push   %r12
  100b7a:	41 55                	push   %r13
  100b7c:	41 56                	push   %r14
  100b7e:	41 57                	push   %r15
  100b80:	bf 30 00 00 00       	mov    $0x30,%edi
  100b85:	e8 66 08 00 00       	call   1013f0 <irq_handler>
  100b8a:	41 5f                	pop    %r15
  100b8c:	41 5e                	pop    %r14
  100b8e:	41 5d                	pop    %r13
  100b90:	41 5c                	pop    %r12
  100b92:	41 5b                	pop    %r11
  100b94:	41 5a                	pop    %r10
  100b96:	41 59                	pop    %r9
  100b98:	41 58                	pop    %r8
  100b9a:	5d                   	pop    %rbp
  100b9b:	5f                   	pop    %rdi
  100b9c:	5e                   	pop    %rsi
  100b9d:	5a                   	pop    %rdx
  100b9e:	59                   	pop    %rcx
  100b9f:	5b                   	pop    %rbx
  100ba0:	58                   	pop    %rax
  100ba1:	cf                   	iret   

0000000000100ba2 <int49>:
  100ba2:	fa                   	cli    
  100ba3:	fc                   	cld    
  100ba4:	50                   	push   %rax
  100ba5:	53                   	push   %rbx
  100ba6:	51                   	push   %rcx
  100ba7:	52                   	push   %rdx
  100ba8:	56                   	push   %rsi
  100ba9:	57                   	push   %rdi
  100baa:	55                   	push   %rbp
  100bab:	41 50                	push   %r8
  100bad:	41 51                	push   %r9
  100baf:	41 52                	push   %r10
  100bb1:	41 53                	push   %r11
  100bb3:	41 54                	push   %r12
  100bb5:	41 55                	push   %r13
  100bb7:	41 56                	push   %r14
  100bb9:	41 57                	push   %r15
  100bbb:	bf 31 00 00 00       	mov    $0x31,%edi
  100bc0:	e8 2b 08 00 00       	call   1013f0 <irq_handler>
  100bc5:	41 5f                	pop    %r15
  100bc7:	41 5e                	pop    %r14
  100bc9:	41 5d                	pop    %r13
  100bcb:	41 5c                	pop    %r12
  100bcd:	41 5b                	pop    %r11
  100bcf:	41 5a                	pop    %r10
  100bd1:	41 59                	pop    %r9
  100bd3:	41 58                	pop    %r8
  100bd5:	5d                   	pop    %rbp
  100bd6:	5f                   	pop    %rdi
  100bd7:	5e                   	pop    %rsi
  100bd8:	5a                   	pop    %rdx
  100bd9:	59                   	pop    %rcx
  100bda:	5b                   	pop    %rbx
  100bdb:	58                   	pop    %rax
  100bdc:	cf                   	iret   

0000000000100bdd <exception_halt_main>:
  100bdd:	fa                   	cli    
  100bde:	f4                   	hlt    
  100bdf:	eb fc                	jmp    100bdd <exception_halt_main>

0000000000100be1 <make_entry>:
  100be1:	48 ba 08 30 41 00 00 	movabs $0x413008,%rdx
  100be8:	00 00 00 
  100beb:	48 01 ca             	add    %rcx,%rdx
  100bee:	66 89 02             	mov    %ax,(%rdx)
  100bf1:	66 c7 42 02 08 00    	movw   $0x8,0x2(%rdx)
  100bf7:	c6 42 04 00          	movb   $0x0,0x4(%rdx)
  100bfb:	c6 42 05 8f          	movb   $0x8f,0x5(%rdx)
  100bff:	48 c1 e8 10          	shr    $0x10,%rax
  100c03:	66 89 42 06          	mov    %ax,0x6(%rdx)
  100c07:	48 c1 e8 10          	shr    $0x10,%rax
  100c0b:	89 42 08             	mov    %eax,0x8(%rdx)
  100c0e:	c7 42 0c 00 00 00 00 	movl   $0x0,0xc(%rdx)
  100c15:	c3                   	ret    

0000000000100c16 <make_entry_interrupt>:
  100c16:	48 ba 08 30 41 00 00 	movabs $0x413008,%rdx
  100c1d:	00 00 00 
  100c20:	48 01 ca             	add    %rcx,%rdx
  100c23:	66 89 02             	mov    %ax,(%rdx)
  100c26:	66 c7 42 02 08 00    	movw   $0x8,0x2(%rdx)
  100c2c:	c6 42 04 00          	movb   $0x0,0x4(%rdx)
  100c30:	c6 42 05 8e          	movb   $0x8e,0x5(%rdx)
  100c34:	48 c1 e8 10          	shr    $0x10,%rax
  100c38:	66 89 42 06          	mov    %ax,0x6(%rdx)
  100c3c:	48 c1 e8 10          	shr    $0x10,%rax
  100c40:	89 42 08             	mov    %eax,0x8(%rdx)
  100c43:	c7 42 0c 00 00 00 00 	movl   $0x0,0xc(%rdx)
  100c4a:	c3                   	ret    

0000000000100c4b <enable_interrupts>:
  100c4b:	eb 0c                	jmp    100c59 <clear_IDT>

0000000000100c4d <disable_pic>:
  100c4d:	66 ba 21 00          	mov    $0x21,%dx
  100c51:	b0 ff                	mov    $0xff,%al
  100c53:	ee                   	out    %al,(%dx)
  100c54:	66 ba a1 00          	mov    $0xa1,%dx
  100c58:	ee                   	out    %al,(%dx)

0000000000100c59 <clear_IDT>:
  100c59:	48 31 c0             	xor    %rax,%rax
  100c5c:	b9 00 02 00 00       	mov    $0x200,%ecx
  100c61:	48 bf 08 30 41 00 00 	movabs $0x413008,%rdi
  100c68:	00 00 00 
  100c6b:	f3 48 ab             	rep stos %rax,%es:(%rdi)

0000000000100c6e <make_entries>:
  100c6e:	48 b8 54 02 10 00 00 	movabs $0x100254,%rax
  100c75:	00 00 00 
  100c78:	b9 00 00 00 00       	mov    $0x0,%ecx
  100c7d:	e8 5f ff ff ff       	call   100be1 <make_entry>
  100c82:	48 b8 8d 02 10 00 00 	movabs $0x10028d,%rax
  100c89:	00 00 00 
  100c8c:	b9 10 00 00 00       	mov    $0x10,%ecx
  100c91:	e8 4b ff ff ff       	call   100be1 <make_entry>
  100c96:	48 b8 54 02 10 00 00 	movabs $0x100254,%rax
  100c9d:	00 00 00 
  100ca0:	b9 00 00 00 00       	mov    $0x0,%ecx
  100ca5:	e8 37 ff ff ff       	call   100be1 <make_entry>
  100caa:	48 b8 8d 02 10 00 00 	movabs $0x10028d,%rax
  100cb1:	00 00 00 
  100cb4:	b9 10 00 00 00       	mov    $0x10,%ecx
  100cb9:	e8 23 ff ff ff       	call   100be1 <make_entry>
  100cbe:	48 b8 c6 02 10 00 00 	movabs $0x1002c6,%rax
  100cc5:	00 00 00 
  100cc8:	b9 20 00 00 00       	mov    $0x20,%ecx
  100ccd:	e8 0f ff ff ff       	call   100be1 <make_entry>
  100cd2:	48 b8 ff 02 10 00 00 	movabs $0x1002ff,%rax
  100cd9:	00 00 00 
  100cdc:	b9 30 00 00 00       	mov    $0x30,%ecx
  100ce1:	e8 fb fe ff ff       	call   100be1 <make_entry>
  100ce6:	48 b8 38 03 10 00 00 	movabs $0x100338,%rax
  100ced:	00 00 00 
  100cf0:	b9 40 00 00 00       	mov    $0x40,%ecx
  100cf5:	e8 e7 fe ff ff       	call   100be1 <make_entry>
  100cfa:	48 b8 71 03 10 00 00 	movabs $0x100371,%rax
  100d01:	00 00 00 
  100d04:	b9 50 00 00 00       	mov    $0x50,%ecx
  100d09:	e8 d3 fe ff ff       	call   100be1 <make_entry>
  100d0e:	48 b8 aa 03 10 00 00 	movabs $0x1003aa,%rax
  100d15:	00 00 00 
  100d18:	b9 60 00 00 00       	mov    $0x60,%ecx
  100d1d:	e8 bf fe ff ff       	call   100be1 <make_entry>
  100d22:	48 b8 e3 03 10 00 00 	movabs $0x1003e3,%rax
  100d29:	00 00 00 
  100d2c:	b9 70 00 00 00       	mov    $0x70,%ecx
  100d31:	e8 ab fe ff ff       	call   100be1 <make_entry>
  100d36:	48 b8 1c 04 10 00 00 	movabs $0x10041c,%rax
  100d3d:	00 00 00 
  100d40:	b9 80 00 00 00       	mov    $0x80,%ecx
  100d45:	e8 97 fe ff ff       	call   100be1 <make_entry>
  100d4a:	48 b8 55 04 10 00 00 	movabs $0x100455,%rax
  100d51:	00 00 00 
  100d54:	b9 90 00 00 00       	mov    $0x90,%ecx
  100d59:	e8 83 fe ff ff       	call   100be1 <make_entry>
  100d5e:	48 b8 8e 04 10 00 00 	movabs $0x10048e,%rax
  100d65:	00 00 00 
  100d68:	b9 a0 00 00 00       	mov    $0xa0,%ecx
  100d6d:	e8 6f fe ff ff       	call   100be1 <make_entry>
  100d72:	48 b8 c7 04 10 00 00 	movabs $0x1004c7,%rax
  100d79:	00 00 00 
  100d7c:	b9 b0 00 00 00       	mov    $0xb0,%ecx
  100d81:	e8 5b fe ff ff       	call   100be1 <make_entry>
  100d86:	48 b8 00 05 10 00 00 	movabs $0x100500,%rax
  100d8d:	00 00 00 
  100d90:	b9 c0 00 00 00       	mov    $0xc0,%ecx
  100d95:	e8 47 fe ff ff       	call   100be1 <make_entry>
  100d9a:	48 b8 39 05 10 00 00 	movabs $0x100539,%rax
  100da1:	00 00 00 
  100da4:	b9 d0 00 00 00       	mov    $0xd0,%ecx
  100da9:	e8 33 fe ff ff       	call   100be1 <make_entry>
  100dae:	48 b8 72 05 10 00 00 	movabs $0x100572,%rax
  100db5:	00 00 00 
  100db8:	b9 e0 00 00 00       	mov    $0xe0,%ecx
  100dbd:	e8 1f fe ff ff       	call   100be1 <make_entry>
  100dc2:	48 b8 ab 05 10 00 00 	movabs $0x1005ab,%rax
  100dc9:	00 00 00 
  100dcc:	b9 00 01 00 00       	mov    $0x100,%ecx
  100dd1:	e8 0b fe ff ff       	call   100be1 <make_entry>
  100dd6:	48 b8 e4 05 10 00 00 	movabs $0x1005e4,%rax
  100ddd:	00 00 00 
  100de0:	b9 10 01 00 00       	mov    $0x110,%ecx
  100de5:	e8 f7 fd ff ff       	call   100be1 <make_entry>
  100dea:	48 b8 1d 06 10 00 00 	movabs $0x10061d,%rax
  100df1:	00 00 00 
  100df4:	b9 20 01 00 00       	mov    $0x120,%ecx
  100df9:	e8 e3 fd ff ff       	call   100be1 <make_entry>
  100dfe:	48 b8 56 06 10 00 00 	movabs $0x100656,%rax
  100e05:	00 00 00 
  100e08:	b9 30 01 00 00       	mov    $0x130,%ecx
  100e0d:	e8 cf fd ff ff       	call   100be1 <make_entry>
  100e12:	48 b8 8f 06 10 00 00 	movabs $0x10068f,%rax
  100e19:	00 00 00 
  100e1c:	b9 40 01 00 00       	mov    $0x140,%ecx
  100e21:	e8 bb fd ff ff       	call   100be1 <make_entry>
  100e26:	48 b8 c8 06 10 00 00 	movabs $0x1006c8,%rax
  100e2d:	00 00 00 
  100e30:	b9 50 01 00 00       	mov    $0x150,%ecx
  100e35:	e8 a7 fd ff ff       	call   100be1 <make_entry>
  100e3a:	48 b8 01 07 10 00 00 	movabs $0x100701,%rax
  100e41:	00 00 00 
  100e44:	b9 c0 01 00 00       	mov    $0x1c0,%ecx
  100e49:	e8 93 fd ff ff       	call   100be1 <make_entry>
  100e4e:	48 b8 3a 07 10 00 00 	movabs $0x10073a,%rax
  100e55:	00 00 00 
  100e58:	b9 d0 01 00 00       	mov    $0x1d0,%ecx
  100e5d:	e8 7f fd ff ff       	call   100be1 <make_entry>
  100e62:	48 b8 73 07 10 00 00 	movabs $0x100773,%rax
  100e69:	00 00 00 
  100e6c:	b9 e0 01 00 00       	mov    $0x1e0,%ecx
  100e71:	e8 6b fd ff ff       	call   100be1 <make_entry>
  100e76:	48 b8 ac 07 10 00 00 	movabs $0x1007ac,%rax
  100e7d:	00 00 00 
  100e80:	b9 00 02 00 00       	mov    $0x200,%ecx
  100e85:	e8 57 fd ff ff       	call   100be1 <make_entry>
  100e8a:	48 b8 e9 07 10 00 00 	movabs $0x1007e9,%rax
  100e91:	00 00 00 
  100e94:	b9 10 02 00 00       	mov    $0x210,%ecx
  100e99:	e8 43 fd ff ff       	call   100be1 <make_entry>
  100e9e:	48 b8 26 08 10 00 00 	movabs $0x100826,%rax
  100ea5:	00 00 00 
  100ea8:	b9 20 02 00 00       	mov    $0x220,%ecx
  100ead:	e8 2f fd ff ff       	call   100be1 <make_entry>
  100eb2:	48 b8 62 08 10 00 00 	movabs $0x100862,%rax
  100eb9:	00 00 00 
  100ebc:	b9 30 02 00 00       	mov    $0x230,%ecx
  100ec1:	e8 1b fd ff ff       	call   100be1 <make_entry>
  100ec6:	48 b8 9e 08 10 00 00 	movabs $0x10089e,%rax
  100ecd:	00 00 00 
  100ed0:	b9 40 02 00 00       	mov    $0x240,%ecx
  100ed5:	e8 07 fd ff ff       	call   100be1 <make_entry>
  100eda:	48 b8 da 08 10 00 00 	movabs $0x1008da,%rax
  100ee1:	00 00 00 
  100ee4:	b9 50 02 00 00       	mov    $0x250,%ecx
  100ee9:	e8 f3 fc ff ff       	call   100be1 <make_entry>
  100eee:	48 b8 16 09 10 00 00 	movabs $0x100916,%rax
  100ef5:	00 00 00 
  100ef8:	b9 60 02 00 00       	mov    $0x260,%ecx
  100efd:	e8 df fc ff ff       	call   100be1 <make_entry>
  100f02:	48 b8 52 09 10 00 00 	movabs $0x100952,%rax
  100f09:	00 00 00 
  100f0c:	b9 70 02 00 00       	mov    $0x270,%ecx
  100f11:	e8 cb fc ff ff       	call   100be1 <make_entry>
  100f16:	48 b8 8e 09 10 00 00 	movabs $0x10098e,%rax
  100f1d:	00 00 00 
  100f20:	b9 80 02 00 00       	mov    $0x280,%ecx
  100f25:	e8 b7 fc ff ff       	call   100be1 <make_entry>
  100f2a:	48 b8 ca 09 10 00 00 	movabs $0x1009ca,%rax
  100f31:	00 00 00 
  100f34:	b9 90 02 00 00       	mov    $0x290,%ecx
  100f39:	e8 a3 fc ff ff       	call   100be1 <make_entry>
  100f3e:	48 b8 05 0a 10 00 00 	movabs $0x100a05,%rax
  100f45:	00 00 00 
  100f48:	b9 a0 02 00 00       	mov    $0x2a0,%ecx
  100f4d:	e8 8f fc ff ff       	call   100be1 <make_entry>
  100f52:	48 b8 40 0a 10 00 00 	movabs $0x100a40,%rax
  100f59:	00 00 00 
  100f5c:	b9 b0 02 00 00       	mov    $0x2b0,%ecx
  100f61:	e8 7b fc ff ff       	call   100be1 <make_entry>
  100f66:	48 b8 7b 0a 10 00 00 	movabs $0x100a7b,%rax
  100f6d:	00 00 00 
  100f70:	b9 c0 02 00 00       	mov    $0x2c0,%ecx
  100f75:	e8 67 fc ff ff       	call   100be1 <make_entry>
  100f7a:	48 b8 b6 0a 10 00 00 	movabs $0x100ab6,%rax
  100f81:	00 00 00 
  100f84:	b9 d0 02 00 00       	mov    $0x2d0,%ecx
  100f89:	e8 53 fc ff ff       	call   100be1 <make_entry>
  100f8e:	48 b8 f1 0a 10 00 00 	movabs $0x100af1,%rax
  100f95:	00 00 00 
  100f98:	b9 e0 02 00 00       	mov    $0x2e0,%ecx
  100f9d:	e8 3f fc ff ff       	call   100be1 <make_entry>
  100fa2:	48 b8 2c 0b 10 00 00 	movabs $0x100b2c,%rax
  100fa9:	00 00 00 
  100fac:	b9 f0 02 00 00       	mov    $0x2f0,%ecx
  100fb1:	e8 2b fc ff ff       	call   100be1 <make_entry>

0000000000100fb6 <load_IDT>:
  100fb6:	fa                   	cli    
  100fb7:	0f 01 1c 25 40 33 10 	lidt   0x103340
  100fbe:	00 

0000000000100fbf <fix_cs>:
  100fbf:	66 b8 10 00          	mov    $0x10,%ax
  100fc3:	8e d8                	mov    %eax,%ds
  100fc5:	8e c0                	mov    %eax,%es
  100fc7:	8e e0                	mov    %eax,%fs
  100fc9:	8e e8                	mov    %eax,%gs
  100fcb:	8e d0                	mov    %eax,%ss
  100fcd:	48 bc 08 30 41 00 00 	movabs $0x413008,%rsp
  100fd4:	00 00 00 
  100fd7:	48 bd 08 30 41 00 00 	movabs $0x413008,%rbp
  100fde:	00 00 00 
  100fe1:	fb                   	sti    
  100fe2:	e9 98 f1 ff ff       	jmp    10017f <interrupts_enabled>

0000000000100fe7 <enable_APIC>:
  100fe7:	b8 01 00 00 00       	mov    $0x1,%eax
  100fec:	0f a2                	cpuid  
  100fee:	0f ba e2 09          	bt     $0x9,%edx
  100ff2:	73 18                	jae    10100c <enable_APIC.noLAPIC>
  100ff4:	0f ba e2 05          	bt     $0x5,%edx
  100ff8:	73 18                	jae    101012 <enable_APIC.noMSR>
  100ffa:	b9 1b 00 00 00       	mov    $0x1b,%ecx
  100fff:	0f 32                	rdmsr  
  101001:	0d 00 08 00 00       	or     $0x800,%eax
  101006:	0f 30                	wrmsr  
  101008:	48 31 c0             	xor    %rax,%rax
  10100b:	c3                   	ret    

000000000010100c <enable_APIC.noLAPIC>:
  10100c:	b8 01 00 00 00       	mov    $0x1,%eax
  101011:	c3                   	ret    

0000000000101012 <enable_APIC.noMSR>:
  101012:	b8 02 00 00 00       	mov    $0x2,%eax
  101017:	c3                   	ret    

0000000000101018 <remap_APIC_registers>:
  101018:	51                   	push   %rcx
  101019:	50                   	push   %rax
  10101a:	b8 00 f0 ff ff       	mov    $0xfffff000,%eax
  10101f:	48 21 c7             	and    %rax,%rdi
  101022:	b9 1b 00 00 00       	mov    $0x1b,%ecx
  101027:	0f 32                	rdmsr  
  101029:	48 25 ff 0f 00 00    	and    $0xfff,%rax
  10102f:	48 09 f8             	or     %rdi,%rax
  101032:	0f 30                	wrmsr  
  101034:	58                   	pop    %rax
  101035:	59                   	pop    %rcx
  101036:	c3                   	ret    

0000000000101037 <error>:
  101037:	66 ba f8 03          	mov    $0x3f8,%dx
  10103b:	ee                   	out    %al,(%dx)
  10103c:	f4                   	hlt    
  10103d:	0f 1f 00             	nopl   (%rax)

0000000000101040 <parse_boot_information>:
  101040:	f3 0f 1e fa          	endbr64 
  101044:	44 8b 07             	mov    (%rdi),%r8d
  101047:	49 83 f8 08          	cmp    $0x8,%r8
  10104b:	76 5e                	jbe    1010ab <parse_boot_information+0x6b>
  10104d:	ba 08 00 00 00       	mov    $0x8,%edx
  101052:	48 8d 35 d7 16 00 00 	lea    0x16d7(%rip),%rsi        # 102730 <dump_vmem+0x40>
  101059:	41 b9 08 00 00 00    	mov    $0x8,%r9d
  10105f:	90                   	nop
  101060:	48 8d 04 17          	lea    (%rdi,%rdx,1),%rax
  101064:	83 38 15             	cmpl   $0x15,(%rax)
  101067:	77 27                	ja     101090 <parse_boot_information+0x50>
  101069:	8b 08                	mov    (%rax),%ecx
  10106b:	48 63 0c 8e          	movslq (%rsi,%rcx,4),%rcx
  10106f:	48 01 f1             	add    %rsi,%rcx
  101072:	3e ff e1             	notrack jmp *%rcx
  101075:	0f 1f 00             	nopl   (%rax)
  101078:	48 83 0c 25 80 00 10 	orq    $0x2,0x100080
  10107f:	00 02 
  101081:	48 89 04 25 88 00 10 	mov    %rax,0x100088
  101088:	00 
  101089:	0f 1f 80 00 00 00 00 	nopl   0x0(%rax)
  101090:	8b 48 04             	mov    0x4(%rax),%ecx
  101093:	48 89 c8             	mov    %rcx,%rax
  101096:	48 01 ca             	add    %rcx,%rdx
  101099:	83 e0 07             	and    $0x7,%eax
  10109c:	74 08                	je     1010a6 <parse_boot_information+0x66>
  10109e:	44 89 c9             	mov    %r9d,%ecx
  1010a1:	29 c1                	sub    %eax,%ecx
  1010a3:	48 01 ca             	add    %rcx,%rdx
  1010a6:	4c 39 c2             	cmp    %r8,%rdx
  1010a9:	72 b5                	jb     101060 <parse_boot_information+0x20>
  1010ab:	c3                   	ret    
  1010ac:	0f 1f 40 00          	nopl   0x0(%rax)
  1010b0:	48 81 0c 25 80 00 10 	orq    $0x200000,0x100080
  1010b7:	00 00 00 20 00 
  1010bc:	48 89 04 25 28 01 10 	mov    %rax,0x100128
  1010c3:	00 
  1010c4:	eb ca                	jmp    101090 <parse_boot_information+0x50>
  1010c6:	66 2e 0f 1f 84 00 00 	cs nopw 0x0(%rax,%rax,1)
  1010cd:	00 00 00 
  1010d0:	48 81 0c 25 80 00 10 	orq    $0x100000,0x100080
  1010d7:	00 00 00 10 00 
  1010dc:	48 89 04 25 20 01 10 	mov    %rax,0x100120
  1010e3:	00 
  1010e4:	eb aa                	jmp    101090 <parse_boot_information+0x50>
  1010e6:	66 2e 0f 1f 84 00 00 	cs nopw 0x0(%rax,%rax,1)
  1010ed:	00 00 00 
  1010f0:	48 81 0c 25 80 00 10 	orq    $0x80000,0x100080
  1010f7:	00 00 00 08 00 
  1010fc:	48 89 04 25 18 01 10 	mov    %rax,0x100118
  101103:	00 
  101104:	eb 8a                	jmp    101090 <parse_boot_information+0x50>
  101106:	66 2e 0f 1f 84 00 00 	cs nopw 0x0(%rax,%rax,1)
  10110d:	00 00 00 
  101110:	48 81 0c 25 80 00 10 	orq    $0x40000,0x100080
  101117:	00 00 00 04 00 
  10111c:	48 89 04 25 10 01 10 	mov    %rax,0x100110
  101123:	00 
  101124:	e9 67 ff ff ff       	jmp    101090 <parse_boot_information+0x50>
  101129:	0f 1f 80 00 00 00 00 	nopl   0x0(%rax)
  101130:	48 81 0c 25 80 00 10 	orq    $0x20000,0x100080
  101137:	00 00 00 02 00 
  10113c:	48 89 04 25 08 01 10 	mov    %rax,0x100108
  101143:	00 
  101144:	e9 47 ff ff ff       	jmp    101090 <parse_boot_information+0x50>
  101149:	0f 1f 80 00 00 00 00 	nopl   0x0(%rax)
  101150:	48 81 0c 25 80 00 10 	orq    $0x10000,0x100080
  101157:	00 00 00 01 00 
  10115c:	48 89 04 25 00 01 10 	mov    %rax,0x100100
  101163:	00 
  101164:	e9 27 ff ff ff       	jmp    101090 <parse_boot_information+0x50>
  101169:	0f 1f 80 00 00 00 00 	nopl   0x0(%rax)
  101170:	48 81 0c 25 80 00 10 	orq    $0x8000,0x100080
  101177:	00 00 80 00 00 
  10117c:	48 8d 48 08          	lea    0x8(%rax),%rcx
  101180:	48 89 0c 25 f8 00 10 	mov    %rcx,0x1000f8
  101187:	00 
  101188:	e9 03 ff ff ff       	jmp    101090 <parse_boot_information+0x50>
  10118d:	0f 1f 00             	nopl   (%rax)
  101190:	48 81 0c 25 80 00 10 	orq    $0x4000,0x100080
  101197:	00 00 40 00 00 
  10119c:	48 8d 48 08          	lea    0x8(%rax),%rcx
  1011a0:	48 89 0c 25 f0 00 10 	mov    %rcx,0x1000f0
  1011a7:	00 
  1011a8:	e9 e3 fe ff ff       	jmp    101090 <parse_boot_information+0x50>
  1011ad:	0f 1f 00             	nopl   (%rax)
  1011b0:	48 81 0c 25 80 00 10 	orq    $0x2000,0x100080
  1011b7:	00 00 20 00 00 
  1011bc:	48 89 04 25 e8 00 10 	mov    %rax,0x1000e8
  1011c3:	00 
  1011c4:	e9 c7 fe ff ff       	jmp    101090 <parse_boot_information+0x50>
  1011c9:	0f 1f 80 00 00 00 00 	nopl   0x0(%rax)
  1011d0:	48 81 0c 25 80 00 10 	orq    $0x1000,0x100080
  1011d7:	00 00 10 00 00 
  1011dc:	48 89 04 25 e0 00 10 	mov    %rax,0x1000e0
  1011e3:	00 
  1011e4:	e9 a7 fe ff ff       	jmp    101090 <parse_boot_information+0x50>
  1011e9:	0f 1f 80 00 00 00 00 	nopl   0x0(%rax)
  1011f0:	48 81 0c 25 80 00 10 	orq    $0x800,0x100080
  1011f7:	00 00 08 00 00 
  1011fc:	48 89 04 25 d8 00 10 	mov    %rax,0x1000d8
  101203:	00 
  101204:	e9 87 fe ff ff       	jmp    101090 <parse_boot_information+0x50>
  101209:	0f 1f 80 00 00 00 00 	nopl   0x0(%rax)
  101210:	48 81 0c 25 80 00 10 	orq    $0x400,0x100080
  101217:	00 00 04 00 00 
  10121c:	48 89 04 25 d0 00 10 	mov    %rax,0x1000d0
  101223:	00 
  101224:	e9 67 fe ff ff       	jmp    101090 <parse_boot_information+0x50>
  101229:	0f 1f 80 00 00 00 00 	nopl   0x0(%rax)
  101230:	48 81 0c 25 80 00 10 	orq    $0x200,0x100080
  101237:	00 00 02 00 00 
  10123c:	48 89 04 25 c8 00 10 	mov    %rax,0x1000c8
  101243:	00 
  101244:	e9 47 fe ff ff       	jmp    101090 <parse_boot_information+0x50>
  101249:	0f 1f 80 00 00 00 00 	nopl   0x0(%rax)
  101250:	48 81 0c 25 80 00 10 	orq    $0x100,0x100080
  101257:	00 00 01 00 00 
  10125c:	48 89 04 25 c0 00 10 	mov    %rax,0x1000c0
  101263:	00 
  101264:	e9 27 fe ff ff       	jmp    101090 <parse_boot_information+0x50>
  101269:	0f 1f 80 00 00 00 00 	nopl   0x0(%rax)
  101270:	48 81 0c 25 80 00 10 	orq    $0x80,0x100080
  101277:	00 80 00 00 00 
  10127c:	48 89 04 25 b8 00 10 	mov    %rax,0x1000b8
  101283:	00 
  101284:	e9 07 fe ff ff       	jmp    101090 <parse_boot_information+0x50>
  101289:	0f 1f 80 00 00 00 00 	nopl   0x0(%rax)
  101290:	48 83 0c 25 80 00 10 	orq    $0x40,0x100080
  101297:	00 40 
  101299:	48 89 04 25 b0 00 10 	mov    %rax,0x1000b0
  1012a0:	00 
  1012a1:	e9 ea fd ff ff       	jmp    101090 <parse_boot_information+0x50>
  1012a6:	66 2e 0f 1f 84 00 00 	cs nopw 0x0(%rax,%rax,1)
  1012ad:	00 00 00 
  1012b0:	48 83 0c 25 80 00 10 	orq    $0x20,0x100080
  1012b7:	00 20 
  1012b9:	48 89 04 25 a8 00 10 	mov    %rax,0x1000a8
  1012c0:	00 
  1012c1:	e9 ca fd ff ff       	jmp    101090 <parse_boot_information+0x50>
  1012c6:	66 2e 0f 1f 84 00 00 	cs nopw 0x0(%rax,%rax,1)
  1012cd:	00 00 00 
  1012d0:	48 83 0c 25 80 00 10 	orq    $0x10,0x100080
  1012d7:	00 10 
  1012d9:	48 89 04 25 a0 00 10 	mov    %rax,0x1000a0
  1012e0:	00 
  1012e1:	e9 aa fd ff ff       	jmp    101090 <parse_boot_information+0x50>
  1012e6:	66 2e 0f 1f 84 00 00 	cs nopw 0x0(%rax,%rax,1)
  1012ed:	00 00 00 
  1012f0:	48 83 0c 25 80 00 10 	orq    $0x8,0x100080
  1012f7:	00 08 
  1012f9:	48 89 04 25 98 00 10 	mov    %rax,0x100098
  101300:	00 
  101301:	e9 8a fd ff ff       	jmp    101090 <parse_boot_information+0x50>
  101306:	66 2e 0f 1f 84 00 00 	cs nopw 0x0(%rax,%rax,1)
  10130d:	00 00 00 
  101310:	48 83 0c 25 80 00 10 	orq    $0x4,0x100080
  101317:	00 04 
  101319:	48 89 04 25 90 00 10 	mov    %rax,0x100090
  101320:	00 
  101321:	e9 6a fd ff ff       	jmp    101090 <parse_boot_information+0x50>
  101326:	66 2e 0f 1f 84 00 00 	cs nopw 0x0(%rax,%rax,1)
  10132d:	00 00 00 

0000000000101330 <kernelmain>:
  101330:	f3 0f 1e fa          	endbr64 
  101334:	48 83 ec 08          	sub    $0x8,%rsp
  101338:	e8 03 fd ff ff       	call   101040 <parse_boot_information>
  10133d:	48 8b 04 25 80 00 10 	mov    0x100080,%rax
  101344:	00 
  101345:	a8 40                	test   $0x40,%al
  101347:	75 5f                	jne    1013a8 <kernelmain+0x78>
  101349:	f6 c4 01             	test   $0x1,%ah
  10134c:	75 79                	jne    1013c7 <kernelmain+0x97>
  10134e:	e8 9d 13 00 00       	call   1026f0 <dump_vmem>
  101353:	48 8d 3d 46 14 00 00 	lea    0x1446(%rip),%rdi        # 1027a0 <dump_vmem+0xb0>
  10135a:	e8 f1 06 00 00       	call   101a50 <printf>
  10135f:	48 8b 04 25 90 00 10 	mov    0x100090,%rax
  101366:	00 
  101367:	48 8d 78 08          	lea    0x8(%rax),%rdi
  10136b:	e8 e0 06 00 00       	call   101a50 <printf>
  101370:	48 8d 3d 79 15 00 00 	lea    0x1579(%rip),%rdi        # 1028f0 <dump_vmem+0x200>
  101377:	e8 d4 06 00 00       	call   101a50 <printf>
  10137c:	48 8b 3c 25 f8 00 10 	mov    0x1000f8,%rdi
  101383:	00 
  101384:	e8 a7 0a 00 00       	call   101e30 <check_XSDT_t_checksum>
  101389:	48 8b 04 25 f8 00 10 	mov    0x1000f8,%rax
  101390:	00 
  101391:	48 8b 78 18          	mov    0x18(%rax),%rdi
  101395:	e8 76 0d 00 00       	call   102110 <parse_XSDT>
  10139a:	31 c0                	xor    %eax,%eax
  10139c:	48 83 c4 08          	add    $0x8,%rsp
  1013a0:	e9 fb 0e 00 00       	jmp    1022a0 <set_timer>
  1013a5:	0f 1f 00             	nopl   (%rax)
  1013a8:	48 8b 3c 25 b0 00 10 	mov    0x1000b0,%rdi
  1013af:	00 
  1013b0:	e8 cb 0f 00 00       	call   102380 <init_page_stack>
  1013b5:	e8 f6 10 00 00       	call   1024b0 <init_page_table>
  1013ba:	48 8b 04 25 80 00 10 	mov    0x100080,%rax
  1013c1:	00 
  1013c2:	f6 c4 01             	test   $0x1,%ah
  1013c5:	74 87                	je     10134e <kernelmain+0x1e>
  1013c7:	48 8b 3c 25 c0 00 10 	mov    0x1000c0,%rdi
  1013ce:	00 
  1013cf:	e8 cc 08 00 00       	call   101ca0 <init_framebuffer>
  1013d4:	48 8b 3c 25 c0 00 10 	mov    0x1000c0,%rdi
  1013db:	00 
  1013dc:	e8 0f 08 00 00       	call   101bf0 <init_text_mode>
  1013e1:	e9 68 ff ff ff       	jmp    10134e <kernelmain+0x1e>
  1013e6:	66 2e 0f 1f 84 00 00 	cs nopw 0x0(%rax,%rax,1)
  1013ed:	00 00 00 

00000000001013f0 <irq_handler>:
  1013f0:	f3 0f 1e fa          	endbr64 
  1013f4:	48 83 ec 08          	sub    $0x8,%rsp
  1013f8:	48 8d 3d b9 13 00 00 	lea    0x13b9(%rip),%rdi        # 1027b8 <dump_vmem+0xc8>
  1013ff:	e8 4c 06 00 00       	call   101a50 <printf>
  101404:	b8 b0 00 e0 ee       	mov    $0xeee000b0,%eax
  101409:	c7 00 00 00 00 00    	movl   $0x0,(%rax)
  10140f:	48 83 c4 08          	add    $0x8,%rsp
  101413:	c3                   	ret    
  101414:	66 66 2e 0f 1f 84 00 	data16 cs nopw 0x0(%rax,%rax,1)
  10141b:	00 00 00 00 
  10141f:	90                   	nop

0000000000101420 <kernel_panic>:
  101420:	f3 0f 1e fa          	endbr64 
  101424:	41 55                	push   %r13
  101426:	41 54                	push   %r12
  101428:	49 89 fc             	mov    %rdi,%r12
  10142b:	bf 00 00 ff 00       	mov    $0xff0000,%edi
  101430:	55                   	push   %rbp
  101431:	48 89 d5             	mov    %rdx,%rbp
  101434:	53                   	push   %rbx
  101435:	89 f3                	mov    %esi,%ebx
  101437:	31 f6                	xor    %esi,%esi
  101439:	48 81 ec a8 00 00 00 	sub    $0xa8,%rsp
  101440:	e8 8b 07 00 00       	call   101bd0 <set_color>
  101445:	31 ff                	xor    %edi,%edi
  101447:	e8 94 05 00 00       	call   1019e0 <fill_screen>
  10144c:	4c 89 e7             	mov    %r12,%rdi
  10144f:	48 c7 04 25 48 00 10 	movq   $0x0,0x100048
  101456:	00 00 00 00 00 
  10145b:	e8 f0 05 00 00       	call   101a50 <printf>
  101460:	48 8d 05 53 13 00 00 	lea    0x1353(%rip),%rax        # 1027ba <dump_vmem+0xca>
  101467:	f7 db                	neg    %ebx
  101469:	48 89 04 24          	mov    %rax,(%rsp)
  10146d:	48 8d 05 51 13 00 00 	lea    0x1351(%rip),%rax        # 1027c5 <dump_vmem+0xd5>
  101474:	45 19 e4             	sbb    %r12d,%r12d
  101477:	31 db                	xor    %ebx,%ebx
  101479:	48 89 44 24 08       	mov    %rax,0x8(%rsp)
  10147e:	48 8d 05 4b 13 00 00 	lea    0x134b(%rip),%rax        # 1027d0 <dump_vmem+0xe0>
  101485:	41 83 c4 10          	add    $0x10,%r12d
  101489:	48 89 44 24 10       	mov    %rax,0x10(%rsp)
  10148e:	48 8d 05 46 13 00 00 	lea    0x1346(%rip),%rax        # 1027db <dump_vmem+0xeb>
  101495:	45 8d 6c 24 01       	lea    0x1(%r12),%r13d
  10149a:	4d 63 e4             	movslq %r12d,%r12
  10149d:	48 89 44 24 18       	mov    %rax,0x18(%rsp)
  1014a2:	48 8d 05 3d 13 00 00 	lea    0x133d(%rip),%rax        # 1027e6 <dump_vmem+0xf6>
  1014a9:	48 89 44 24 20       	mov    %rax,0x20(%rsp)
  1014ae:	48 8d 05 3c 13 00 00 	lea    0x133c(%rip),%rax        # 1027f1 <dump_vmem+0x101>
  1014b5:	48 89 44 24 28       	mov    %rax,0x28(%rsp)
  1014ba:	48 8d 05 3b 13 00 00 	lea    0x133b(%rip),%rax        # 1027fc <dump_vmem+0x10c>
  1014c1:	48 89 44 24 30       	mov    %rax,0x30(%rsp)
  1014c6:	48 8d 05 3a 13 00 00 	lea    0x133a(%rip),%rax        # 102807 <dump_vmem+0x117>
  1014cd:	48 89 44 24 38       	mov    %rax,0x38(%rsp)
  1014d2:	48 8d 05 39 13 00 00 	lea    0x1339(%rip),%rax        # 102812 <dump_vmem+0x122>
  1014d9:	48 89 44 24 40       	mov    %rax,0x40(%rsp)
  1014de:	48 8d 05 38 13 00 00 	lea    0x1338(%rip),%rax        # 10281d <dump_vmem+0x12d>
  1014e5:	48 89 44 24 48       	mov    %rax,0x48(%rsp)
  1014ea:	48 8d 05 37 13 00 00 	lea    0x1337(%rip),%rax        # 102828 <dump_vmem+0x138>
  1014f1:	48 89 44 24 50       	mov    %rax,0x50(%rsp)
  1014f6:	48 8d 05 36 13 00 00 	lea    0x1336(%rip),%rax        # 102833 <dump_vmem+0x143>
  1014fd:	48 89 44 24 58       	mov    %rax,0x58(%rsp)
  101502:	48 8d 05 35 13 00 00 	lea    0x1335(%rip),%rax        # 10283e <dump_vmem+0x14e>
  101509:	48 89 44 24 60       	mov    %rax,0x60(%rsp)
  10150e:	48 8d 05 34 13 00 00 	lea    0x1334(%rip),%rax        # 102849 <dump_vmem+0x159>
  101515:	48 89 44 24 68       	mov    %rax,0x68(%rsp)
  10151a:	48 8d 05 33 13 00 00 	lea    0x1333(%rip),%rax        # 102854 <dump_vmem+0x164>
  101521:	48 89 44 24 70       	mov    %rax,0x70(%rsp)
  101526:	48 8d 05 32 13 00 00 	lea    0x1332(%rip),%rax        # 10285f <dump_vmem+0x16f>
  10152d:	48 89 44 24 78       	mov    %rax,0x78(%rsp)
  101532:	48 8d 05 31 13 00 00 	lea    0x1331(%rip),%rax        # 10286a <dump_vmem+0x17a>
  101539:	48 89 84 24 80 00 00 	mov    %rax,0x80(%rsp)
  101540:	00 
  101541:	48 8d 05 2d 13 00 00 	lea    0x132d(%rip),%rax        # 102875 <dump_vmem+0x185>
  101548:	48 89 84 24 88 00 00 	mov    %rax,0x88(%rsp)
  10154f:	00 
  101550:	48 8d 05 29 13 00 00 	lea    0x1329(%rip),%rax        # 102880 <dump_vmem+0x190>
  101557:	48 89 84 24 90 00 00 	mov    %rax,0x90(%rsp)
  10155e:	00 
  10155f:	eb 28                	jmp    101589 <kernel_panic+0x169>
  101561:	0f 1f 80 00 00 00 00 	nopl   0x0(%rax)
  101568:	48 63 c3             	movslq %ebx,%rax
  10156b:	83 c3 01             	add    $0x1,%ebx
  10156e:	48 8b 3c c4          	mov    (%rsp,%rax,8),%rdi
  101572:	e8 d9 04 00 00       	call   101a50 <printf>
  101577:	48 8b 7d 00          	mov    0x0(%rbp),%rdi
  10157b:	e8 30 05 00 00       	call   101ab0 <printhex>
  101580:	83 fb 13             	cmp    $0x13,%ebx
  101583:	74 20                	je     1015a5 <kernel_panic+0x185>
  101585:	48 83 c5 08          	add    $0x8,%rbp
  101589:	83 fb 0f             	cmp    $0xf,%ebx
  10158c:	75 da                	jne    101568 <kernel_panic+0x148>
  10158e:	4a 8b 3c e4          	mov    (%rsp,%r12,8),%rdi
  101592:	44 89 eb             	mov    %r13d,%ebx
  101595:	e8 b6 04 00 00       	call   101a50 <printf>
  10159a:	48 8b 7d 00          	mov    0x0(%rbp),%rdi
  10159e:	e8 0d 05 00 00       	call   101ab0 <printhex>
  1015a3:	eb e0                	jmp    101585 <kernel_panic+0x165>
  1015a5:	eb fe                	jmp    1015a5 <kernel_panic+0x185>
  1015a7:	66 0f 1f 84 00 00 00 	nopw   0x0(%rax,%rax,1)
  1015ae:	00 00 

00000000001015b0 <division_error>:
  1015b0:	f3 0f 1e fa          	endbr64 
  1015b4:	50                   	push   %rax
  1015b5:	58                   	pop    %rax
  1015b6:	31 f6                	xor    %esi,%esi
  1015b8:	48 89 fa             	mov    %rdi,%rdx
  1015bb:	48 83 ec 08          	sub    $0x8,%rsp
  1015bf:	48 8d 3d c5 12 00 00 	lea    0x12c5(%rip),%rdi        # 10288b <dump_vmem+0x19b>
  1015c6:	e8 55 fe ff ff       	call   101420 <kernel_panic>
  1015cb:	0f 1f 44 00 00       	nopl   0x0(%rax,%rax,1)

00000000001015d0 <debug>:
  1015d0:	f3 0f 1e fa          	endbr64 
  1015d4:	50                   	push   %rax
  1015d5:	58                   	pop    %rax
  1015d6:	31 f6                	xor    %esi,%esi
  1015d8:	48 89 fa             	mov    %rdi,%rdx
  1015db:	48 83 ec 08          	sub    $0x8,%rsp
  1015df:	48 8d 3d b7 12 00 00 	lea    0x12b7(%rip),%rdi        # 10289d <dump_vmem+0x1ad>
  1015e6:	e8 35 fe ff ff       	call   101420 <kernel_panic>
  1015eb:	0f 1f 44 00 00       	nopl   0x0(%rax,%rax,1)

00000000001015f0 <non_maskable_interrupt>:
  1015f0:	f3 0f 1e fa          	endbr64 
  1015f4:	50                   	push   %rax
  1015f5:	58                   	pop    %rax
  1015f6:	31 f6                	xor    %esi,%esi
  1015f8:	48 89 fa             	mov    %rdi,%rdx
  1015fb:	48 83 ec 08          	sub    $0x8,%rsp
  1015ff:	48 8d 3d a0 12 00 00 	lea    0x12a0(%rip),%rdi        # 1028a6 <dump_vmem+0x1b6>
  101606:	e8 15 fe ff ff       	call   101420 <kernel_panic>
  10160b:	0f 1f 44 00 00       	nopl   0x0(%rax,%rax,1)

0000000000101610 <breakpoint>:
  101610:	f3 0f 1e fa          	endbr64 
  101614:	50                   	push   %rax
  101615:	58                   	pop    %rax
  101616:	31 f6                	xor    %esi,%esi
  101618:	48 89 fa             	mov    %rdi,%rdx
  10161b:	48 83 ec 08          	sub    $0x8,%rsp
  10161f:	48 8d 3d 9a 12 00 00 	lea    0x129a(%rip),%rdi        # 1028c0 <dump_vmem+0x1d0>
  101626:	e8 f5 fd ff ff       	call   101420 <kernel_panic>
  10162b:	0f 1f 44 00 00       	nopl   0x0(%rax,%rax,1)

0000000000101630 <overflow>:
  101630:	f3 0f 1e fa          	endbr64 
  101634:	50                   	push   %rax
  101635:	58                   	pop    %rax
  101636:	31 f6                	xor    %esi,%esi
  101638:	48 89 fa             	mov    %rdi,%rdx
  10163b:	48 83 ec 08          	sub    $0x8,%rsp
  10163f:	48 8d 3d 88 12 00 00 	lea    0x1288(%rip),%rdi        # 1028ce <dump_vmem+0x1de>
  101646:	e8 d5 fd ff ff       	call   101420 <kernel_panic>
  10164b:	0f 1f 44 00 00       	nopl   0x0(%rax,%rax,1)

0000000000101650 <bound_range_exceeded>:
  101650:	f3 0f 1e fa          	endbr64 
  101654:	50                   	push   %rax
  101655:	58                   	pop    %rax
  101656:	31 f6                	xor    %esi,%esi
  101658:	48 89 fa             	mov    %rdi,%rdx
  10165b:	48 83 ec 08          	sub    $0x8,%rsp
  10165f:	48 8d 3d 74 12 00 00 	lea    0x1274(%rip),%rdi        # 1028da <dump_vmem+0x1ea>
  101666:	e8 b5 fd ff ff       	call   101420 <kernel_panic>
  10166b:	0f 1f 44 00 00       	nopl   0x0(%rax,%rax,1)

0000000000101670 <invalid_opcode>:
  101670:	f3 0f 1e fa          	endbr64 
  101674:	50                   	push   %rax
  101675:	58                   	pop    %rax
  101676:	31 f6                	xor    %esi,%esi
  101678:	48 89 fa             	mov    %rdi,%rdx
  10167b:	48 83 ec 08          	sub    $0x8,%rsp
  10167f:	48 8d 3d 6c 12 00 00 	lea    0x126c(%rip),%rdi        # 1028f2 <dump_vmem+0x202>
  101686:	e8 95 fd ff ff       	call   101420 <kernel_panic>
  10168b:	0f 1f 44 00 00       	nopl   0x0(%rax,%rax,1)

0000000000101690 <device_not_available>:
  101690:	f3 0f 1e fa          	endbr64 
  101694:	50                   	push   %rax
  101695:	58                   	pop    %rax
  101696:	31 f6                	xor    %esi,%esi
  101698:	48 89 fa             	mov    %rdi,%rdx
  10169b:	48 83 ec 08          	sub    $0x8,%rsp
  10169f:	48 8d 3d 5e 12 00 00 	lea    0x125e(%rip),%rdi        # 102904 <dump_vmem+0x214>
  1016a6:	e8 75 fd ff ff       	call   101420 <kernel_panic>
  1016ab:	0f 1f 44 00 00       	nopl   0x0(%rax,%rax,1)

00000000001016b0 <double_fault>:
  1016b0:	f3 0f 1e fa          	endbr64 
  1016b4:	50                   	push   %rax
  1016b5:	58                   	pop    %rax
  1016b6:	be 01 00 00 00       	mov    $0x1,%esi
  1016bb:	48 89 fa             	mov    %rdi,%rdx
  1016be:	48 83 ec 08          	sub    $0x8,%rsp
  1016c2:	48 8d 3d 53 12 00 00 	lea    0x1253(%rip),%rdi        # 10291c <dump_vmem+0x22c>
  1016c9:	e8 52 fd ff ff       	call   101420 <kernel_panic>
  1016ce:	66 90                	xchg   %ax,%ax

00000000001016d0 <coprocessor_segment_overrun>:
  1016d0:	f3 0f 1e fa          	endbr64 
  1016d4:	50                   	push   %rax
  1016d5:	58                   	pop    %rax
  1016d6:	31 f6                	xor    %esi,%esi
  1016d8:	48 89 fa             	mov    %rdi,%rdx
  1016db:	48 83 ec 08          	sub    $0x8,%rsp
  1016df:	48 8d 3d 82 1a 00 00 	lea    0x1a82(%rip),%rdi        # 103168 <dump_vmem+0xa78>
  1016e6:	e8 35 fd ff ff       	call   101420 <kernel_panic>
  1016eb:	0f 1f 44 00 00       	nopl   0x0(%rax,%rax,1)

00000000001016f0 <invalid_tss>:
  1016f0:	f3 0f 1e fa          	endbr64 
  1016f4:	50                   	push   %rax
  1016f5:	58                   	pop    %rax
  1016f6:	be 01 00 00 00       	mov    $0x1,%esi
  1016fb:	48 89 fa             	mov    %rdi,%rdx
  1016fe:	48 83 ec 08          	sub    $0x8,%rsp
  101702:	48 8d 3d 23 12 00 00 	lea    0x1223(%rip),%rdi        # 10292c <dump_vmem+0x23c>
  101709:	e8 12 fd ff ff       	call   101420 <kernel_panic>
  10170e:	66 90                	xchg   %ax,%ax

0000000000101710 <segment_not_present>:
  101710:	f3 0f 1e fa          	endbr64 
  101714:	50                   	push   %rax
  101715:	58                   	pop    %rax
  101716:	be 01 00 00 00       	mov    $0x1,%esi
  10171b:	48 89 fa             	mov    %rdi,%rdx
  10171e:	48 83 ec 08          	sub    $0x8,%rsp
  101722:	48 8d 3d 12 12 00 00 	lea    0x1212(%rip),%rdi        # 10293b <dump_vmem+0x24b>
  101729:	e8 f2 fc ff ff       	call   101420 <kernel_panic>
  10172e:	66 90                	xchg   %ax,%ax

0000000000101730 <stack_segment_fault>:
  101730:	f3 0f 1e fa          	endbr64 
  101734:	50                   	push   %rax
  101735:	58                   	pop    %rax
  101736:	be 01 00 00 00       	mov    $0x1,%esi
  10173b:	48 89 fa             	mov    %rdi,%rdx
  10173e:	48 83 ec 08          	sub    $0x8,%rsp
  101742:	48 8d 3d 09 12 00 00 	lea    0x1209(%rip),%rdi        # 102952 <dump_vmem+0x262>
  101749:	e8 d2 fc ff ff       	call   101420 <kernel_panic>
  10174e:	66 90                	xchg   %ax,%ax

0000000000101750 <general_protection_fault>:
  101750:	f3 0f 1e fa          	endbr64 
  101754:	50                   	push   %rax
  101755:	58                   	pop    %rax
  101756:	be 01 00 00 00       	mov    $0x1,%esi
  10175b:	48 89 fa             	mov    %rdi,%rdx
  10175e:	48 83 ec 08          	sub    $0x8,%rsp
  101762:	48 8d 3d 00 12 00 00 	lea    0x1200(%rip),%rdi        # 102969 <dump_vmem+0x279>
  101769:	e8 b2 fc ff ff       	call   101420 <kernel_panic>
  10176e:	66 90                	xchg   %ax,%ax

0000000000101770 <page_fault>:
  101770:	f3 0f 1e fa          	endbr64 
  101774:	50                   	push   %rax
  101775:	58                   	pop    %rax
  101776:	be 01 00 00 00       	mov    $0x1,%esi
  10177b:	48 89 fa             	mov    %rdi,%rdx
  10177e:	48 83 ec 08          	sub    $0x8,%rsp
  101782:	48 8d 3d fc 11 00 00 	lea    0x11fc(%rip),%rdi        # 102985 <dump_vmem+0x295>
  101789:	e8 92 fc ff ff       	call   101420 <kernel_panic>
  10178e:	66 90                	xchg   %ax,%ax

0000000000101790 <x87_floating_point_exception>:
  101790:	f3 0f 1e fa          	endbr64 
  101794:	50                   	push   %rax
  101795:	58                   	pop    %rax
  101796:	31 f6                	xor    %esi,%esi
  101798:	48 89 fa             	mov    %rdi,%rdx
  10179b:	48 83 ec 08          	sub    $0x8,%rsp
  10179f:	48 8d 3d e2 19 00 00 	lea    0x19e2(%rip),%rdi        # 103188 <dump_vmem+0xa98>
  1017a6:	e8 75 fc ff ff       	call   101420 <kernel_panic>
  1017ab:	0f 1f 44 00 00       	nopl   0x0(%rax,%rax,1)

00000000001017b0 <alignment_check>:
  1017b0:	f3 0f 1e fa          	endbr64 
  1017b4:	50                   	push   %rax
  1017b5:	58                   	pop    %rax
  1017b6:	be 01 00 00 00       	mov    $0x1,%esi
  1017bb:	48 89 fa             	mov    %rdi,%rdx
  1017be:	48 83 ec 08          	sub    $0x8,%rsp
  1017c2:	48 8d 3d ca 11 00 00 	lea    0x11ca(%rip),%rdi        # 102993 <dump_vmem+0x2a3>
  1017c9:	e8 52 fc ff ff       	call   101420 <kernel_panic>
  1017ce:	66 90                	xchg   %ax,%ax

00000000001017d0 <machine_check>:
  1017d0:	f3 0f 1e fa          	endbr64 
  1017d4:	50                   	push   %rax
  1017d5:	58                   	pop    %rax
  1017d6:	31 f6                	xor    %esi,%esi
  1017d8:	48 89 fa             	mov    %rdi,%rdx
  1017db:	48 83 ec 08          	sub    $0x8,%rsp
  1017df:	48 8d 3d c0 11 00 00 	lea    0x11c0(%rip),%rdi        # 1029a6 <dump_vmem+0x2b6>
  1017e6:	e8 35 fc ff ff       	call   101420 <kernel_panic>
  1017eb:	0f 1f 44 00 00       	nopl   0x0(%rax,%rax,1)

00000000001017f0 <simd_floating_point_exception>:
  1017f0:	f3 0f 1e fa          	endbr64 
  1017f4:	50                   	push   %rax
  1017f5:	58                   	pop    %rax
  1017f6:	31 f6                	xor    %esi,%esi
  1017f8:	48 89 fa             	mov    %rdi,%rdx
  1017fb:	48 83 ec 08          	sub    $0x8,%rsp
  1017ff:	48 8d 3d a2 19 00 00 	lea    0x19a2(%rip),%rdi        # 1031a8 <dump_vmem+0xab8>
  101806:	e8 15 fc ff ff       	call   101420 <kernel_panic>
  10180b:	0f 1f 44 00 00       	nopl   0x0(%rax,%rax,1)

0000000000101810 <virtualization_exception>:
  101810:	f3 0f 1e fa          	endbr64 
  101814:	50                   	push   %rax
  101815:	58                   	pop    %rax
  101816:	31 f6                	xor    %esi,%esi
  101818:	48 89 fa             	mov    %rdi,%rdx
  10181b:	48 83 ec 08          	sub    $0x8,%rsp
  10181f:	48 8d 3d 91 11 00 00 	lea    0x1191(%rip),%rdi        # 1029b7 <dump_vmem+0x2c7>
  101826:	e8 f5 fb ff ff       	call   101420 <kernel_panic>
  10182b:	0f 1f 44 00 00       	nopl   0x0(%rax,%rax,1)

0000000000101830 <control_protection_exception>:
  101830:	f3 0f 1e fa          	endbr64 
  101834:	50                   	push   %rax
  101835:	58                   	pop    %rax
  101836:	be 01 00 00 00       	mov    $0x1,%esi
  10183b:	48 89 fa             	mov    %rdi,%rdx
  10183e:	48 83 ec 08          	sub    $0x8,%rsp
  101842:	48 8d 3d 83 11 00 00 	lea    0x1183(%rip),%rdi        # 1029cc <dump_vmem+0x2dc>
  101849:	e8 d2 fb ff ff       	call   101420 <kernel_panic>
  10184e:	66 90                	xchg   %ax,%ax

0000000000101850 <hypervisor_injection_exception>:
  101850:	f3 0f 1e fa          	endbr64 
  101854:	50                   	push   %rax
  101855:	58                   	pop    %rax
  101856:	31 f6                	xor    %esi,%esi
  101858:	48 89 fa             	mov    %rdi,%rdx
  10185b:	48 83 ec 08          	sub    $0x8,%rsp
  10185f:	48 8d 3d 6a 19 00 00 	lea    0x196a(%rip),%rdi        # 1031d0 <dump_vmem+0xae0>
  101866:	e8 b5 fb ff ff       	call   101420 <kernel_panic>
  10186b:	0f 1f 44 00 00       	nopl   0x0(%rax,%rax,1)

0000000000101870 <vmm_communication_exception>:
  101870:	f3 0f 1e fa          	endbr64 
  101874:	50                   	push   %rax
  101875:	58                   	pop    %rax
  101876:	be 01 00 00 00       	mov    $0x1,%esi
  10187b:	48 89 fa             	mov    %rdi,%rdx
  10187e:	48 83 ec 08          	sub    $0x8,%rsp
  101882:	48 8d 3d 6f 19 00 00 	lea    0x196f(%rip),%rdi        # 1031f8 <dump_vmem+0xb08>
  101889:	e8 92 fb ff ff       	call   101420 <kernel_panic>
  10188e:	66 90                	xchg   %ax,%ax

0000000000101890 <security_exception>:
  101890:	f3 0f 1e fa          	endbr64 
  101894:	50                   	push   %rax
  101895:	58                   	pop    %rax
  101896:	31 f6                	xor    %esi,%esi
  101898:	48 89 fa             	mov    %rdi,%rdx
  10189b:	48 83 ec 08          	sub    $0x8,%rsp
  10189f:	48 8d 3d 44 11 00 00 	lea    0x1144(%rip),%rdi        # 1029ea <dump_vmem+0x2fa>
  1018a6:	e8 75 fb ff ff       	call   101420 <kernel_panic>
  1018ab:	0f 1f 44 00 00       	nopl   0x0(%rax,%rax,1)

00000000001018b0 <fpu_error_interrupt>:
  1018b0:	f3 0f 1e fa          	endbr64 
  1018b4:	50                   	push   %rax
  1018b5:	58                   	pop    %rax
  1018b6:	31 f6                	xor    %esi,%esi
  1018b8:	48 89 fa             	mov    %rdi,%rdx
  1018bb:	48 83 ec 08          	sub    $0x8,%rsp
  1018bf:	48 8d 3d 3a 11 00 00 	lea    0x113a(%rip),%rdi        # 102a00 <dump_vmem+0x310>
  1018c6:	e8 55 fb ff ff       	call   101420 <kernel_panic>
  1018cb:	0f 1f 44 00 00       	nopl   0x0(%rax,%rax,1)

00000000001018d0 <put_pixel>:
  1018d0:	f3 0f 1e fa          	endbr64 
  1018d4:	0f af 35 95 e7 ff ff 	imul   -0x186b(%rip),%esi        # 100070 <fb+0x10>
  1018db:	48 8b 05 7e e7 ff ff 	mov    -0x1882(%rip),%rax        # 100060 <fb>
  1018e2:	01 fe                	add    %edi,%esi
  1018e4:	48 63 f6             	movslq %esi,%rsi
  1018e7:	89 14 b0             	mov    %edx,(%rax,%rsi,4)
  1018ea:	c3                   	ret    
  1018eb:	0f 1f 44 00 00       	nopl   0x0(%rax,%rax,1)

00000000001018f0 <put_char>:
  1018f0:	f3 0f 1e fa          	endbr64 
  1018f4:	41 57                	push   %r15
  1018f6:	48 0f be c7          	movsbq %dil,%rax
  1018fa:	b9 07 00 00 00       	mov    $0x7,%ecx
  1018ff:	48 8d 15 7a 1e 00 00 	lea    0x1e7a(%rip),%rdx        # 103780 <ascii_chars>
  101906:	41 56                	push   %r14
  101908:	41 bf 01 00 00 00    	mov    $0x1,%r15d
  10190e:	41 55                	push   %r13
  101910:	41 54                	push   %r12
  101912:	55                   	push   %rbp
  101913:	53                   	push   %rbx
  101914:	48 83 ec 10          	sub    $0x10,%rsp
  101918:	4c 8b 2c c2          	mov    (%rdx,%rax,8),%r13
  10191c:	48 8b 05 25 e7 ff ff 	mov    -0x18db(%rip),%rax        # 100048 <tm+0x18>
  101923:	44 8b 25 2e e7 ff ff 	mov    -0x18d2(%rip),%r12d        # 100058 <tm+0x28>
  10192a:	8b 2d 40 e7 ff ff    	mov    -0x18c0(%rip),%ebp        # 100070 <fb+0x10>
  101930:	41 89 c1             	mov    %eax,%r9d
  101933:	48 89 44 24 08       	mov    %rax,0x8(%rsp)
  101938:	4d 8d 55 10          	lea    0x10(%r13),%r10
  10193c:	48 8b 05 fd e6 ff ff 	mov    -0x1903(%rip),%rax        # 100040 <tm+0x10>
  101943:	41 c1 e1 04          	shl    $0x4,%r9d
  101947:	48 8b 1d 12 e7 ff ff 	mov    -0x18ee(%rip),%rbx        # 100060 <fb>
  10194e:	44 8b 1d fb e6 ff ff 	mov    -0x1905(%rip),%r11d        # 100050 <tm+0x20>
  101955:	48 89 04 24          	mov    %rax,(%rsp)
  101959:	44 8d 34 c5 08 00 00 	lea    0x8(,%rax,8),%r14d
  101960:	00 
  101961:	45 29 e9             	sub    %r13d,%r9d
  101964:	0f 1f 40 00          	nopl   0x0(%rax)
  101968:	44 89 ff             	mov    %r15d,%edi
  10196b:	44 89 f6             	mov    %r14d,%esi
  10196e:	4c 89 ea             	mov    %r13,%rdx
  101971:	d3 e7                	shl    %cl,%edi
  101973:	29 ce                	sub    %ecx,%esi
  101975:	0f 1f 00             	nopl   (%rax)
  101978:	41 8d 04 11          	lea    (%r9,%rdx,1),%eax
  10197c:	44 0f be 02          	movsbl (%rdx),%r8d
  101980:	0f af c5             	imul   %ebp,%eax
  101983:	01 f0                	add    %esi,%eax
  101985:	41 85 f8             	test   %edi,%r8d
  101988:	45 89 d8             	mov    %r11d,%r8d
  10198b:	45 0f 44 c4          	cmove  %r12d,%r8d
  10198f:	48 98                	cltq   
  101991:	48 83 c2 01          	add    $0x1,%rdx
  101995:	44 89 04 83          	mov    %r8d,(%rbx,%rax,4)
  101999:	4c 39 d2             	cmp    %r10,%rdx
  10199c:	75 da                	jne    101978 <put_char+0x88>
  10199e:	83 e9 01             	sub    $0x1,%ecx
  1019a1:	73 c5                	jae    101968 <put_char+0x78>
  1019a3:	48 8b 0c 24          	mov    (%rsp),%rcx
  1019a7:	48 3b 0d 82 e6 ff ff 	cmp    -0x197e(%rip),%rcx        # 100030 <tm>
  1019ae:	48 8d 41 01          	lea    0x1(%rcx),%rax
  1019b2:	75 12                	jne    1019c6 <put_char+0xd6>
  1019b4:	48 8b 44 24 08       	mov    0x8(%rsp),%rax
  1019b9:	48 83 c0 01          	add    $0x1,%rax
  1019bd:	48 89 05 84 e6 ff ff 	mov    %rax,-0x197c(%rip)        # 100048 <tm+0x18>
  1019c4:	31 c0                	xor    %eax,%eax
  1019c6:	48 89 05 73 e6 ff ff 	mov    %rax,-0x198d(%rip)        # 100040 <tm+0x10>
  1019cd:	48 83 c4 10          	add    $0x10,%rsp
  1019d1:	5b                   	pop    %rbx
  1019d2:	5d                   	pop    %rbp
  1019d3:	41 5c                	pop    %r12
  1019d5:	41 5d                	pop    %r13
  1019d7:	41 5e                	pop    %r14
  1019d9:	41 5f                	pop    %r15
  1019db:	c3                   	ret    
  1019dc:	0f 1f 40 00          	nopl   0x0(%rax)

00000000001019e0 <fill_screen>:
  1019e0:	f3 0f 1e fa          	endbr64 
  1019e4:	48 8b 05 85 e6 ff ff 	mov    -0x197b(%rip),%rax        # 100070 <fb+0x10>
  1019eb:	48 85 c0             	test   %rax,%rax
  1019ee:	74 51                	je     101a41 <fill_screen+0x61>
  1019f0:	4c 8b 15 81 e6 ff ff 	mov    -0x197f(%rip),%r10        # 100078 <fb+0x18>
  1019f7:	41 89 c3             	mov    %eax,%r11d
  1019fa:	4c 8b 0d 5f e6 ff ff 	mov    -0x19a1(%rip),%r9        # 100060 <fb>
  101a01:	48 98                	cltq   
  101a03:	48 8d 0c 85 00 00 00 	lea    0x0(,%rax,4),%rcx
  101a0a:	00 
  101a0b:	45 31 c0             	xor    %r8d,%r8d
  101a0e:	44 89 d6             	mov    %r10d,%esi
  101a11:	0f 1f 80 00 00 00 00 	nopl   0x0(%rax)
  101a18:	4c 89 ca             	mov    %r9,%rdx
  101a1b:	31 c0                	xor    %eax,%eax
  101a1d:	4d 85 d2             	test   %r10,%r10
  101a20:	74 12                	je     101a34 <fill_screen+0x54>
  101a22:	66 0f 1f 44 00 00    	nopw   0x0(%rax,%rax,1)
  101a28:	83 c0 01             	add    $0x1,%eax
  101a2b:	89 3a                	mov    %edi,(%rdx)
  101a2d:	48 01 ca             	add    %rcx,%rdx
  101a30:	39 c6                	cmp    %eax,%esi
  101a32:	75 f4                	jne    101a28 <fill_screen+0x48>
  101a34:	41 83 c0 01          	add    $0x1,%r8d
  101a38:	49 83 c1 04          	add    $0x4,%r9
  101a3c:	45 39 d8             	cmp    %r11d,%r8d
  101a3f:	75 d7                	jne    101a18 <fill_screen+0x38>
  101a41:	c3                   	ret    
  101a42:	66 66 2e 0f 1f 84 00 	data16 cs nopw 0x0(%rax,%rax,1)
  101a49:	00 00 00 00 
  101a4d:	0f 1f 00             	nopl   (%rax)

0000000000101a50 <printf>:
  101a50:	f3 0f 1e fa          	endbr64 
  101a54:	0f b6 07             	movzbl (%rdi),%eax
  101a57:	84 c0                	test   %al,%al
  101a59:	74 4d                	je     101aa8 <printf+0x58>
  101a5b:	53                   	push   %rbx
  101a5c:	48 8d 5f 01          	lea    0x1(%rdi),%rbx
  101a60:	eb 25                	jmp    101a87 <printf+0x37>
  101a62:	66 0f 1f 44 00 00    	nopw   0x0(%rax,%rax,1)
  101a68:	48 83 c3 01          	add    $0x1,%rbx
  101a6c:	48 83 05 d4 e5 ff ff 	addq   $0x1,-0x1a2c(%rip)        # 100048 <tm+0x18>
  101a73:	01 
  101a74:	48 c7 05 c1 e5 ff ff 	movq   $0x0,-0x1a3f(%rip)        # 100040 <tm+0x10>
  101a7b:	00 00 00 00 
  101a7f:	0f b6 43 ff          	movzbl -0x1(%rbx),%eax
  101a83:	84 c0                	test   %al,%al
  101a85:	74 18                	je     101a9f <printf+0x4f>
  101a87:	3c 0a                	cmp    $0xa,%al
  101a89:	74 dd                	je     101a68 <printf+0x18>
  101a8b:	0f be f8             	movsbl %al,%edi
  101a8e:	48 83 c3 01          	add    $0x1,%rbx
  101a92:	e8 59 fe ff ff       	call   1018f0 <put_char>
  101a97:	0f b6 43 ff          	movzbl -0x1(%rbx),%eax
  101a9b:	84 c0                	test   %al,%al
  101a9d:	75 e8                	jne    101a87 <printf+0x37>
  101a9f:	5b                   	pop    %rbx
  101aa0:	c3                   	ret    
  101aa1:	0f 1f 80 00 00 00 00 	nopl   0x0(%rax)
  101aa8:	c3                   	ret    
  101aa9:	0f 1f 80 00 00 00 00 	nopl   0x0(%rax)

0000000000101ab0 <printhex>:
  101ab0:	f3 0f 1e fa          	endbr64 
  101ab4:	55                   	push   %rbp
  101ab5:	48 89 fd             	mov    %rdi,%rbp
  101ab8:	bf 30 00 00 00       	mov    $0x30,%edi
  101abd:	53                   	push   %rbx
  101abe:	48 8d 1d 53 0f 00 00 	lea    0xf53(%rip),%rbx        # 102a18 <dump_vmem+0x328>
  101ac5:	eb 28                	jmp    101aef <printhex+0x3f>
  101ac7:	66 0f 1f 84 00 00 00 	nopw   0x0(%rax,%rax,1)
  101ace:	00 00 
  101ad0:	0f be 3b             	movsbl (%rbx),%edi
  101ad3:	48 83 c3 01          	add    $0x1,%rbx
  101ad7:	48 83 05 69 e5 ff ff 	addq   $0x1,-0x1a97(%rip)        # 100048 <tm+0x18>
  101ade:	01 
  101adf:	48 c7 05 56 e5 ff ff 	movq   $0x0,-0x1aaa(%rip)        # 100040 <tm+0x10>
  101ae6:	00 00 00 00 
  101aea:	40 84 ff             	test   %dil,%dil
  101aed:	74 17                	je     101b06 <printhex+0x56>
  101aef:	40 80 ff 0a          	cmp    $0xa,%dil
  101af3:	74 db                	je     101ad0 <printhex+0x20>
  101af5:	e8 f6 fd ff ff       	call   1018f0 <put_char>
  101afa:	0f be 3b             	movsbl (%rbx),%edi
  101afd:	48 83 c3 01          	add    $0x1,%rbx
  101b01:	40 84 ff             	test   %dil,%dil
  101b04:	75 e9                	jne    101aef <printhex+0x3f>
  101b06:	bb 3c 00 00 00       	mov    $0x3c,%ebx
  101b0b:	eb 13                	jmp    101b20 <printhex+0x70>
  101b0d:	0f 1f 00             	nopl   (%rax)
  101b10:	83 c7 30             	add    $0x30,%edi
  101b13:	83 eb 04             	sub    $0x4,%ebx
  101b16:	e8 d5 fd ff ff       	call   1018f0 <put_char>
  101b1b:	83 fb fc             	cmp    $0xfffffffc,%ebx
  101b1e:	74 24                	je     101b44 <printhex+0x94>
  101b20:	48 89 ef             	mov    %rbp,%rdi
  101b23:	89 d9                	mov    %ebx,%ecx
  101b25:	48 d3 ef             	shr    %cl,%rdi
  101b28:	83 e7 0f             	and    $0xf,%edi
  101b2b:	83 ff 09             	cmp    $0x9,%edi
  101b2e:	7e e0                	jle    101b10 <printhex+0x60>
  101b30:	83 c7 57             	add    $0x57,%edi
  101b33:	83 eb 04             	sub    $0x4,%ebx
  101b36:	40 0f b6 ff          	movzbl %dil,%edi
  101b3a:	e8 b1 fd ff ff       	call   1018f0 <put_char>
  101b3f:	83 fb fc             	cmp    $0xfffffffc,%ebx
  101b42:	75 dc                	jne    101b20 <printhex+0x70>
  101b44:	5b                   	pop    %rbx
  101b45:	5d                   	pop    %rbp
  101b46:	c3                   	ret    
  101b47:	66 0f 1f 84 00 00 00 	nopw   0x0(%rax,%rax,1)
  101b4e:	00 00 

0000000000101b50 <printbin>:
  101b50:	f3 0f 1e fa          	endbr64 
  101b54:	55                   	push   %rbp
  101b55:	48 89 fd             	mov    %rdi,%rbp
  101b58:	bf 30 00 00 00       	mov    $0x30,%edi
  101b5d:	53                   	push   %rbx
  101b5e:	48 8d 1d b6 0e 00 00 	lea    0xeb6(%rip),%rbx        # 102a1b <dump_vmem+0x32b>
  101b65:	eb 28                	jmp    101b8f <printbin+0x3f>
  101b67:	66 0f 1f 84 00 00 00 	nopw   0x0(%rax,%rax,1)
  101b6e:	00 00 
  101b70:	0f be 3b             	movsbl (%rbx),%edi
  101b73:	48 83 c3 01          	add    $0x1,%rbx
  101b77:	48 83 05 c9 e4 ff ff 	addq   $0x1,-0x1b37(%rip)        # 100048 <tm+0x18>
  101b7e:	01 
  101b7f:	48 c7 05 b6 e4 ff ff 	movq   $0x0,-0x1b4a(%rip)        # 100040 <tm+0x10>
  101b86:	00 00 00 00 
  101b8a:	40 84 ff             	test   %dil,%dil
  101b8d:	74 17                	je     101ba6 <printbin+0x56>
  101b8f:	40 80 ff 0a          	cmp    $0xa,%dil
  101b93:	74 db                	je     101b70 <printbin+0x20>
  101b95:	e8 56 fd ff ff       	call   1018f0 <put_char>
  101b9a:	0f be 3b             	movsbl (%rbx),%edi
  101b9d:	48 83 c3 01          	add    $0x1,%rbx
  101ba1:	40 84 ff             	test   %dil,%dil
  101ba4:	75 e9                	jne    101b8f <printbin+0x3f>
  101ba6:	bb 3f 00 00 00       	mov    $0x3f,%ebx
  101bab:	0f 1f 44 00 00       	nopl   0x0(%rax,%rax,1)
  101bb0:	89 d9                	mov    %ebx,%ecx
  101bb2:	48 89 e8             	mov    %rbp,%rax
  101bb5:	48 d3 e8             	shr    %cl,%rax
  101bb8:	83 e0 01             	and    $0x1,%eax
  101bbb:	8d 78 30             	lea    0x30(%rax),%edi
  101bbe:	e8 2d fd ff ff       	call   1018f0 <put_char>
  101bc3:	83 eb 01             	sub    $0x1,%ebx
  101bc6:	73 e8                	jae    101bb0 <printbin+0x60>
  101bc8:	5b                   	pop    %rbx
  101bc9:	5d                   	pop    %rbp
  101bca:	c3                   	ret    
  101bcb:	0f 1f 44 00 00       	nopl   0x0(%rax,%rax,1)

0000000000101bd0 <set_color>:
  101bd0:	f3 0f 1e fa          	endbr64 
  101bd4:	89 f8                	mov    %edi,%eax
  101bd6:	48 89 05 73 e4 ff ff 	mov    %rax,-0x1b8d(%rip)        # 100050 <tm+0x20>
  101bdd:	89 f0                	mov    %esi,%eax
  101bdf:	48 89 05 72 e4 ff ff 	mov    %rax,-0x1b8e(%rip)        # 100058 <tm+0x28>
  101be6:	c3                   	ret    
  101be7:	66 0f 1f 84 00 00 00 	nopw   0x0(%rax,%rax,1)
  101bee:	00 00 

0000000000101bf0 <init_text_mode>:
  101bf0:	f3 0f 1e fa          	endbr64 
  101bf4:	0f b7 47 14          	movzwl 0x14(%rdi),%eax
  101bf8:	48 c7 05 3d e4 ff ff 	movq   $0x0,-0x1bc3(%rip)        # 100040 <tm+0x10>
  101bff:	00 00 00 00 
  101c03:	66 c1 e8 03          	shr    $0x3,%ax
  101c07:	0f b7 c0             	movzwl %ax,%eax
  101c0a:	48 89 05 1f e4 ff ff 	mov    %rax,-0x1be1(%rip)        # 100030 <tm>
  101c11:	8b 47 18             	mov    0x18(%rdi),%eax
  101c14:	48 c7 05 29 e4 ff ff 	movq   $0x0,-0x1bd7(%rip)        # 100048 <tm+0x18>
  101c1b:	00 00 00 00 
  101c1f:	48 c7 05 26 e4 ff ff 	movq   $0xff00,-0x1bda(%rip)        # 100050 <tm+0x20>
  101c26:	00 ff 00 00 
  101c2a:	66 c1 e8 04          	shr    $0x4,%ax
  101c2e:	48 c7 05 1f e4 ff ff 	movq   $0x0,-0x1be1(%rip)        # 100058 <tm+0x28>
  101c35:	00 00 00 00 
  101c39:	0f b7 c0             	movzwl %ax,%eax
  101c3c:	48 89 05 f5 e3 ff ff 	mov    %rax,-0x1c0b(%rip)        # 100038 <tm+0x8>
  101c43:	48 8b 05 26 e4 ff ff 	mov    -0x1bda(%rip),%rax        # 100070 <fb+0x10>
  101c4a:	48 85 c0             	test   %rax,%rax
  101c4d:	74 4d                	je     101c9c <init_text_mode+0xac>
  101c4f:	4c 8b 0d 22 e4 ff ff 	mov    -0x1bde(%rip),%r9        # 100078 <fb+0x18>
  101c56:	41 89 c2             	mov    %eax,%r10d
  101c59:	4c 8b 05 00 e4 ff ff 	mov    -0x1c00(%rip),%r8        # 100060 <fb>
  101c60:	48 98                	cltq   
  101c62:	48 8d 0c 85 00 00 00 	lea    0x0(,%rax,4),%rcx
  101c69:	00 
  101c6a:	31 ff                	xor    %edi,%edi
  101c6c:	44 89 ce             	mov    %r9d,%esi
  101c6f:	90                   	nop
  101c70:	4c 89 c2             	mov    %r8,%rdx
  101c73:	31 c0                	xor    %eax,%eax
  101c75:	4d 85 c9             	test   %r9,%r9
  101c78:	74 16                	je     101c90 <init_text_mode+0xa0>
  101c7a:	66 0f 1f 44 00 00    	nopw   0x0(%rax,%rax,1)
  101c80:	83 c0 01             	add    $0x1,%eax
  101c83:	c7 02 00 00 00 00    	movl   $0x0,(%rdx)
  101c89:	48 01 ca             	add    %rcx,%rdx
  101c8c:	39 c6                	cmp    %eax,%esi
  101c8e:	75 f0                	jne    101c80 <init_text_mode+0x90>
  101c90:	83 c7 01             	add    $0x1,%edi
  101c93:	49 83 c0 04          	add    $0x4,%r8
  101c97:	44 39 d7             	cmp    %r10d,%edi
  101c9a:	75 d4                	jne    101c70 <init_text_mode+0x80>
  101c9c:	c3                   	ret    
  101c9d:	0f 1f 00             	nopl   (%rax)

0000000000101ca0 <init_framebuffer>:
  101ca0:	f3 0f 1e fa          	endbr64 
  101ca4:	41 54                	push   %r12
  101ca6:	55                   	push   %rbp
  101ca7:	48 89 fd             	mov    %rdi,%rbp
  101caa:	53                   	push   %rbx
  101cab:	8b 47 14             	mov    0x14(%rdi),%eax
  101cae:	48 c7 05 a7 e3 ff ff 	movq   $0x4000000,-0x1c59(%rip)        # 100060 <fb>
  101cb5:	00 00 00 04 
  101cb9:	8b 57 10             	mov    0x10(%rdi),%edx
  101cbc:	48 89 05 ad e3 ff ff 	mov    %rax,-0x1c53(%rip)        # 100070 <fb+0x10>
  101cc3:	8b 47 18             	mov    0x18(%rdi),%eax
  101cc6:	48 89 15 9b e3 ff ff 	mov    %rdx,-0x1c65(%rip)        # 100068 <fb+0x8>
  101ccd:	48 89 05 a4 e3 ff ff 	mov    %rax,-0x1c5c(%rip)        # 100078 <fb+0x18>
  101cd4:	48 0f af c2          	imul   %rdx,%rax
  101cd8:	49 89 c4             	mov    %rax,%r12
  101cdb:	49 c1 ec 15          	shr    $0x15,%r12
  101cdf:	a9 ff ff 1f 00       	test   $0x1fffff,%eax
  101ce4:	74 42                	je     101d28 <init_framebuffer+0x88>
  101ce6:	49 83 c4 01          	add    $0x1,%r12
  101cea:	31 db                	xor    %ebx,%ebx
  101cec:	bf 00 00 00 04       	mov    $0x4000000,%edi
  101cf1:	eb 0c                	jmp    101cff <init_framebuffer+0x5f>
  101cf3:	0f 1f 44 00 00       	nopl   0x0(%rax,%rax,1)
  101cf8:	48 8b 3d 61 e3 ff ff 	mov    -0x1c9f(%rip),%rdi        # 100060 <fb>
  101cff:	48 8b 75 08          	mov    0x8(%rbp),%rsi
  101d03:	48 89 d8             	mov    %rbx,%rax
  101d06:	48 83 c3 01          	add    $0x1,%rbx
  101d0a:	48 c1 e0 15          	shl    $0x15,%rax
  101d0e:	48 01 c6             	add    %rax,%rsi
  101d11:	48 01 c7             	add    %rax,%rdi
  101d14:	e8 67 08 00 00       	call   102580 <map_virtual_memory_to_physical_memory>
  101d19:	49 39 dc             	cmp    %rbx,%r12
  101d1c:	77 da                	ja     101cf8 <init_framebuffer+0x58>
  101d1e:	5b                   	pop    %rbx
  101d1f:	5d                   	pop    %rbp
  101d20:	41 5c                	pop    %r12
  101d22:	c3                   	ret    
  101d23:	0f 1f 44 00 00       	nopl   0x0(%rax,%rax,1)
  101d28:	4d 85 e4             	test   %r12,%r12
  101d2b:	75 bd                	jne    101cea <init_framebuffer+0x4a>
  101d2d:	5b                   	pop    %rbx
  101d2e:	5d                   	pop    %rbp
  101d2f:	41 5c                	pop    %r12
  101d31:	c3                   	ret    
  101d32:	66 2e 0f 1f 84 00 00 	cs nopw 0x0(%rax,%rax,1)
  101d39:	00 00 00 
  101d3c:	0f 1f 40 00          	nopl   0x0(%rax)

0000000000101d40 <write_char_to_serial>:
  101d40:	f3 0f 1e fa          	endbr64 
  101d44:	ba f8 03 00 00       	mov    $0x3f8,%edx
  101d49:	89 f8                	mov    %edi,%eax
  101d4b:	ee                   	out    %al,(%dx)
  101d4c:	c3                   	ret    
  101d4d:	0f 1f 00             	nopl   (%rax)

0000000000101d50 <write_string_to_serial>:
  101d50:	f3 0f 1e fa          	endbr64 
  101d54:	0f b6 07             	movzbl (%rdi),%eax
  101d57:	84 c0                	test   %al,%al
  101d59:	74 19                	je     101d74 <write_string_to_serial+0x24>
  101d5b:	48 83 c7 01          	add    $0x1,%rdi
  101d5f:	ba f8 03 00 00       	mov    $0x3f8,%edx
  101d64:	0f 1f 40 00          	nopl   0x0(%rax)
  101d68:	ee                   	out    %al,(%dx)
  101d69:	0f b6 07             	movzbl (%rdi),%eax
  101d6c:	48 83 c7 01          	add    $0x1,%rdi
  101d70:	84 c0                	test   %al,%al
  101d72:	75 f4                	jne    101d68 <write_string_to_serial+0x18>
  101d74:	c3                   	ret    
  101d75:	66 66 2e 0f 1f 84 00 	data16 cs nopw 0x0(%rax,%rax,1)
  101d7c:	00 00 00 00 

0000000000101d80 <write_hex_to_serial>:
  101d80:	f3 0f 1e fa          	endbr64 
  101d84:	48 8d 0d 8d 0c 00 00 	lea    0xc8d(%rip),%rcx        # 102a18 <dump_vmem+0x328>
  101d8b:	b8 30 00 00 00       	mov    $0x30,%eax
  101d90:	ba f8 03 00 00       	mov    $0x3f8,%edx
  101d95:	0f 1f 00             	nopl   (%rax)
  101d98:	ee                   	out    %al,(%dx)
  101d99:	0f b6 01             	movzbl (%rcx),%eax
  101d9c:	48 83 c1 01          	add    $0x1,%rcx
  101da0:	84 c0                	test   %al,%al
  101da2:	75 f4                	jne    101d98 <write_hex_to_serial+0x18>
  101da4:	b9 3c 00 00 00       	mov    $0x3c,%ecx
  101da9:	ba f8 03 00 00       	mov    $0x3f8,%edx
  101dae:	eb 0c                	jmp    101dbc <write_hex_to_serial+0x3c>
  101db0:	83 c0 30             	add    $0x30,%eax
  101db3:	ee                   	out    %al,(%dx)
  101db4:	83 e9 04             	sub    $0x4,%ecx
  101db7:	83 f9 fc             	cmp    $0xfffffffc,%ecx
  101dba:	74 1a                	je     101dd6 <write_hex_to_serial+0x56>
  101dbc:	48 89 f8             	mov    %rdi,%rax
  101dbf:	48 d3 e8             	shr    %cl,%rax
  101dc2:	83 e0 0f             	and    $0xf,%eax
  101dc5:	83 f8 09             	cmp    $0x9,%eax
  101dc8:	7e e6                	jle    101db0 <write_hex_to_serial+0x30>
  101dca:	83 c0 57             	add    $0x57,%eax
  101dcd:	ee                   	out    %al,(%dx)
  101dce:	83 e9 04             	sub    $0x4,%ecx
  101dd1:	83 f9 fc             	cmp    $0xfffffffc,%ecx
  101dd4:	75 e6                	jne    101dbc <write_hex_to_serial+0x3c>
  101dd6:	c3                   	ret    
  101dd7:	66 0f 1f 84 00 00 00 	nopw   0x0(%rax,%rax,1)
  101dde:	00 00 

0000000000101de0 <check_RSDP_t_checksum>:
  101de0:	f3 0f 1e fa          	endbr64 
  101de4:	48 8d 4f 14          	lea    0x14(%rdi),%rcx
  101de8:	0f 1f 84 00 00 00 00 	nopl   0x0(%rax,%rax,1)
  101def:	00 
  101df0:	0f b6 17             	movzbl (%rdi),%edx
  101df3:	48 83 c7 01          	add    $0x1,%rdi
  101df7:	01 d0                	add    %edx,%eax
  101df9:	48 39 cf             	cmp    %rcx,%rdi
  101dfc:	75 f2                	jne    101df0 <check_RSDP_t_checksum+0x10>
  101dfe:	a8 11                	test   $0x11,%al
  101e00:	75 01                	jne    101e03 <check_RSDP_t_checksum+0x23>
  101e02:	c3                   	ret    
  101e03:	bf 00 00 ff 00       	mov    $0xff0000,%edi
  101e08:	48 83 ec 08          	sub    $0x8,%rsp
  101e0c:	31 f6                	xor    %esi,%esi
  101e0e:	e8 bd fd ff ff       	call   101bd0 <set_color>
  101e13:	48 8d 3d fe 13 00 00 	lea    0x13fe(%rip),%rdi        # 103218 <dump_vmem+0xb28>
  101e1a:	e8 31 fc ff ff       	call   101a50 <printf>
  101e1f:	eb fe                	jmp    101e1f <check_RSDP_t_checksum+0x3f>
  101e21:	66 66 2e 0f 1f 84 00 	data16 cs nopw 0x0(%rax,%rax,1)
  101e28:	00 00 00 00 
  101e2c:	0f 1f 40 00          	nopl   0x0(%rax)

0000000000101e30 <check_XSDT_t_checksum>:
  101e30:	f3 0f 1e fa          	endbr64 
  101e34:	48 83 ec 08          	sub    $0x8,%rsp
  101e38:	48 8d 4f 14          	lea    0x14(%rdi),%rcx
  101e3c:	48 89 f8             	mov    %rdi,%rax
  101e3f:	31 d2                	xor    %edx,%edx
  101e41:	0f 1f 80 00 00 00 00 	nopl   0x0(%rax)
  101e48:	02 10                	add    (%rax),%dl
  101e4a:	48 83 c0 01          	add    $0x1,%rax
  101e4e:	48 39 c8             	cmp    %rcx,%rax
  101e51:	75 f5                	jne    101e48 <check_XSDT_t_checksum+0x18>
  101e53:	48 8d 4f 24          	lea    0x24(%rdi),%rcx
  101e57:	84 d2                	test   %dl,%dl
  101e59:	75 35                	jne    101e90 <check_XSDT_t_checksum+0x60>
  101e5b:	0f 1f 44 00 00       	nopl   0x0(%rax,%rax,1)
  101e60:	02 10                	add    (%rax),%dl
  101e62:	48 83 c0 01          	add    $0x1,%rax
  101e66:	48 39 c8             	cmp    %rcx,%rax
  101e69:	75 f5                	jne    101e60 <check_XSDT_t_checksum+0x30>
  101e6b:	84 d2                	test   %dl,%dl
  101e6d:	75 05                	jne    101e74 <check_XSDT_t_checksum+0x44>
  101e6f:	48 83 c4 08          	add    $0x8,%rsp
  101e73:	c3                   	ret    
  101e74:	bf 00 00 ff 00       	mov    $0xff0000,%edi
  101e79:	31 f6                	xor    %esi,%esi
  101e7b:	e8 50 fd ff ff       	call   101bd0 <set_color>
  101e80:	48 8d 3d b9 13 00 00 	lea    0x13b9(%rip),%rdi        # 103240 <dump_vmem+0xb50>
  101e87:	e8 c4 fb ff ff       	call   101a50 <printf>
  101e8c:	eb fe                	jmp    101e8c <check_XSDT_t_checksum+0x5c>
  101e8e:	66 90                	xchg   %ax,%ax
  101e90:	bf 00 00 ff 00       	mov    $0xff0000,%edi
  101e95:	31 f6                	xor    %esi,%esi
  101e97:	e8 34 fd ff ff       	call   101bd0 <set_color>
  101e9c:	48 8d 3d 9d 13 00 00 	lea    0x139d(%rip),%rdi        # 103240 <dump_vmem+0xb50>
  101ea3:	e8 a8 fb ff ff       	call   101a50 <printf>
  101ea8:	eb fe                	jmp    101ea8 <check_XSDT_t_checksum+0x78>
  101eaa:	66 0f 1f 44 00 00    	nopw   0x0(%rax,%rax,1)

0000000000101eb0 <check_XSDT_checksum>:
  101eb0:	f3 0f 1e fa          	endbr64 
  101eb4:	8b 47 04             	mov    0x4(%rdi),%eax
  101eb7:	85 c0                	test   %eax,%eax
  101eb9:	74 1c                	je     101ed7 <check_XSDT_checksum+0x27>
  101ebb:	83 e8 01             	sub    $0x1,%eax
  101ebe:	48 8d 54 07 01       	lea    0x1(%rdi,%rax,1),%rdx
  101ec3:	31 c0                	xor    %eax,%eax
  101ec5:	0f 1f 00             	nopl   (%rax)
  101ec8:	02 07                	add    (%rdi),%al
  101eca:	48 83 c7 01          	add    $0x1,%rdi
  101ece:	48 39 d7             	cmp    %rdx,%rdi
  101ed1:	75 f5                	jne    101ec8 <check_XSDT_checksum+0x18>
  101ed3:	84 c0                	test   %al,%al
  101ed5:	75 09                	jne    101ee0 <check_XSDT_checksum+0x30>
  101ed7:	c3                   	ret    
  101ed8:	0f 1f 84 00 00 00 00 	nopl   0x0(%rax,%rax,1)
  101edf:	00 
  101ee0:	bf 00 00 ff 00       	mov    $0xff0000,%edi
  101ee5:	48 83 ec 08          	sub    $0x8,%rsp
  101ee9:	31 f6                	xor    %esi,%esi
  101eeb:	e8 e0 fc ff ff       	call   101bd0 <set_color>
  101ef0:	48 8d 3d 71 13 00 00 	lea    0x1371(%rip),%rdi        # 103268 <dump_vmem+0xb78>
  101ef7:	e8 54 fb ff ff       	call   101a50 <printf>
  101efc:	eb fe                	jmp    101efc <check_XSDT_checksum+0x4c>
  101efe:	66 90                	xchg   %ax,%ax

0000000000101f00 <cmp_char>:
  101f00:	f3 0f 1e fa          	endbr64 
  101f04:	85 d2                	test   %edx,%edx
  101f06:	7e 20                	jle    101f28 <cmp_char+0x28>
  101f08:	48 63 d2             	movslq %edx,%rdx
  101f0b:	31 c0                	xor    %eax,%eax
  101f0d:	eb 0a                	jmp    101f19 <cmp_char+0x19>
  101f0f:	90                   	nop
  101f10:	48 83 c0 01          	add    $0x1,%rax
  101f14:	48 39 d0             	cmp    %rdx,%rax
  101f17:	74 0f                	je     101f28 <cmp_char+0x28>
  101f19:	0f b6 0c 06          	movzbl (%rsi,%rax,1),%ecx
  101f1d:	38 0c 07             	cmp    %cl,(%rdi,%rax,1)
  101f20:	74 ee                	je     101f10 <cmp_char+0x10>
  101f22:	31 c0                	xor    %eax,%eax
  101f24:	c3                   	ret    
  101f25:	0f 1f 00             	nopl   (%rax)
  101f28:	b8 01 00 00 00       	mov    $0x1,%eax
  101f2d:	c3                   	ret    
  101f2e:	66 90                	xchg   %ax,%ax

0000000000101f30 <parse_MADT>:
  101f30:	f3 0f 1e fa          	endbr64 
  101f34:	8b 77 04             	mov    0x4(%rdi),%esi
  101f37:	83 fe 2c             	cmp    $0x2c,%esi
  101f3a:	76 64                	jbe    101fa0 <parse_MADT+0x70>
  101f3c:	53                   	push   %rbx
  101f3d:	ba 2c 00 00 00       	mov    $0x2c,%edx
  101f42:	48 8d 0d 3f 08 00 00 	lea    0x83f(%rip),%rcx        # 102788 <dump_vmem+0x98>
  101f49:	0f 1f 80 00 00 00 00 	nopl   0x0(%rax)
  101f50:	48 63 da             	movslq %edx,%rbx
  101f53:	48 01 fb             	add    %rdi,%rbx
  101f56:	80 3b 05             	cmpb   $0x5,(%rbx)
  101f59:	77 21                	ja     101f7c <parse_MADT+0x4c>
  101f5b:	0f b6 03             	movzbl (%rbx),%eax
  101f5e:	48 63 04 81          	movslq (%rcx,%rax,4),%rax
  101f62:	48 01 c8             	add    %rcx,%rax
  101f65:	3e ff e0             	notrack jmp *%rax
  101f68:	0f 1f 84 00 00 00 00 	nopl   0x0(%rax,%rax,1)
  101f6f:	00 
  101f70:	0f b6 43 01          	movzbl 0x1(%rbx),%eax
  101f74:	01 c2                	add    %eax,%edx
  101f76:	39 f2                	cmp    %esi,%edx
  101f78:	72 d6                	jb     101f50 <parse_MADT+0x20>
  101f7a:	5b                   	pop    %rbx
  101f7b:	c3                   	ret    
  101f7c:	31 f6                	xor    %esi,%esi
  101f7e:	bf 00 00 ff 00       	mov    $0xff0000,%edi
  101f83:	e8 48 fc ff ff       	call   101bd0 <set_color>
  101f88:	48 8d 3d 01 13 00 00 	lea    0x1301(%rip),%rdi        # 103290 <dump_vmem+0xba0>
  101f8f:	e8 bc fa ff ff       	call   101a50 <printf>
  101f94:	0f b6 3b             	movzbl (%rbx),%edi
  101f97:	e8 14 fb ff ff       	call   101ab0 <printhex>
  101f9c:	eb fe                	jmp    101f9c <parse_MADT+0x6c>
  101f9e:	66 90                	xchg   %ax,%ax
  101fa0:	c3                   	ret    
  101fa1:	66 66 2e 0f 1f 84 00 	data16 cs nopw 0x0(%rax,%rax,1)
  101fa8:	00 00 00 00 
  101fac:	0f 1f 40 00          	nopl   0x0(%rax)

0000000000101fb0 <parse_FADT>:
  101fb0:	f3 0f 1e fa          	endbr64 
  101fb4:	c3                   	ret    
  101fb5:	66 66 2e 0f 1f 84 00 	data16 cs nopw 0x0(%rax,%rax,1)
  101fbc:	00 00 00 00 

0000000000101fc0 <parse_MCFG>:
  101fc0:	f3 0f 1e fa          	endbr64 
  101fc4:	41 57                	push   %r15
  101fc6:	41 56                	push   %r14
  101fc8:	41 55                	push   %r13
  101fca:	41 54                	push   %r12
  101fcc:	55                   	push   %rbp
  101fcd:	53                   	push   %rbx
  101fce:	48 83 ec 28          	sub    $0x28,%rsp
  101fd2:	83 7f 04 2c          	cmpl   $0x2c,0x4(%rdi)
  101fd6:	48 89 7c 24 18       	mov    %rdi,0x18(%rsp)
  101fdb:	48 c7 44 24 10 2c 00 	movq   $0x2c,0x10(%rsp)
  101fe2:	00 00 
  101fe4:	0f 86 13 01 00 00    	jbe    1020fd <parse_MCFG+0x13d>
  101fea:	4c 8d 2d ff 08 00 00 	lea    0x8ff(%rip),%r13        # 1028f0 <dump_vmem+0x200>
  101ff1:	48 8b 74 24 18       	mov    0x18(%rsp),%rsi
  101ff6:	48 8b 4c 24 10       	mov    0x10(%rsp),%rcx
  101ffb:	48 8d 2d 0e 08 00 00 	lea    0x80e(%rip),%rbp        # 102810 <dump_vmem+0x120>
  102002:	0f b6 54 0e 0a       	movzbl 0xa(%rsi,%rcx,1),%edx
  102007:	4c 8b 3c 0e          	mov    (%rsi,%rcx,1),%r15
  10200b:	89 54 24 0c          	mov    %edx,0xc(%rsp)
  10200f:	3a 54 0e 0b          	cmp    0xb(%rsi,%rcx,1),%dl
  102013:	0f 83 cb 00 00 00    	jae    1020e4 <parse_MCFG+0x124>
  102019:	8b 44 24 0c          	mov    0xc(%rsp),%eax
  10201d:	c7 44 24 04 00 00 00 	movl   $0x0,0x4(%rsp)
  102024:	00 
  102025:	c1 e0 14             	shl    $0x14,%eax
  102028:	89 44 24 08          	mov    %eax,0x8(%rsp)
  10202c:	0f 1f 40 00          	nopl   0x0(%rax)
  102030:	44 8b 64 24 08       	mov    0x8(%rsp),%r12d
  102035:	45 31 f6             	xor    %r14d,%r14d
  102038:	44 0b 64 24 04       	or     0x4(%rsp),%r12d
  10203d:	0f 1f 00             	nopl   (%rax)
  102040:	44 89 e3             	mov    %r12d,%ebx
  102043:	44 09 f3             	or     %r14d,%ebx
  102046:	48 63 db             	movslq %ebx,%rbx
  102049:	4c 01 fb             	add    %r15,%rbx
  10204c:	66 83 3b ff          	cmpw   $0xffff,(%rbx)
  102050:	74 4b                	je     10209d <parse_MCFG+0xdd>
  102052:	4c 89 ef             	mov    %r13,%rdi
  102055:	e8 f6 f9 ff ff       	call   101a50 <printf>
  10205a:	0f b7 3b             	movzwl (%rbx),%edi
  10205d:	e8 4e fa ff ff       	call   101ab0 <printhex>
  102062:	48 89 ef             	mov    %rbp,%rdi
  102065:	e8 e6 f9 ff ff       	call   101a50 <printf>
  10206a:	0f b7 7b 02          	movzwl 0x2(%rbx),%edi
  10206e:	e8 3d fa ff ff       	call   101ab0 <printhex>
  102073:	48 89 ef             	mov    %rbp,%rdi
  102076:	e8 d5 f9 ff ff       	call   101a50 <printf>
  10207b:	0f b6 7b 0b          	movzbl 0xb(%rbx),%edi
  10207f:	e8 2c fa ff ff       	call   101ab0 <printhex>
  102084:	48 89 ef             	mov    %rbp,%rdi
  102087:	e8 c4 f9 ff ff       	call   101a50 <printf>
  10208c:	0f b6 7b 0a          	movzbl 0xa(%rbx),%edi
  102090:	e8 1b fa ff ff       	call   101ab0 <printhex>
  102095:	4c 89 ef             	mov    %r13,%rdi
  102098:	e8 b3 f9 ff ff       	call   101a50 <printf>
  10209d:	41 81 c6 00 10 00 00 	add    $0x1000,%r14d
  1020a4:	41 81 fe 00 80 00 00 	cmp    $0x8000,%r14d
  1020ab:	75 93                	jne    102040 <parse_MCFG+0x80>
  1020ad:	81 44 24 04 00 80 00 	addl   $0x8000,0x4(%rsp)
  1020b4:	00 
  1020b5:	8b 44 24 04          	mov    0x4(%rsp),%eax
  1020b9:	3d 00 00 10 00       	cmp    $0x100000,%eax
  1020be:	0f 85 6c ff ff ff    	jne    102030 <parse_MCFG+0x70>
  1020c4:	48 8b 44 24 18       	mov    0x18(%rsp),%rax
  1020c9:	48 8b 4c 24 10       	mov    0x10(%rsp),%rcx
  1020ce:	83 44 24 0c 01       	addl   $0x1,0xc(%rsp)
  1020d3:	8b 54 24 0c          	mov    0xc(%rsp),%edx
  1020d7:	0f b6 44 08 0b       	movzbl 0xb(%rax,%rcx,1),%eax
  1020dc:	39 d0                	cmp    %edx,%eax
  1020de:	0f 8f 35 ff ff ff    	jg     102019 <parse_MCFG+0x59>
  1020e4:	48 8b 74 24 18       	mov    0x18(%rsp),%rsi
  1020e9:	48 83 44 24 10 10    	addq   $0x10,0x10(%rsp)
  1020ef:	48 8b 44 24 10       	mov    0x10(%rsp),%rax
  1020f4:	39 46 04             	cmp    %eax,0x4(%rsi)
  1020f7:	0f 87 f4 fe ff ff    	ja     101ff1 <parse_MCFG+0x31>
  1020fd:	48 83 c4 28          	add    $0x28,%rsp
  102101:	5b                   	pop    %rbx
  102102:	5d                   	pop    %rbp
  102103:	41 5c                	pop    %r12
  102105:	41 5d                	pop    %r13
  102107:	41 5e                	pop    %r14
  102109:	41 5f                	pop    %r15
  10210b:	c3                   	ret    
  10210c:	0f 1f 40 00          	nopl   0x0(%rax)

0000000000102110 <parse_XSDT>:
  102110:	f3 0f 1e fa          	endbr64 
  102114:	41 57                	push   %r15
  102116:	41 56                	push   %r14
  102118:	41 55                	push   %r13
  10211a:	41 54                	push   %r12
  10211c:	55                   	push   %rbp
  10211d:	53                   	push   %rbx
  10211e:	48 83 ec 08          	sub    $0x8,%rsp
  102122:	8b 77 04             	mov    0x4(%rdi),%esi
  102125:	85 f6                	test   %esi,%esi
  102127:	0f 84 13 01 00 00    	je     102240 <parse_XSDT+0x130>
  10212d:	8d 46 ff             	lea    -0x1(%rsi),%eax
  102130:	31 d2                	xor    %edx,%edx
  102132:	48 8d 4c 07 01       	lea    0x1(%rdi,%rax,1),%rcx
  102137:	48 89 f8             	mov    %rdi,%rax
  10213a:	66 0f 1f 44 00 00    	nopw   0x0(%rax,%rax,1)
  102140:	02 10                	add    (%rax),%dl
  102142:	48 83 c0 01          	add    $0x1,%rax
  102146:	48 39 c8             	cmp    %rcx,%rax
  102149:	75 f5                	jne    102140 <parse_XSDT+0x30>
  10214b:	84 d2                	test   %dl,%dl
  10214d:	0f 85 cd 00 00 00    	jne    102220 <parse_XSDT+0x110>
  102153:	8d 6e dc             	lea    -0x24(%rsi),%ebp
  102156:	48 8d 5f 24          	lea    0x24(%rdi),%rbx
  10215a:	c1 ed 03             	shr    $0x3,%ebp
  10215d:	74 50                	je     1021af <parse_XSDT+0x9f>
  10215f:	4c 8d 3d c8 08 00 00 	lea    0x8c8(%rip),%r15        # 102a2e <dump_vmem+0x33e>
  102166:	45 31 ed             	xor    %r13d,%r13d
  102169:	4c 8d 35 b1 08 00 00 	lea    0x8b1(%rip),%r14        # 102a21 <dump_vmem+0x331>
  102170:	4d 8d 67 fc          	lea    -0x4(%r15),%r12
  102174:	0f 1f 40 00          	nopl   0x0(%rax)
  102178:	4a 8b 3c eb          	mov    (%rbx,%r13,8),%rdi
  10217c:	48 8d 05 a7 08 00 00 	lea    0x8a7(%rip),%rax        # 102a2a <dump_vmem+0x33a>
  102183:	ba 41 00 00 00       	mov    $0x41,%edx
  102188:	48 89 f9             	mov    %rdi,%rcx
  10218b:	4c 29 e1             	sub    %r12,%rcx
  10218e:	eb 03                	jmp    102193 <parse_XSDT+0x83>
  102190:	0f b6 10             	movzbl (%rax),%edx
  102193:	38 14 01             	cmp    %dl,(%rcx,%rax,1)
  102196:	75 28                	jne    1021c0 <parse_XSDT+0xb0>
  102198:	48 83 c0 01          	add    $0x1,%rax
  10219c:	4c 39 f8             	cmp    %r15,%rax
  10219f:	75 ef                	jne    102190 <parse_XSDT+0x80>
  1021a1:	e8 8a fd ff ff       	call   101f30 <parse_MADT>
  1021a6:	49 83 c5 01          	add    $0x1,%r13
  1021aa:	44 39 ed             	cmp    %r13d,%ebp
  1021ad:	7f c9                	jg     102178 <parse_XSDT+0x68>
  1021af:	48 83 c4 08          	add    $0x8,%rsp
  1021b3:	5b                   	pop    %rbx
  1021b4:	5d                   	pop    %rbp
  1021b5:	41 5c                	pop    %r12
  1021b7:	41 5d                	pop    %r13
  1021b9:	41 5e                	pop    %r14
  1021bb:	41 5f                	pop    %r15
  1021bd:	c3                   	ret    
  1021be:	66 90                	xchg   %ax,%ax
  1021c0:	48 8d 05 56 08 00 00 	lea    0x856(%rip),%rax        # 102a1d <dump_vmem+0x32d>
  1021c7:	48 89 f9             	mov    %rdi,%rcx
  1021ca:	ba 46 00 00 00       	mov    $0x46,%edx
  1021cf:	48 29 c1             	sub    %rax,%rcx
  1021d2:	eb 10                	jmp    1021e4 <parse_XSDT+0xd4>
  1021d4:	0f 1f 40 00          	nopl   0x0(%rax)
  1021d8:	48 83 c0 01          	add    $0x1,%rax
  1021dc:	49 39 c6             	cmp    %rax,%r14
  1021df:	74 c5                	je     1021a6 <parse_XSDT+0x96>
  1021e1:	0f b6 10             	movzbl (%rax),%edx
  1021e4:	38 14 01             	cmp    %dl,(%rcx,%rax,1)
  1021e7:	74 ef                	je     1021d8 <parse_XSDT+0xc8>
  1021e9:	4c 8d 0d 36 08 00 00 	lea    0x836(%rip),%r9        # 102a26 <dump_vmem+0x336>
  1021f0:	48 89 f9             	mov    %rdi,%rcx
  1021f3:	ba 4d 00 00 00       	mov    $0x4d,%edx
  1021f8:	49 8d 41 fc          	lea    -0x4(%r9),%rax
  1021fc:	48 29 c1             	sub    %rax,%rcx
  1021ff:	eb 0a                	jmp    10220b <parse_XSDT+0xfb>
  102201:	0f 1f 80 00 00 00 00 	nopl   0x0(%rax)
  102208:	0f b6 10             	movzbl (%rax),%edx
  10220b:	38 14 01             	cmp    %dl,(%rcx,%rax,1)
  10220e:	75 96                	jne    1021a6 <parse_XSDT+0x96>
  102210:	48 83 c0 01          	add    $0x1,%rax
  102214:	49 39 c1             	cmp    %rax,%r9
  102217:	75 ef                	jne    102208 <parse_XSDT+0xf8>
  102219:	e8 a2 fd ff ff       	call   101fc0 <parse_MCFG>
  10221e:	eb 86                	jmp    1021a6 <parse_XSDT+0x96>
  102220:	bf 00 00 ff 00       	mov    $0xff0000,%edi
  102225:	31 f6                	xor    %esi,%esi
  102227:	e8 a4 f9 ff ff       	call   101bd0 <set_color>
  10222c:	48 8d 3d 35 10 00 00 	lea    0x1035(%rip),%rdi        # 103268 <dump_vmem+0xb78>
  102233:	e8 18 f8 ff ff       	call   101a50 <printf>
  102238:	eb fe                	jmp    102238 <parse_XSDT+0x128>
  10223a:	66 0f 1f 44 00 00    	nopw   0x0(%rax,%rax,1)
  102240:	48 8d 5f 24          	lea    0x24(%rdi),%rbx
  102244:	bd fb ff ff 1f       	mov    $0x1ffffffb,%ebp
  102249:	e9 11 ff ff ff       	jmp    10215f <parse_XSDT+0x4f>
  10224e:	66 90                	xchg   %ax,%ax

0000000000102250 <init_APIC>:
  102250:	f3 0f 1e fa          	endbr64 
  102254:	48 83 ec 08          	sub    $0x8,%rsp
  102258:	e8 8a ed ff ff       	call   100fe7 <enable_APIC>
  10225d:	85 c0                	test   %eax,%eax
  10225f:	74 0f                	je     102270 <init_APIC+0x20>
  102261:	83 f8 01             	cmp    $0x1,%eax
  102264:	74 26                	je     10228c <init_APIC+0x3c>
  102266:	83 f8 02             	cmp    $0x2,%eax
  102269:	74 13                	je     10227e <init_APIC+0x2e>
  10226b:	eb fe                	jmp    10226b <init_APIC+0x1b>
  10226d:	0f 1f 00             	nopl   (%rax)
  102270:	bf 00 00 e0 ee       	mov    $0xeee00000,%edi
  102275:	48 83 c4 08          	add    $0x8,%rsp
  102279:	e9 9a ed ff ff       	jmp    101018 <remap_APIC_registers>
  10227e:	48 8d 3d aa 07 00 00 	lea    0x7aa(%rip),%rdi        # 102a2f <dump_vmem+0x33f>
  102285:	e8 c6 f7 ff ff       	call   101a50 <printf>
  10228a:	eb df                	jmp    10226b <init_APIC+0x1b>
  10228c:	48 8d 3d 94 07 00 00 	lea    0x794(%rip),%rdi        # 102a27 <dump_vmem+0x337>
  102293:	e8 b8 f7 ff ff       	call   101a50 <printf>
  102298:	eb d1                	jmp    10226b <init_APIC+0x1b>
  10229a:	66 0f 1f 44 00 00    	nopw   0x0(%rax,%rax,1)

00000000001022a0 <set_timer>:
  1022a0:	f3 0f 1e fa          	endbr64 
  1022a4:	b8 f0 00 e0 ee       	mov    $0xeee000f0,%eax
  1022a9:	48 83 ec 08          	sub    $0x8,%rsp
  1022ad:	c7 00 20 01 00 00    	movl   $0x120,(%rax)
  1022b3:	e8 2f ed ff ff       	call   100fe7 <enable_APIC>
  1022b8:	85 c0                	test   %eax,%eax
  1022ba:	74 14                	je     1022d0 <set_timer+0x30>
  1022bc:	83 f8 01             	cmp    $0x1,%eax
  1022bf:	74 4a                	je     10230b <set_timer+0x6b>
  1022c1:	83 f8 02             	cmp    $0x2,%eax
  1022c4:	74 37                	je     1022fd <set_timer+0x5d>
  1022c6:	eb fe                	jmp    1022c6 <set_timer+0x26>
  1022c8:	0f 1f 84 00 00 00 00 	nopl   0x0(%rax,%rax,1)
  1022cf:	00 
  1022d0:	bf 00 00 e0 ee       	mov    $0xeee00000,%edi
  1022d5:	e8 3e ed ff ff       	call   101018 <remap_APIC_registers>
  1022da:	ba 20 03 e0 ee       	mov    $0xeee00320,%edx
  1022df:	8b 02                	mov    (%rdx),%eax
  1022e1:	25 00 ff f8 ff       	and    $0xfff8ff00,%eax
  1022e6:	0d 20 00 02 00       	or     $0x20020,%eax
  1022eb:	89 02                	mov    %eax,(%rdx)
  1022ed:	b8 80 03 e0 ee       	mov    $0xeee00380,%eax
  1022f2:	c7 00 00 00 00 10    	movl   $0x10000000,(%rax)
  1022f8:	48 83 c4 08          	add    $0x8,%rsp
  1022fc:	c3                   	ret    
  1022fd:	48 8d 3d 2b 07 00 00 	lea    0x72b(%rip),%rdi        # 102a2f <dump_vmem+0x33f>
  102304:	e8 47 f7 ff ff       	call   101a50 <printf>
  102309:	eb bb                	jmp    1022c6 <set_timer+0x26>
  10230b:	48 8d 3d 15 07 00 00 	lea    0x715(%rip),%rdi        # 102a27 <dump_vmem+0x337>
  102312:	e8 39 f7 ff ff       	call   101a50 <printf>
  102317:	eb ad                	jmp    1022c6 <set_timer+0x26>
  102319:	0f 1f 80 00 00 00 00 	nopl   0x0(%rax)

0000000000102320 <pop_page>:
  102320:	f3 0f 1e fa          	endbr64 
  102324:	48 8b 05 d5 fc 30 00 	mov    0x30fcd5(%rip),%rax        # 412000 <page_stack_ptr>
  10232b:	48 8d 15 ce fc 2f 00 	lea    0x2ffcce(%rip),%rdx        # 402000 <page_stack_bottom>
  102332:	48 63 c8             	movslq %eax,%rcx
  102335:	48 83 e8 01          	sub    $0x1,%rax
  102339:	4c 8b 04 ca          	mov    (%rdx,%rcx,8),%r8
  10233d:	48 89 05 bc fc 30 00 	mov    %rax,0x30fcbc(%rip)        # 412000 <page_stack_ptr>
  102344:	4c 89 c0             	mov    %r8,%rax
  102347:	c3                   	ret    
  102348:	0f 1f 84 00 00 00 00 	nopl   0x0(%rax,%rax,1)
  10234f:	00 

0000000000102350 <push_page>:
  102350:	f3 0f 1e fa          	endbr64 
  102354:	48 8b 05 a5 fc 30 00 	mov    0x30fca5(%rip),%rax        # 412000 <page_stack_ptr>
  10235b:	48 8d 15 9e fc 2f 00 	lea    0x2ffc9e(%rip),%rdx        # 402000 <page_stack_bottom>
  102362:	48 83 c0 01          	add    $0x1,%rax
  102366:	48 89 05 93 fc 30 00 	mov    %rax,0x30fc93(%rip)        # 412000 <page_stack_ptr>
  10236d:	48 98                	cltq   
  10236f:	48 89 3c c2          	mov    %rdi,(%rdx,%rax,8)
  102373:	c3                   	ret    
  102374:	66 66 2e 0f 1f 84 00 	data16 cs nopw 0x0(%rax,%rax,1)
  10237b:	00 00 00 00 
  10237f:	90                   	nop

0000000000102380 <init_page_stack>:
  102380:	f3 0f 1e fa          	endbr64 
  102384:	8b 77 04             	mov    0x4(%rdi),%esi
  102387:	48 8d 05 6a fc 2f 00 	lea    0x2ffc6a(%rip),%rax        # 401ff8 <p2_table+0x1ffff8>
  10238e:	8b 4f 08             	mov    0x8(%rdi),%ecx
  102391:	31 d2                	xor    %edx,%edx
  102393:	48 89 05 66 fc 30 00 	mov    %rax,0x30fc66(%rip)        # 412000 <page_stack_ptr>
  10239a:	4c 8d 47 10          	lea    0x10(%rdi),%r8
  10239e:	45 31 c9             	xor    %r9d,%r9d
  1023a1:	4c 8d 15 58 fc 0f 00 	lea    0xffc58(%rip),%r10        # 202000 <p2_table>
  1023a8:	89 f0                	mov    %esi,%eax
  1023aa:	4c 8d 1d 4f fc 2f 00 	lea    0x2ffc4f(%rip),%r11        # 402000 <page_stack_bottom>
  1023b1:	f7 f1                	div    %ecx
  1023b3:	39 ce                	cmp    %ecx,%esi
  1023b5:	0f 82 e5 00 00 00    	jb     1024a0 <init_page_stack+0x120>
  1023bb:	0f 1f 44 00 00       	nopl   0x0(%rax,%rax,1)
  1023c0:	49 8b 08             	mov    (%r8),%rcx
  1023c3:	49 8b 70 08          	mov    0x8(%r8),%rsi
  1023c7:	48 01 ce             	add    %rcx,%rsi
  1023ca:	41 83 78 10 01       	cmpl   $0x1,0x10(%r8)
  1023cf:	74 4f                	je     102420 <init_page_stack+0xa0>
  1023d1:	48 89 ca             	mov    %rcx,%rdx
  1023d4:	48 c1 e9 15          	shr    $0x15,%rcx
  1023d8:	48 81 e2 00 00 e0 ff 	and    $0xffffffffffe00000,%rdx
  1023df:	48 39 d6             	cmp    %rdx,%rsi
  1023e2:	76 27                	jbe    10240b <init_page_stack+0x8b>
  1023e4:	48 63 c9             	movslq %ecx,%rcx
  1023e7:	49 8d 0c ca          	lea    (%r10,%rcx,8),%rcx
  1023eb:	0f 1f 44 00 00       	nopl   0x0(%rax,%rax,1)
  1023f0:	48 89 d7             	mov    %rdx,%rdi
  1023f3:	48 81 c2 00 00 20 00 	add    $0x200000,%rdx
  1023fa:	48 83 c1 08          	add    $0x8,%rcx
  1023fe:	40 80 cf 83          	or     $0x83,%dil
  102402:	48 89 79 f8          	mov    %rdi,-0x8(%rcx)
  102406:	48 39 d6             	cmp    %rdx,%rsi
  102409:	77 e5                	ja     1023f0 <init_page_stack+0x70>
  10240b:	41 83 c1 01          	add    $0x1,%r9d
  10240f:	49 83 c0 18          	add    $0x18,%r8
  102413:	41 39 c1             	cmp    %eax,%r9d
  102416:	72 a8                	jb     1023c0 <init_page_stack+0x40>
  102418:	c3                   	ret    
  102419:	0f 1f 80 00 00 00 00 	nopl   0x0(%rax)
  102420:	48 39 ce             	cmp    %rcx,%rsi
  102423:	77 59                	ja     10247e <init_page_stack+0xfe>
  102425:	eb e4                	jmp    10240b <init_page_stack+0x8b>
  102427:	66 0f 1f 84 00 00 00 	nopw   0x0(%rax,%rax,1)
  10242e:	00 00 
  102430:	48 89 cf             	mov    %rcx,%rdi
  102433:	48 8d 91 00 00 20 00 	lea    0x200000(%rcx),%rdx
  10243a:	81 e7 ff ff 1f 00    	and    $0x1fffff,%edi
  102440:	75 56                	jne    102498 <init_page_stack+0x118>
  102442:	48 81 f9 00 00 60 00 	cmp    $0x600000,%rcx
  102449:	76 2b                	jbe    102476 <init_page_stack+0xf6>
  10244b:	48 89 cf             	mov    %rcx,%rdi
  10244e:	48 c1 ef 15          	shr    $0x15,%rdi
  102452:	48 63 ff             	movslq %edi,%rdi
  102455:	49 c7 04 fa 00 00 00 	movq   $0x0,(%r10,%rdi,8)
  10245c:	00 
  10245d:	48 8b 3d 9c fb 30 00 	mov    0x30fb9c(%rip),%rdi        # 412000 <page_stack_ptr>
  102464:	48 83 c7 01          	add    $0x1,%rdi
  102468:	48 89 3d 91 fb 30 00 	mov    %rdi,0x30fb91(%rip)        # 412000 <page_stack_ptr>
  10246f:	48 63 ff             	movslq %edi,%rdi
  102472:	49 89 0c fb          	mov    %rcx,(%r11,%rdi,8)
  102476:	48 89 d1             	mov    %rdx,%rcx
  102479:	48 39 f1             	cmp    %rsi,%rcx
  10247c:	73 8d                	jae    10240b <init_page_stack+0x8b>
  10247e:	48 89 f2             	mov    %rsi,%rdx
  102481:	48 29 ca             	sub    %rcx,%rdx
  102484:	48 81 fa ff ff 1f 00 	cmp    $0x1fffff,%rdx
  10248b:	77 a3                	ja     102430 <init_page_stack+0xb0>
  10248d:	49 03 48 08          	add    0x8(%r8),%rcx
  102491:	eb e6                	jmp    102479 <init_page_stack+0xf9>
  102493:	0f 1f 44 00 00       	nopl   0x0(%rax,%rax,1)
  102498:	48 89 d1             	mov    %rdx,%rcx
  10249b:	48 29 f9             	sub    %rdi,%rcx
  10249e:	eb d9                	jmp    102479 <init_page_stack+0xf9>
  1024a0:	c3                   	ret    
  1024a1:	66 66 2e 0f 1f 84 00 	data16 cs nopw 0x0(%rax,%rax,1)
  1024a8:	00 00 00 00 
  1024ac:	0f 1f 40 00          	nopl   0x0(%rax)

00000000001024b0 <init_page_table>:
  1024b0:	f3 0f 1e fa          	endbr64 
  1024b4:	48 8d 15 45 eb 0f 00 	lea    0xfeb45(%rip),%rdx        # 201000 <p3_table>
  1024bb:	48 89 d0             	mov    %rdx,%rax
  1024be:	48 83 c8 03          	or     $0x3,%rax
  1024c2:	48 89 05 37 db 0f 00 	mov    %rax,0xfdb37(%rip)        # 200000 <p4_table>
  1024c9:	48 8d 05 30 fb 0f 00 	lea    0xffb30(%rip),%rax        # 202000 <p2_table>
  1024d0:	48 8d b0 00 00 20 00 	lea    0x200000(%rax),%rsi
  1024d7:	66 0f 1f 84 00 00 00 	nopw   0x0(%rax,%rax,1)
  1024de:	00 00 
  1024e0:	48 89 c1             	mov    %rax,%rcx
  1024e3:	48 05 00 10 00 00    	add    $0x1000,%rax
  1024e9:	48 83 c2 08          	add    $0x8,%rdx
  1024ed:	48 83 c9 03          	or     $0x3,%rcx
  1024f1:	48 89 4a f8          	mov    %rcx,-0x8(%rdx)
  1024f5:	48 39 f0             	cmp    %rsi,%rax
  1024f8:	75 e6                	jne    1024e0 <init_page_table+0x30>
  1024fa:	0f 20 d8             	mov    %cr3,%rax
  1024fd:	0f 22 d8             	mov    %rax,%cr3
  102500:	c3                   	ret    
  102501:	66 66 2e 0f 1f 84 00 	data16 cs nopw 0x0(%rax,%rax,1)
  102508:	00 00 00 00 
  10250c:	0f 1f 40 00          	nopl   0x0(%rax)

0000000000102510 <remove_page>:
  102510:	f3 0f 1e fa          	endbr64 
  102514:	48 8b 15 e5 fa 30 00 	mov    0x30fae5(%rip),%rdx        # 412000 <page_stack_ptr>
  10251b:	31 c0                	xor    %eax,%eax
  10251d:	48 8d 0d dc fa 2f 00 	lea    0x2ffadc(%rip),%rcx        # 402000 <page_stack_bottom>
  102524:	eb 13                	jmp    102539 <remove_page+0x29>
  102526:	66 2e 0f 1f 84 00 00 	cs nopw 0x0(%rax,%rax,1)
  10252d:	00 00 00 
  102530:	48 83 c0 01          	add    $0x1,%rax
  102534:	48 39 d0             	cmp    %rdx,%rax
  102537:	77 20                	ja     102559 <remove_page+0x49>
  102539:	48 63 f0             	movslq %eax,%rsi
  10253c:	48 39 3c c1          	cmp    %rdi,(%rcx,%rax,8)
  102540:	75 ee                	jne    102530 <remove_page+0x20>
  102542:	48 63 c2             	movslq %edx,%rax
  102545:	48 83 ea 01          	sub    $0x1,%rdx
  102549:	48 8b 04 c1          	mov    (%rcx,%rax,8),%rax
  10254d:	48 89 04 f1          	mov    %rax,(%rcx,%rsi,8)
  102551:	48 89 15 a8 fa 30 00 	mov    %rdx,0x30faa8(%rip)        # 412000 <page_stack_ptr>
  102558:	c3                   	ret    
  102559:	48 83 ec 08          	sub    $0x8,%rsp
  10255d:	31 ff                	xor    %edi,%edi
  10255f:	e8 7c f4 ff ff       	call   1019e0 <fill_screen>
  102564:	bf 00 00 ff 00       	mov    $0xff0000,%edi
  102569:	31 f6                	xor    %esi,%esi
  10256b:	e8 60 f6 ff ff       	call   101bd0 <set_color>
  102570:	48 8d 3d bf 04 00 00 	lea    0x4bf(%rip),%rdi        # 102a36 <dump_vmem+0x346>
  102577:	e8 d4 f4 ff ff       	call   101a50 <printf>
  10257c:	eb fe                	jmp    10257c <remove_page+0x6c>
  10257e:	66 90                	xchg   %ax,%ax

0000000000102580 <map_virtual_memory_to_physical_memory>:
  102580:	f3 0f 1e fa          	endbr64 
  102584:	48 83 ec 08          	sub    $0x8,%rsp
  102588:	f7 c7 ff 0f 00 00    	test   $0xfff,%edi
  10258e:	0f 85 9c 00 00 00    	jne    102630 <map_virtual_memory_to_physical_memory+0xb0>
  102594:	f7 c6 ff 0f 00 00    	test   $0xfff,%esi
  10259a:	75 6c                	jne    102608 <map_virtual_memory_to_physical_memory+0x88>
  10259c:	48 89 f8             	mov    %rdi,%rax
  10259f:	48 89 fa             	mov    %rdi,%rdx
  1025a2:	48 8d 3d 57 ea 0f 00 	lea    0xfea57(%rip),%rdi        # 201000 <p3_table>
  1025a9:	48 81 e6 00 f0 ff ff 	and    $0xfffffffffffff000,%rsi
  1025b0:	48 c1 ea 27          	shr    $0x27,%rdx
  1025b4:	49 89 f8             	mov    %rdi,%r8
  1025b7:	48 8d 0d 42 da 0f 00 	lea    0xfda42(%rip),%rcx        # 200000 <p4_table>
  1025be:	40 80 ce 83          	or     $0x83,%sil
  1025c2:	81 e2 ff 01 00 00    	and    $0x1ff,%edx
  1025c8:	49 83 c8 03          	or     $0x3,%r8
  1025cc:	4c 89 04 d1          	mov    %r8,(%rcx,%rdx,8)
  1025d0:	48 8d 0d 29 fa 0f 00 	lea    0xffa29(%rip),%rcx        # 202000 <p2_table>
  1025d7:	48 89 c2             	mov    %rax,%rdx
  1025da:	48 c1 ea 1e          	shr    $0x1e,%rdx
  1025de:	49 89 c8             	mov    %rcx,%r8
  1025e1:	81 e2 ff 01 00 00    	and    $0x1ff,%edx
  1025e7:	49 83 c8 03          	or     $0x3,%r8
  1025eb:	4c 89 04 d7          	mov    %r8,(%rdi,%rdx,8)
  1025ef:	48 89 c2             	mov    %rax,%rdx
  1025f2:	48 c1 ea 15          	shr    $0x15,%rdx
  1025f6:	81 e2 ff 01 00 00    	and    $0x1ff,%edx
  1025fc:	48 89 34 d1          	mov    %rsi,(%rcx,%rdx,8)
  102600:	0f 01 38             	invlpg (%rax)
  102603:	48 83 c4 08          	add    $0x8,%rsp
  102607:	c3                   	ret    
  102608:	31 ff                	xor    %edi,%edi
  10260a:	e8 d1 f3 ff ff       	call   1019e0 <fill_screen>
  10260f:	bf 00 00 ff 00       	mov    $0xff0000,%edi
  102614:	31 f6                	xor    %esi,%esi
  102616:	e8 b5 f5 ff ff       	call   101bd0 <set_color>
  10261b:	48 8d 3d ce 0c 00 00 	lea    0xcce(%rip),%rdi        # 1032f0 <dump_vmem+0xc00>
  102622:	e8 29 f4 ff ff       	call   101a50 <printf>
  102627:	eb fe                	jmp    102627 <map_virtual_memory_to_physical_memory+0xa7>
  102629:	0f 1f 80 00 00 00 00 	nopl   0x0(%rax)
  102630:	31 ff                	xor    %edi,%edi
  102632:	e8 a9 f3 ff ff       	call   1019e0 <fill_screen>
  102637:	bf 00 00 ff 00       	mov    $0xff0000,%edi
  10263c:	31 f6                	xor    %esi,%esi
  10263e:	e8 8d f5 ff ff       	call   101bd0 <set_color>
  102643:	48 8d 3d 76 0c 00 00 	lea    0xc76(%rip),%rdi        # 1032c0 <dump_vmem+0xbd0>
  10264a:	e8 01 f4 ff ff       	call   101a50 <printf>
  10264f:	eb fe                	jmp    10264f <map_virtual_memory_to_physical_memory+0xcf>
  102651:	66 66 2e 0f 1f 84 00 	data16 cs nopw 0x0(%rax,%rax,1)
  102658:	00 00 00 00 
  10265c:	0f 1f 40 00          	nopl   0x0(%rax)

0000000000102660 <vmalloc>:
  102660:	f3 0f 1e fa          	endbr64 
  102664:	31 c9                	xor    %ecx,%ecx
  102666:	4c 8d 1d 93 f9 0f 00 	lea    0xff993(%rip),%r11        # 202000 <p2_table>
  10266d:	4c 63 c7             	movslq %edi,%r8
  102670:	eb 11                	jmp    102683 <vmalloc+0x23>
  102672:	66 0f 1f 44 00 00    	nopw   0x0(%rax,%rax,1)
  102678:	83 c1 01             	add    $0x1,%ecx
  10267b:	81 f9 ff ff 03 00    	cmp    $0x3ffff,%ecx
  102681:	7f 41                	jg     1026c4 <vmalloc+0x64>
  102683:	48 63 c1             	movslq %ecx,%rax
  102686:	41 f6 04 c3 01       	testb  $0x1,(%r11,%rax,8)
  10268b:	75 eb                	jne    102678 <vmalloc+0x18>
  10268d:	85 ff                	test   %edi,%edi
  10268f:	7e 4f                	jle    1026e0 <vmalloc+0x80>
  102691:	4d 8d 0c c3          	lea    (%r11,%rax,8),%r9
  102695:	ba 01 00 00 00       	mov    $0x1,%edx
  10269a:	66 0f 1f 44 00 00    	nopw   0x0(%rax,%rax,1)
  1026a0:	4c 39 c2             	cmp    %r8,%rdx
  1026a3:	74 3b                	je     1026e0 <vmalloc+0x80>
  1026a5:	49 8b 34 d1          	mov    (%r9,%rdx,8),%rsi
  1026a9:	44 8d 14 11          	lea    (%rcx,%rdx,1),%r10d
  1026ad:	48 83 c2 01          	add    $0x1,%rdx
  1026b1:	83 e6 01             	and    $0x1,%esi
  1026b4:	74 ea                	je     1026a0 <vmalloc+0x40>
  1026b6:	44 89 d1             	mov    %r10d,%ecx
  1026b9:	83 c1 01             	add    $0x1,%ecx
  1026bc:	81 f9 ff ff 03 00    	cmp    $0x3ffff,%ecx
  1026c2:	7e bf                	jle    102683 <vmalloc+0x23>
  1026c4:	48 83 ec 08          	sub    $0x8,%rsp
  1026c8:	48 8d 3d 7c 03 00 00 	lea    0x37c(%rip),%rdi        # 102a4b <dump_vmem+0x35b>
  1026cf:	e8 7c f3 ff ff       	call   101a50 <printf>
  1026d4:	eb fe                	jmp    1026d4 <vmalloc+0x74>
  1026d6:	66 2e 0f 1f 84 00 00 	cs nopw 0x0(%rax,%rax,1)
  1026dd:	00 00 00 
  1026e0:	48 c1 e0 15          	shl    $0x15,%rax
  1026e4:	c3                   	ret    
  1026e5:	66 66 2e 0f 1f 84 00 	data16 cs nopw 0x0(%rax,%rax,1)
  1026ec:	00 00 00 00 

00000000001026f0 <dump_vmem>:
  1026f0:	f3 0f 1e fa          	endbr64 
  1026f4:	41 54                	push   %r12
  1026f6:	55                   	push   %rbp
  1026f7:	48 8d 2d f2 01 00 00 	lea    0x1f2(%rip),%rbp        # 1028f0 <dump_vmem+0x200>
  1026fe:	53                   	push   %rbx
  1026ff:	48 8d 1d fa f8 0f 00 	lea    0xff8fa(%rip),%rbx        # 202000 <p2_table>
  102706:	4c 8d a3 00 40 00 00 	lea    0x4000(%rbx),%r12
  10270d:	0f 1f 00             	nopl   (%rax)
  102710:	48 8b 3b             	mov    (%rbx),%rdi
  102713:	48 83 c3 08          	add    $0x8,%rbx
  102717:	e8 64 f6 ff ff       	call   101d80 <write_hex_to_serial>
  10271c:	48 89 ef             	mov    %rbp,%rdi
  10271f:	e8 2c f6 ff ff       	call   101d50 <write_string_to_serial>
  102724:	4c 39 e3             	cmp    %r12,%rbx
  102727:	75 e7                	jne    102710 <dump_vmem+0x20>
  102729:	5b                   	pop    %rbx
  10272a:	5d                   	pop    %rbp
  10272b:	41 5c                	pop    %r12
  10272d:	c3                   	ret    

Disassembly of section .rodata:

0000000000102730 <.rodata>:
  102730:	60                   	(bad)  
  102731:	e9 ff ff 48 e9       	jmp    ffffffffe9592735 <Not_implemented_yet+0xffffffffe917e715>
  102736:	ff                   	(bad)  
  102737:	ff e0                	jmp    *%rax
  102739:	eb ff                	jmp    10273a <dump_vmem+0x4a>
  10273b:	ff c0                	inc    %eax
  10273d:	eb ff                	jmp    10273e <dump_vmem+0x4e>
  10273f:	ff a0 eb ff ff 80    	jmp    *-0x7f000015(%rax)
  102745:	eb ff                	jmp    102746 <dump_vmem+0x56>
  102747:	ff 60 eb             	jmp    *-0x15(%rax)
  10274a:	ff                   	(bad)  
  10274b:	ff 40 eb             	incl   -0x15(%rax)
  10274e:	ff                   	(bad)  
  10274f:	ff 20                	jmp    *(%rax)
  102751:	eb ff                	jmp    102752 <dump_vmem+0x62>
  102753:	ff 00                	incl   (%rax)
  102755:	eb ff                	jmp    102756 <dump_vmem+0x66>
  102757:	ff e0                	jmp    *%rax
  102759:	ea                   	(bad)  
  10275a:	ff                   	(bad)  
  10275b:	ff c0                	inc    %eax
  10275d:	ea                   	(bad)  
  10275e:	ff                   	(bad)  
  10275f:	ff a0 ea ff ff 80    	jmp    *-0x7f000016(%rax)
  102765:	ea                   	(bad)  
  102766:	ff                   	(bad)  
  102767:	ff 60 ea             	jmp    *-0x16(%rax)
  10276a:	ff                   	(bad)  
  10276b:	ff 40 ea             	incl   -0x16(%rax)
  10276e:	ff                   	(bad)  
  10276f:	ff 20                	jmp    *(%rax)
  102771:	ea                   	(bad)  
  102772:	ff                   	(bad)  
  102773:	ff 00                	incl   (%rax)
  102775:	ea                   	(bad)  
  102776:	ff                   	(bad)  
  102777:	ff e0                	jmp    *%rax
  102779:	e9 ff ff c0 e9       	jmp    ffffffffe9d1277d <Not_implemented_yet+0xffffffffe98fe75d>
  10277e:	ff                   	(bad)  
  10277f:	ff a0 e9 ff ff 80    	jmp    *-0x7f000017(%rax)
  102785:	e9 ff ff e8 f7       	jmp    fffffffff7f92789 <Not_implemented_yet+0xfffffffff7b7e769>
  10278a:	ff                   	(bad)  
  10278b:	ff                   	(bad)  
  10278c:	e8 f7 ff ff e8       	call   ffffffffe9102788 <Not_implemented_yet+0xffffffffe8cee768>
  102791:	f7 ff                	idiv   %edi
  102793:	ff                   	(bad)  
  102794:	e8 f7 ff ff e8       	call   ffffffffe9102790 <Not_implemented_yet+0xffffffffe8cee770>
  102799:	f7 ff                	idiv   %edi
  10279b:	ff                   	(bad)  
  10279c:	e8                   	.byte 0xe8
  10279d:	f7 ff                	idiv   %edi
  10279f:	ff                   	.byte 0xff

Disassembly of section .rodata.str1.1:

00000000001027a0 <.rodata.str1.1>:
  1027a0:	0a 6b 65             	or     0x65(%rbx),%ch
  1027a3:	72 6e                	jb     102813 <dump_vmem+0x123>
  1027a5:	65 6c                	gs insb (%dx),%es:(%rdi)
  1027a7:	20 77 61             	and    %dh,0x61(%rdi)
  1027aa:	73 20                	jae    1027cc <dump_vmem+0xdc>
  1027ac:	62                   	(bad)  
  1027ad:	6f                   	outsl  %ds:(%rsi),(%dx)
  1027ae:	6f                   	outsl  %ds:(%rsi),(%dx)
  1027af:	74 65                	je     102816 <dump_vmem+0x126>
  1027b1:	64 20 62 79          	and    %ah,%fs:0x79(%rdx)
  1027b5:	3a 20                	cmp    (%rax),%ah
  1027b7:	00 2e                	add    %ch,(%rsi)
  1027b9:	00 0a                	add    %cl,(%rdx)
  1027bb:	20 52 31             	and    %dl,0x31(%rdx)
  1027be:	35 20 20 20 3a       	xor    $0x3a202020,%eax
  1027c3:	20 00                	and    %al,(%rax)
  1027c5:	0a 20                	or     (%rax),%ah
  1027c7:	52                   	push   %rdx
  1027c8:	31 34 20             	xor    %esi,(%rax,%riz,1)
  1027cb:	20 20                	and    %ah,(%rax)
  1027cd:	3a 20                	cmp    (%rax),%ah
  1027cf:	00 0a                	add    %cl,(%rdx)
  1027d1:	20 52 31             	and    %dl,0x31(%rdx)
  1027d4:	33 20                	xor    (%rax),%esp
  1027d6:	20 20                	and    %ah,(%rax)
  1027d8:	3a 20                	cmp    (%rax),%ah
  1027da:	00 0a                	add    %cl,(%rdx)
  1027dc:	20 52 31             	and    %dl,0x31(%rdx)
  1027df:	32 20                	xor    (%rax),%ah
  1027e1:	20 20                	and    %ah,(%rax)
  1027e3:	3a 20                	cmp    (%rax),%ah
  1027e5:	00 0a                	add    %cl,(%rdx)
  1027e7:	20 52 31             	and    %dl,0x31(%rdx)
  1027ea:	31 20                	xor    %esp,(%rax)
  1027ec:	20 20                	and    %ah,(%rax)
  1027ee:	3a 20                	cmp    (%rax),%ah
  1027f0:	00 0a                	add    %cl,(%rdx)
  1027f2:	20 52 31             	and    %dl,0x31(%rdx)
  1027f5:	30 20                	xor    %ah,(%rax)
  1027f7:	20 20                	and    %ah,(%rax)
  1027f9:	3a 20                	cmp    (%rax),%ah
  1027fb:	00 0a                	add    %cl,(%rdx)
  1027fd:	20 52 39             	and    %dl,0x39(%rdx)
  102800:	20 20                	and    %ah,(%rax)
  102802:	20 20                	and    %ah,(%rax)
  102804:	3a 20                	cmp    (%rax),%ah
  102806:	00 0a                	add    %cl,(%rdx)
  102808:	20 52 38             	and    %dl,0x38(%rdx)
  10280b:	20 20                	and    %ah,(%rax)
  10280d:	20 20                	and    %ah,(%rax)
  10280f:	3a 20                	cmp    (%rax),%ah
  102811:	00 0a                	add    %cl,(%rdx)
  102813:	20 52 42             	and    %dl,0x42(%rdx)
  102816:	50                   	push   %rax
  102817:	20 20                	and    %ah,(%rax)
  102819:	20 3a                	and    %bh,(%rdx)
  10281b:	20 00                	and    %al,(%rax)
  10281d:	0a 20                	or     (%rax),%ah
  10281f:	52                   	push   %rdx
  102820:	44                   	rex.R
  102821:	49 20 20             	rex.WB and %spl,(%r8)
  102824:	20 3a                	and    %bh,(%rdx)
  102826:	20 00                	and    %al,(%rax)
  102828:	0a 20                	or     (%rax),%ah
  10282a:	52                   	push   %rdx
  10282b:	53                   	push   %rbx
  10282c:	49 20 20             	rex.WB and %spl,(%r8)
  10282f:	20 3a                	and    %bh,(%rdx)
  102831:	20 00                	and    %al,(%rax)
  102833:	0a 20                	or     (%rax),%ah
  102835:	52                   	push   %rdx
  102836:	44 58                	rex.R pop %rax
  102838:	20 20                	and    %ah,(%rax)
  10283a:	20 3a                	and    %bh,(%rdx)
  10283c:	20 00                	and    %al,(%rax)
  10283e:	0a 20                	or     (%rax),%ah
  102840:	52                   	push   %rdx
  102841:	43 58                	rex.XB pop %r8
  102843:	20 20                	and    %ah,(%rax)
  102845:	20 3a                	and    %bh,(%rdx)
  102847:	20 00                	and    %al,(%rax)
  102849:	0a 20                	or     (%rax),%ah
  10284b:	52                   	push   %rdx
  10284c:	42 58                	rex.X pop %rax
  10284e:	20 20                	and    %ah,(%rax)
  102850:	20 3a                	and    %bh,(%rdx)
  102852:	20 00                	and    %al,(%rax)
  102854:	0a 20                	or     (%rax),%ah
  102856:	52                   	push   %rdx
  102857:	41 58                	pop    %r8
  102859:	20 20                	and    %ah,(%rax)
  10285b:	20 3a                	and    %bh,(%rdx)
  10285d:	20 00                	and    %al,(%rax)
  10285f:	0a 20                	or     (%rax),%ah
  102861:	45 52                	rex.RB push %r10
  102863:	52                   	push   %rdx
  102864:	20 20                	and    %ah,(%rax)
  102866:	20 3a                	and    %bh,(%rdx)
  102868:	20 00                	and    %al,(%rax)
  10286a:	0a 20                	or     (%rax),%ah
  10286c:	52                   	push   %rdx
  10286d:	49 50                	rex.WB push %r8
  10286f:	20 20                	and    %ah,(%rax)
  102871:	20 3a                	and    %bh,(%rdx)
  102873:	20 00                	and    %al,(%rax)
  102875:	0a 20                	or     (%rax),%ah
  102877:	43 53                	rex.XB push %r11
  102879:	20 20                	and    %ah,(%rax)
  10287b:	20 20                	and    %ah,(%rax)
  10287d:	3a 20                	cmp    (%rax),%ah
  10287f:	00 0a                	add    %cl,(%rdx)
  102881:	20 45 46             	and    %al,0x46(%rbp)
  102884:	4c                   	rex.WR
  102885:	41                   	rex.B
  102886:	47 53                	rex.RXB push %r11
  102888:	3a 20                	cmp    (%rax),%ah
  10288a:	00 0a                	add    %cl,(%rdx)
  10288c:	20 44 49 56          	and    %al,0x56(%rcx,%rcx,2)
  102890:	49 53                	rex.WB push %r11
  102892:	49                   	rex.WB
  102893:	4f                   	rex.WRXB
  102894:	4e 20 45 52          	rex.WRX and %r8b,0x52(%rbp)
  102898:	52                   	push   %rdx
  102899:	4f 52                	rex.WRXB push %r10
  10289b:	0a 00                	or     (%rax),%al
  10289d:	0a 20                	or     (%rax),%ah
  10289f:	44                   	rex.R
  1028a0:	45                   	rex.RB
  1028a1:	42 55                	rex.X push %rbp
  1028a3:	47 0a 00             	rex.RXB or (%r8),%r8b
  1028a6:	0a 20                	or     (%rax),%ah
  1028a8:	4e                   	rex.WRX
  1028a9:	4f                   	rex.WRXB
  1028aa:	4e 20 4d 41          	rex.WRX and %r9b,0x41(%rbp)
  1028ae:	53                   	push   %rbx
  1028af:	4b                   	rex.WXB
  1028b0:	41                   	rex.B
  1028b1:	42                   	rex.X
  1028b2:	4c                   	rex.WR
  1028b3:	45 20 49 4e          	and    %r9b,0x4e(%r9)
  1028b7:	54                   	push   %rsp
  1028b8:	45 52                	rex.RB push %r10
  1028ba:	52                   	push   %rdx
  1028bb:	55                   	push   %rbp
  1028bc:	50                   	push   %rax
  1028bd:	54                   	push   %rsp
  1028be:	0a 00                	or     (%rax),%al
  1028c0:	0a 20                	or     (%rax),%ah
  1028c2:	42 52                	rex.X push %rdx
  1028c4:	45                   	rex.RB
  1028c5:	41                   	rex.B
  1028c6:	4b 50                	rex.WXB push %r8
  1028c8:	4f                   	rex.WRXB
  1028c9:	49                   	rex.WB
  1028ca:	4e 54                	rex.WRX push %rsp
  1028cc:	0a 00                	or     (%rax),%al
  1028ce:	0a 20                	or     (%rax),%ah
  1028d0:	4f 56                	rex.WRXB push %r14
  1028d2:	45 52                	rex.RB push %r10
  1028d4:	46                   	rex.RX
  1028d5:	4c                   	rex.WR
  1028d6:	4f 57                	rex.WRXB push %r15
  1028d8:	0a 00                	or     (%rax),%al
  1028da:	0a 20                	or     (%rax),%ah
  1028dc:	42                   	rex.X
  1028dd:	4f 55                	rex.WRXB push %r13
  1028df:	4e                   	rex.WRX
  1028e0:	44 20 52 41          	and    %r10b,0x41(%rdx)
  1028e4:	4e                   	rex.WRX
  1028e5:	47                   	rex.RXB
  1028e6:	45 20 45 58          	and    %r8b,0x58(%r13)
  1028ea:	43                   	rex.XB
  1028eb:	45                   	rex.RB
  1028ec:	45                   	rex.RB
  1028ed:	44                   	rex.R
  1028ee:	45                   	rex.RB
  1028ef:	44 0a 00             	or     (%rax),%r8b
  1028f2:	0a 20                	or     (%rax),%ah
  1028f4:	49                   	rex.WB
  1028f5:	4e 56                	rex.WRX push %rsi
  1028f7:	41                   	rex.B
  1028f8:	4c                   	rex.WR
  1028f9:	49                   	rex.WB
  1028fa:	44 20 4f 50          	and    %r9b,0x50(%rdi)
  1028fe:	43                   	rex.XB
  1028ff:	4f                   	rex.WRXB
  102900:	44                   	rex.R
  102901:	45 0a 00             	or     (%r8),%r8b
  102904:	0a 20                	or     (%rax),%ah
  102906:	44                   	rex.R
  102907:	45 56                	rex.RB push %r14
  102909:	49                   	rex.WB
  10290a:	43                   	rex.XB
  10290b:	45 20 4e 4f          	and    %r9b,0x4f(%r14)
  10290f:	54                   	push   %rsp
  102910:	20 41 56             	and    %al,0x56(%rcx)
  102913:	41                   	rex.B
  102914:	49                   	rex.WB
  102915:	4c                   	rex.WR
  102916:	41                   	rex.B
  102917:	42                   	rex.X
  102918:	4c                   	rex.WR
  102919:	45 0a 00             	or     (%r8),%r8b
  10291c:	0a 20                	or     (%rax),%ah
  10291e:	44                   	rex.R
  10291f:	4f 55                	rex.WRXB push %r13
  102921:	42                   	rex.X
  102922:	4c                   	rex.WR
  102923:	45 20 46 41          	and    %r8b,0x41(%r14)
  102927:	55                   	push   %rbp
  102928:	4c 54                	rex.WR push %rsp
  10292a:	0a 00                	or     (%rax),%al
  10292c:	0a 20                	or     (%rax),%ah
  10292e:	49                   	rex.WB
  10292f:	4e 56                	rex.WRX push %rsi
  102931:	41                   	rex.B
  102932:	4c                   	rex.WR
  102933:	49                   	rex.WB
  102934:	44 20 54 53 53       	and    %r10b,0x53(%rbx,%rdx,2)
  102939:	0a 00                	or     (%rax),%al
  10293b:	0a 20                	or     (%rax),%ah
  10293d:	53                   	push   %rbx
  10293e:	45                   	rex.RB
  10293f:	47                   	rex.RXB
  102940:	4d                   	rex.WRB
  102941:	45                   	rex.RB
  102942:	4e 54                	rex.WRX push %rsp
  102944:	20 4e 4f             	and    %cl,0x4f(%rsi)
  102947:	54                   	push   %rsp
  102948:	20 50 52             	and    %dl,0x52(%rax)
  10294b:	45 53                	rex.RB push %r11
  10294d:	45                   	rex.RB
  10294e:	4e 54                	rex.WRX push %rsp
  102950:	0a 00                	or     (%rax),%al
  102952:	0a 20                	or     (%rax),%ah
  102954:	53                   	push   %rbx
  102955:	54                   	push   %rsp
  102956:	41                   	rex.B
  102957:	43                   	rex.XB
  102958:	4b 20 53 45          	rex.WXB and %dl,0x45(%r11)
  10295c:	47                   	rex.RXB
  10295d:	4d                   	rex.WRB
  10295e:	45                   	rex.RB
  10295f:	4e 54                	rex.WRX push %rsp
  102961:	20 46 41             	and    %al,0x41(%rsi)
  102964:	55                   	push   %rbp
  102965:	4c 54                	rex.WR push %rsp
  102967:	0a 00                	or     (%rax),%al
  102969:	0a 20                	or     (%rax),%ah
  10296b:	47                   	rex.RXB
  10296c:	45                   	rex.RB
  10296d:	4e                   	rex.WRX
  10296e:	45 52                	rex.RB push %r10
  102970:	41                   	rex.B
  102971:	4c 20 50 52          	rex.WR and %r10b,0x52(%rax)
  102975:	4f 54                	rex.WRXB push %r12
  102977:	45                   	rex.RB
  102978:	43 54                	rex.XB push %r12
  10297a:	49                   	rex.WB
  10297b:	4f                   	rex.WRXB
  10297c:	4e 20 46 41          	rex.WRX and %r8b,0x41(%rsi)
  102980:	55                   	push   %rbp
  102981:	4c 54                	rex.WR push %rsp
  102983:	0a 00                	or     (%rax),%al
  102985:	0a 20                	or     (%rax),%ah
  102987:	50                   	push   %rax
  102988:	41                   	rex.B
  102989:	47                   	rex.RXB
  10298a:	45 20 46 41          	and    %r8b,0x41(%r14)
  10298e:	55                   	push   %rbp
  10298f:	4c 54                	rex.WR push %rsp
  102991:	0a 00                	or     (%rax),%al
  102993:	0a 20                	or     (%rax),%ah
  102995:	41                   	rex.B
  102996:	4c                   	rex.WR
  102997:	49                   	rex.WB
  102998:	47                   	rex.RXB
  102999:	4e                   	rex.WRX
  10299a:	4d                   	rex.WRB
  10299b:	45                   	rex.RB
  10299c:	4e 54                	rex.WRX push %rsp
  10299e:	20 43 48             	and    %al,0x48(%rbx)
  1029a1:	45                   	rex.RB
  1029a2:	43                   	rex.XB
  1029a3:	4b 0a 00             	rex.WXB or (%r8),%al
  1029a6:	0a 20                	or     (%rax),%ah
  1029a8:	4d                   	rex.WRB
  1029a9:	41                   	rex.B
  1029aa:	43                   	rex.XB
  1029ab:	48                   	rex.W
  1029ac:	49                   	rex.WB
  1029ad:	4e                   	rex.WRX
  1029ae:	45 20 43 48          	and    %r8b,0x48(%r11)
  1029b2:	45                   	rex.RB
  1029b3:	43                   	rex.XB
  1029b4:	4b 0a 00             	rex.WXB or (%r8),%al
  1029b7:	0a 20                	or     (%rax),%ah
  1029b9:	56                   	push   %rsi
  1029ba:	49 52                	rex.WB push %r10
  1029bc:	54                   	push   %rsp
  1029bd:	55                   	push   %rbp
  1029be:	41                   	rex.B
  1029bf:	4c 20 45 58          	rex.WR and %r8b,0x58(%rbp)
  1029c3:	43                   	rex.XB
  1029c4:	45 50                	rex.RB push %r8
  1029c6:	54                   	push   %rsp
  1029c7:	49                   	rex.WB
  1029c8:	4f                   	rex.WRXB
  1029c9:	4e 0a 00             	rex.WRX or (%rax),%r8b
  1029cc:	0a 20                	or     (%rax),%ah
  1029ce:	43                   	rex.XB
  1029cf:	4f                   	rex.WRXB
  1029d0:	4e 54                	rex.WRX push %rsp
  1029d2:	52                   	push   %rdx
  1029d3:	4f                   	rex.WRXB
  1029d4:	4c 20 50 52          	rex.WR and %r10b,0x52(%rax)
  1029d8:	4f 54                	rex.WRXB push %r12
  1029da:	45                   	rex.RB
  1029db:	43 54                	rex.XB push %r12
  1029dd:	49                   	rex.WB
  1029de:	4f                   	rex.WRXB
  1029df:	4e 20 4f 56          	rex.WRX and %r9b,0x56(%rdi)
  1029e3:	45 52                	rex.RB push %r10
  1029e5:	52                   	push   %rdx
  1029e6:	55                   	push   %rbp
  1029e7:	4e 0a 00             	rex.WRX or (%rax),%r8b
  1029ea:	0a 20                	or     (%rax),%ah
  1029ec:	53                   	push   %rbx
  1029ed:	45                   	rex.RB
  1029ee:	43 55                	rex.XB push %r13
  1029f0:	52                   	push   %rdx
  1029f1:	49 54                	rex.WB push %r12
  1029f3:	59                   	pop    %rcx
  1029f4:	20 45 58             	and    %al,0x58(%rbp)
  1029f7:	43                   	rex.XB
  1029f8:	45 50                	rex.RB push %r8
  1029fa:	54                   	push   %rsp
  1029fb:	49                   	rex.WB
  1029fc:	4f                   	rex.WRXB
  1029fd:	4e 0a 00             	rex.WRX or (%rax),%r8b
  102a00:	0a 20                	or     (%rax),%ah
  102a02:	46 50                	rex.RX push %rax
  102a04:	55                   	push   %rbp
  102a05:	20 45 52             	and    %al,0x52(%rbp)
  102a08:	52                   	push   %rdx
  102a09:	4f 52                	rex.WRXB push %r10
  102a0b:	20 49 4e             	and    %cl,0x4e(%rcx)
  102a0e:	54                   	push   %rsp
  102a0f:	45 52                	rex.RB push %r10
  102a11:	52                   	push   %rdx
  102a12:	55                   	push   %rbp
  102a13:	50                   	push   %rax
  102a14:	54                   	push   %rsp
  102a15:	0a 00                	or     (%rax),%al
  102a17:	30 78 00             	xor    %bh,0x0(%rax)
  102a1a:	30 62 00             	xor    %ah,0x0(%rdx)
  102a1d:	46                   	rex.RX
  102a1e:	41                   	rex.B
  102a1f:	43 50                	rex.XB push %r8
  102a21:	00 4d 43             	add    %cl,0x43(%rbp)
  102a24:	46                   	rex.RX
  102a25:	47 00 6e 6f          	rex.RXB add %r13b,0x6f(%r14)
  102a29:	20 41 50             	and    %al,0x50(%rcx)
  102a2c:	49                   	rex.WB
  102a2d:	43 00 6e 6f          	rex.XB add %bpl,0x6f(%r14)
  102a31:	20 4d 53             	and    %cl,0x53(%rbp)
  102a34:	52                   	push   %rdx
  102a35:	00 45 52             	add    %al,0x52(%rbp)
  102a38:	52                   	push   %rdx
  102a39:	4f 52                	rex.WRXB push %r10
  102a3b:	3a 20                	cmp    (%rax),%ah
  102a3d:	50                   	push   %rax
  102a3e:	61                   	(bad)  
  102a3f:	67 65 20 6e 6f       	and    %ch,%gs:0x6f(%esi)
  102a44:	74 20                	je     102a66 <dump_vmem+0x376>
  102a46:	66 6f                	outsw  %ds:(%rsi),(%dx)
  102a48:	6e                   	outsb  %ds:(%rsi),(%dx)
  102a49:	64 00 45 52          	add    %al,%fs:0x52(%rbp)
  102a4d:	52                   	push   %rdx
  102a4e:	4f 52                	rex.WRXB push %r10
  102a50:	3a 20                	cmp    (%rax),%ah
  102a52:	76 6d                	jbe    102ac1 <dump_vmem+0x3d1>
  102a54:	61                   	(bad)  
  102a55:	6c                   	insb   (%dx),%es:(%rdi)
  102a56:	6c                   	insb   (%dx),%es:(%rdi)
  102a57:	6f                   	outsl  %ds:(%rsi),(%dx)
  102a58:	63 20                	movsxd (%rax),%esp
  102a5a:	66 61                	data16 (bad) 
  102a5c:	69                   	.byte 0x69
  102a5d:	6c                   	insb   (%dx),%es:(%rdi)
  102a5e:	65                   	gs
  102a5f:	64                   	fs
	...

Disassembly of section .eh_frame:

0000000000102a68 <.eh_frame>:
  102a68:	14 00                	adc    $0x0,%al
  102a6a:	00 00                	add    %al,(%rax)
  102a6c:	00 00                	add    %al,(%rax)
  102a6e:	00 00                	add    %al,(%rax)
  102a70:	01 7a 52             	add    %edi,0x52(%rdx)
  102a73:	00 01                	add    %al,(%rcx)
  102a75:	78 10                	js     102a87 <dump_vmem+0x397>
  102a77:	01 1b                	add    %ebx,(%rbx)
  102a79:	0c 07                	or     $0x7,%al
  102a7b:	08 90 01 00 00 10    	or     %dl,0x10000001(%rax)
  102a81:	00 00                	add    %al,(%rax)
  102a83:	00 1c 00             	add    %bl,(%rax,%rax,1)
  102a86:	00 00                	add    %al,(%rax)
  102a88:	b8 e5 ff ff e6       	mov    $0xe6ffffe5,%eax
  102a8d:	02 00                	add    (%rax),%al
  102a8f:	00 00                	add    %al,(%rax)
  102a91:	00 00                	add    %al,(%rax)
  102a93:	00 18                	add    %bl,(%rax)
  102a95:	00 00                	add    %al,(%rax)
  102a97:	00 30                	add    %dh,(%rax)
  102a99:	00 00                	add    %al,(%rax)
  102a9b:	00 94 e8 ff ff b6 00 	add    %dl,0xb6ffff(%rax,%rbp,8)
  102aa2:	00 00                	add    %al,(%rax)
  102aa4:	00 48 0e             	add    %cl,0xe(%rax)
  102aa7:	10 02                	adc    %al,(%rdx)
  102aa9:	68 0a 0e 08 48       	push   $0x48080e0a
  102aae:	0b 00                	or     (%rax),%eax
  102ab0:	14 00                	adc    $0x0,%al
  102ab2:	00 00                	add    %al,(%rax)
  102ab4:	4c 00 00             	rex.WR add %r8b,(%rax)
  102ab7:	00 38                	add    %bh,(%rax)
  102ab9:	e9 ff ff 24 00       	jmp    352abd <p2_table+0x150abd>
  102abe:	00 00                	add    %al,(%rax)
  102ac0:	00 48 0e             	add    %cl,0xe(%rax)
  102ac3:	10 5b 0e             	adc    %bl,0xe(%rbx)
  102ac6:	08 00                	or     %al,(%rax)
  102ac8:	28 00                	sub    %al,(%rax)
  102aca:	00 00                	add    %al,(%rax)
  102acc:	64 00 00             	add    %al,%fs:(%rax)
  102acf:	00 50 e9             	add    %dl,-0x17(%rax)
  102ad2:	ff                   	(bad)  
  102ad3:	ff 87 01 00 00 00    	incl   0x1(%rdi)
  102ad9:	46 0e                	rex.RX (bad) 
  102adb:	10 8d 02 42 0e 18    	adc    %cl,0x180e4202(%rbp)
  102ae1:	8c 03                	mov    %es,(%rbx)
  102ae3:	49 0e                	rex.WB (bad) 
  102ae5:	20 86 04 44 0e 28    	and    %al,0x280e4404(%rsi)
  102aeb:	83 05 4b 0e d0 01 00 	addl   $0x0,0x1d00e4b(%rip)        # 1e0393d <Not_implemented_yet+0x19ef91d>
  102af2:	00 00                	add    %al,(%rax)
  102af4:	18 00                	sbb    %al,(%rax)
  102af6:	00 00                	add    %al,(%rax)
  102af8:	90                   	nop
  102af9:	00 00                	add    %al,(%rax)
  102afb:	00 b4 ea ff ff 1b 00 	add    %dh,0x1bffff(%rdx,%rbp,8)
  102b02:	00 00                	add    %al,(%rax)
  102b04:	00 45 0e             	add    %al,0xe(%rbp)
  102b07:	10 41 0e             	adc    %al,0xe(%rcx)
  102b0a:	08 49 0e             	or     %cl,0xe(%rcx)
  102b0d:	10 00                	adc    %al,(%rax)
  102b0f:	00 18                	add    %bl,(%rax)
  102b11:	00 00                	add    %al,(%rax)
  102b13:	00 ac 00 00 00 b8 ea 	add    %ch,-0x15480000(%rax,%rax,1)
  102b1a:	ff                   	(bad)  
  102b1b:	ff 1b                	lcall  *(%rbx)
  102b1d:	00 00                	add    %al,(%rax)
  102b1f:	00 00                	add    %al,(%rax)
  102b21:	45 0e                	rex.RB (bad) 
  102b23:	10 41 0e             	adc    %al,0xe(%rcx)
  102b26:	08 49 0e             	or     %cl,0xe(%rcx)
  102b29:	10 00                	adc    %al,(%rax)
  102b2b:	00 18                	add    %bl,(%rax)
  102b2d:	00 00                	add    %al,(%rax)
  102b2f:	00 c8                	add    %cl,%al
  102b31:	00 00                	add    %al,(%rax)
  102b33:	00 bc ea ff ff 1b 00 	add    %bh,0x1bffff(%rdx,%rbp,8)
  102b3a:	00 00                	add    %al,(%rax)
  102b3c:	00 45 0e             	add    %al,0xe(%rbp)
  102b3f:	10 41 0e             	adc    %al,0xe(%rcx)
  102b42:	08 49 0e             	or     %cl,0xe(%rcx)
  102b45:	10 00                	adc    %al,(%rax)
  102b47:	00 18                	add    %bl,(%rax)
  102b49:	00 00                	add    %al,(%rax)
  102b4b:	00 e4                	add    %ah,%ah
  102b4d:	00 00                	add    %al,(%rax)
  102b4f:	00 c0                	add    %al,%al
  102b51:	ea                   	(bad)  
  102b52:	ff                   	(bad)  
  102b53:	ff 1b                	lcall  *(%rbx)
  102b55:	00 00                	add    %al,(%rax)
  102b57:	00 00                	add    %al,(%rax)
  102b59:	45 0e                	rex.RB (bad) 
  102b5b:	10 41 0e             	adc    %al,0xe(%rcx)
  102b5e:	08 49 0e             	or     %cl,0xe(%rcx)
  102b61:	10 00                	adc    %al,(%rax)
  102b63:	00 18                	add    %bl,(%rax)
  102b65:	00 00                	add    %al,(%rax)
  102b67:	00 00                	add    %al,(%rax)
  102b69:	01 00                	add    %eax,(%rax)
  102b6b:	00 c4                	add    %al,%ah
  102b6d:	ea                   	(bad)  
  102b6e:	ff                   	(bad)  
  102b6f:	ff 1b                	lcall  *(%rbx)
  102b71:	00 00                	add    %al,(%rax)
  102b73:	00 00                	add    %al,(%rax)
  102b75:	45 0e                	rex.RB (bad) 
  102b77:	10 41 0e             	adc    %al,0xe(%rcx)
  102b7a:	08 49 0e             	or     %cl,0xe(%rcx)
  102b7d:	10 00                	adc    %al,(%rax)
  102b7f:	00 18                	add    %bl,(%rax)
  102b81:	00 00                	add    %al,(%rax)
  102b83:	00 1c 01             	add    %bl,(%rcx,%rax,1)
  102b86:	00 00                	add    %al,(%rax)
  102b88:	c8 ea ff ff          	enter  $0xffea,$0xff
  102b8c:	1b 00                	sbb    (%rax),%eax
  102b8e:	00 00                	add    %al,(%rax)
  102b90:	00 45 0e             	add    %al,0xe(%rbp)
  102b93:	10 41 0e             	adc    %al,0xe(%rcx)
  102b96:	08 49 0e             	or     %cl,0xe(%rcx)
  102b99:	10 00                	adc    %al,(%rax)
  102b9b:	00 18                	add    %bl,(%rax)
  102b9d:	00 00                	add    %al,(%rax)
  102b9f:	00 38                	add    %bh,(%rax)
  102ba1:	01 00                	add    %eax,(%rax)
  102ba3:	00 cc                	add    %cl,%ah
  102ba5:	ea                   	(bad)  
  102ba6:	ff                   	(bad)  
  102ba7:	ff 1b                	lcall  *(%rbx)
  102ba9:	00 00                	add    %al,(%rax)
  102bab:	00 00                	add    %al,(%rax)
  102bad:	45 0e                	rex.RB (bad) 
  102baf:	10 41 0e             	adc    %al,0xe(%rcx)
  102bb2:	08 49 0e             	or     %cl,0xe(%rcx)
  102bb5:	10 00                	adc    %al,(%rax)
  102bb7:	00 18                	add    %bl,(%rax)
  102bb9:	00 00                	add    %al,(%rax)
  102bbb:	00 54 01 00          	add    %dl,0x0(%rcx,%rax,1)
  102bbf:	00 d0                	add    %dl,%al
  102bc1:	ea                   	(bad)  
  102bc2:	ff                   	(bad)  
  102bc3:	ff 1b                	lcall  *(%rbx)
  102bc5:	00 00                	add    %al,(%rax)
  102bc7:	00 00                	add    %al,(%rax)
  102bc9:	45 0e                	rex.RB (bad) 
  102bcb:	10 41 0e             	adc    %al,0xe(%rcx)
  102bce:	08 49 0e             	or     %cl,0xe(%rcx)
  102bd1:	10 00                	adc    %al,(%rax)
  102bd3:	00 18                	add    %bl,(%rax)
  102bd5:	00 00                	add    %al,(%rax)
  102bd7:	00 70 01             	add    %dh,0x1(%rax)
  102bda:	00 00                	add    %al,(%rax)
  102bdc:	d4                   	(bad)  
  102bdd:	ea                   	(bad)  
  102bde:	ff                   	(bad)  
  102bdf:	ff 1e                	lcall  *(%rsi)
  102be1:	00 00                	add    %al,(%rax)
  102be3:	00 00                	add    %al,(%rax)
  102be5:	45 0e                	rex.RB (bad) 
  102be7:	10 41 0e             	adc    %al,0xe(%rcx)
  102bea:	08 4c 0e 10          	or     %cl,0x10(%rsi,%rcx,1)
  102bee:	00 00                	add    %al,(%rax)
  102bf0:	18 00                	sbb    %al,(%rax)
  102bf2:	00 00                	add    %al,(%rax)
  102bf4:	8c 01                	mov    %es,(%rcx)
  102bf6:	00 00                	add    %al,(%rax)
  102bf8:	d8 ea                	fsubr  %st(2),%st
  102bfa:	ff                   	(bad)  
  102bfb:	ff 1b                	lcall  *(%rbx)
  102bfd:	00 00                	add    %al,(%rax)
  102bff:	00 00                	add    %al,(%rax)
  102c01:	45 0e                	rex.RB (bad) 
  102c03:	10 41 0e             	adc    %al,0xe(%rcx)
  102c06:	08 49 0e             	or     %cl,0xe(%rcx)
  102c09:	10 00                	adc    %al,(%rax)
  102c0b:	00 18                	add    %bl,(%rax)
  102c0d:	00 00                	add    %al,(%rax)
  102c0f:	00 a8 01 00 00 dc    	add    %ch,-0x23ffffff(%rax)
  102c15:	ea                   	(bad)  
  102c16:	ff                   	(bad)  
  102c17:	ff 1e                	lcall  *(%rsi)
  102c19:	00 00                	add    %al,(%rax)
  102c1b:	00 00                	add    %al,(%rax)
  102c1d:	45 0e                	rex.RB (bad) 
  102c1f:	10 41 0e             	adc    %al,0xe(%rcx)
  102c22:	08 4c 0e 10          	or     %cl,0x10(%rsi,%rcx,1)
  102c26:	00 00                	add    %al,(%rax)
  102c28:	18 00                	sbb    %al,(%rax)
  102c2a:	00 00                	add    %al,(%rax)
  102c2c:	c4 01 00 00          	(bad)
  102c30:	e0 ea                	loopne 102c1c <dump_vmem+0x52c>
  102c32:	ff                   	(bad)  
  102c33:	ff 1e                	lcall  *(%rsi)
  102c35:	00 00                	add    %al,(%rax)
  102c37:	00 00                	add    %al,(%rax)
  102c39:	45 0e                	rex.RB (bad) 
  102c3b:	10 41 0e             	adc    %al,0xe(%rcx)
  102c3e:	08 4c 0e 10          	or     %cl,0x10(%rsi,%rcx,1)
  102c42:	00 00                	add    %al,(%rax)
  102c44:	18 00                	sbb    %al,(%rax)
  102c46:	00 00                	add    %al,(%rax)
  102c48:	e0 01                	loopne 102c4b <dump_vmem+0x55b>
  102c4a:	00 00                	add    %al,(%rax)
  102c4c:	e4 ea                	in     $0xea,%al
  102c4e:	ff                   	(bad)  
  102c4f:	ff 1e                	lcall  *(%rsi)
  102c51:	00 00                	add    %al,(%rax)
  102c53:	00 00                	add    %al,(%rax)
  102c55:	45 0e                	rex.RB (bad) 
  102c57:	10 41 0e             	adc    %al,0xe(%rcx)
  102c5a:	08 4c 0e 10          	or     %cl,0x10(%rsi,%rcx,1)
  102c5e:	00 00                	add    %al,(%rax)
  102c60:	18 00                	sbb    %al,(%rax)
  102c62:	00 00                	add    %al,(%rax)
  102c64:	fc                   	cld    
  102c65:	01 00                	add    %eax,(%rax)
  102c67:	00 e8                	add    %ch,%al
  102c69:	ea                   	(bad)  
  102c6a:	ff                   	(bad)  
  102c6b:	ff 1e                	lcall  *(%rsi)
  102c6d:	00 00                	add    %al,(%rax)
  102c6f:	00 00                	add    %al,(%rax)
  102c71:	45 0e                	rex.RB (bad) 
  102c73:	10 41 0e             	adc    %al,0xe(%rcx)
  102c76:	08 4c 0e 10          	or     %cl,0x10(%rsi,%rcx,1)
  102c7a:	00 00                	add    %al,(%rax)
  102c7c:	18 00                	sbb    %al,(%rax)
  102c7e:	00 00                	add    %al,(%rax)
  102c80:	18 02                	sbb    %al,(%rdx)
  102c82:	00 00                	add    %al,(%rax)
  102c84:	ec                   	in     (%dx),%al
  102c85:	ea                   	(bad)  
  102c86:	ff                   	(bad)  
  102c87:	ff 1e                	lcall  *(%rsi)
  102c89:	00 00                	add    %al,(%rax)
  102c8b:	00 00                	add    %al,(%rax)
  102c8d:	45 0e                	rex.RB (bad) 
  102c8f:	10 41 0e             	adc    %al,0xe(%rcx)
  102c92:	08 4c 0e 10          	or     %cl,0x10(%rsi,%rcx,1)
  102c96:	00 00                	add    %al,(%rax)
  102c98:	18 00                	sbb    %al,(%rax)
  102c9a:	00 00                	add    %al,(%rax)
  102c9c:	34 02                	xor    $0x2,%al
  102c9e:	00 00                	add    %al,(%rax)
  102ca0:	f0 ea                	lock (bad) 
  102ca2:	ff                   	(bad)  
  102ca3:	ff 1b                	lcall  *(%rbx)
  102ca5:	00 00                	add    %al,(%rax)
  102ca7:	00 00                	add    %al,(%rax)
  102ca9:	45 0e                	rex.RB (bad) 
  102cab:	10 41 0e             	adc    %al,0xe(%rcx)
  102cae:	08 49 0e             	or     %cl,0xe(%rcx)
  102cb1:	10 00                	adc    %al,(%rax)
  102cb3:	00 18                	add    %bl,(%rax)
  102cb5:	00 00                	add    %al,(%rax)
  102cb7:	00 50 02             	add    %dl,0x2(%rax)
  102cba:	00 00                	add    %al,(%rax)
  102cbc:	f4                   	hlt    
  102cbd:	ea                   	(bad)  
  102cbe:	ff                   	(bad)  
  102cbf:	ff 1e                	lcall  *(%rsi)
  102cc1:	00 00                	add    %al,(%rax)
  102cc3:	00 00                	add    %al,(%rax)
  102cc5:	45 0e                	rex.RB (bad) 
  102cc7:	10 41 0e             	adc    %al,0xe(%rcx)
  102cca:	08 4c 0e 10          	or     %cl,0x10(%rsi,%rcx,1)
  102cce:	00 00                	add    %al,(%rax)
  102cd0:	18 00                	sbb    %al,(%rax)
  102cd2:	00 00                	add    %al,(%rax)
  102cd4:	6c                   	insb   (%dx),%es:(%rdi)
  102cd5:	02 00                	add    (%rax),%al
  102cd7:	00 f8                	add    %bh,%al
  102cd9:	ea                   	(bad)  
  102cda:	ff                   	(bad)  
  102cdb:	ff 1b                	lcall  *(%rbx)
  102cdd:	00 00                	add    %al,(%rax)
  102cdf:	00 00                	add    %al,(%rax)
  102ce1:	45 0e                	rex.RB (bad) 
  102ce3:	10 41 0e             	adc    %al,0xe(%rcx)
  102ce6:	08 49 0e             	or     %cl,0xe(%rcx)
  102ce9:	10 00                	adc    %al,(%rax)
  102ceb:	00 18                	add    %bl,(%rax)
  102ced:	00 00                	add    %al,(%rax)
  102cef:	00 88 02 00 00 fc    	add    %cl,-0x3fffffe(%rax)
  102cf5:	ea                   	(bad)  
  102cf6:	ff                   	(bad)  
  102cf7:	ff 1b                	lcall  *(%rbx)
  102cf9:	00 00                	add    %al,(%rax)
  102cfb:	00 00                	add    %al,(%rax)
  102cfd:	45 0e                	rex.RB (bad) 
  102cff:	10 41 0e             	adc    %al,0xe(%rcx)
  102d02:	08 49 0e             	or     %cl,0xe(%rcx)
  102d05:	10 00                	adc    %al,(%rax)
  102d07:	00 18                	add    %bl,(%rax)
  102d09:	00 00                	add    %al,(%rax)
  102d0b:	00 a4 02 00 00 00 eb 	add    %ah,-0x15000000(%rdx,%rax,1)
  102d12:	ff                   	(bad)  
  102d13:	ff 1b                	lcall  *(%rbx)
  102d15:	00 00                	add    %al,(%rax)
  102d17:	00 00                	add    %al,(%rax)
  102d19:	45 0e                	rex.RB (bad) 
  102d1b:	10 41 0e             	adc    %al,0xe(%rcx)
  102d1e:	08 49 0e             	or     %cl,0xe(%rcx)
  102d21:	10 00                	adc    %al,(%rax)
  102d23:	00 18                	add    %bl,(%rax)
  102d25:	00 00                	add    %al,(%rax)
  102d27:	00 c0                	add    %al,%al
  102d29:	02 00                	add    (%rax),%al
  102d2b:	00 04 eb             	add    %al,(%rbx,%rbp,8)
  102d2e:	ff                   	(bad)  
  102d2f:	ff 1e                	lcall  *(%rsi)
  102d31:	00 00                	add    %al,(%rax)
  102d33:	00 00                	add    %al,(%rax)
  102d35:	45 0e                	rex.RB (bad) 
  102d37:	10 41 0e             	adc    %al,0xe(%rcx)
  102d3a:	08 4c 0e 10          	or     %cl,0x10(%rsi,%rcx,1)
  102d3e:	00 00                	add    %al,(%rax)
  102d40:	18 00                	sbb    %al,(%rax)
  102d42:	00 00                	add    %al,(%rax)
  102d44:	dc 02                	faddl  (%rdx)
  102d46:	00 00                	add    %al,(%rax)
  102d48:	08 eb                	or     %ch,%bl
  102d4a:	ff                   	(bad)  
  102d4b:	ff 1b                	lcall  *(%rbx)
  102d4d:	00 00                	add    %al,(%rax)
  102d4f:	00 00                	add    %al,(%rax)
  102d51:	45 0e                	rex.RB (bad) 
  102d53:	10 41 0e             	adc    %al,0xe(%rcx)
  102d56:	08 49 0e             	or     %cl,0xe(%rcx)
  102d59:	10 00                	adc    %al,(%rax)
  102d5b:	00 18                	add    %bl,(%rax)
  102d5d:	00 00                	add    %al,(%rax)
  102d5f:	00 f8                	add    %bh,%al
  102d61:	02 00                	add    (%rax),%al
  102d63:	00 0c eb             	add    %cl,(%rbx,%rbp,8)
  102d66:	ff                   	(bad)  
  102d67:	ff 1e                	lcall  *(%rsi)
  102d69:	00 00                	add    %al,(%rax)
  102d6b:	00 00                	add    %al,(%rax)
  102d6d:	45 0e                	rex.RB (bad) 
  102d6f:	10 41 0e             	adc    %al,0xe(%rcx)
  102d72:	08 4c 0e 10          	or     %cl,0x10(%rsi,%rcx,1)
  102d76:	00 00                	add    %al,(%rax)
  102d78:	18 00                	sbb    %al,(%rax)
  102d7a:	00 00                	add    %al,(%rax)
  102d7c:	14 03                	adc    $0x3,%al
  102d7e:	00 00                	add    %al,(%rax)
  102d80:	10 eb                	adc    %ch,%bl
  102d82:	ff                   	(bad)  
  102d83:	ff 1b                	lcall  *(%rbx)
  102d85:	00 00                	add    %al,(%rax)
  102d87:	00 00                	add    %al,(%rax)
  102d89:	45 0e                	rex.RB (bad) 
  102d8b:	10 41 0e             	adc    %al,0xe(%rcx)
  102d8e:	08 49 0e             	or     %cl,0xe(%rcx)
  102d91:	10 00                	adc    %al,(%rax)
  102d93:	00 18                	add    %bl,(%rax)
  102d95:	00 00                	add    %al,(%rax)
  102d97:	00 30                	add    %dh,(%rax)
  102d99:	03 00                	add    (%rax),%eax
  102d9b:	00 14 eb             	add    %dl,(%rbx,%rbp,8)
  102d9e:	ff                   	(bad)  
  102d9f:	ff 1b                	lcall  *(%rbx)
  102da1:	00 00                	add    %al,(%rax)
  102da3:	00 00                	add    %al,(%rax)
  102da5:	45 0e                	rex.RB (bad) 
  102da7:	10 41 0e             	adc    %al,0xe(%rcx)
  102daa:	08 49 0e             	or     %cl,0xe(%rcx)
  102dad:	10 00                	adc    %al,(%rax)
  102daf:	00 10                	add    %dl,(%rax)
  102db1:	00 00                	add    %al,(%rax)
  102db3:	00 4c 03 00          	add    %cl,0x0(%rbx,%rax,1)
  102db7:	00 18                	add    %bl,(%rax)
  102db9:	eb ff                	jmp    102dba <dump_vmem+0x6ca>
  102dbb:	ff 1b                	lcall  *(%rbx)
  102dbd:	00 00                	add    %al,(%rax)
  102dbf:	00 00                	add    %al,(%rax)
  102dc1:	00 00                	add    %al,(%rax)
  102dc3:	00 4c 00 00          	add    %cl,0x0(%rax,%rax,1)
  102dc7:	00 60 03             	add    %ah,0x3(%rax)
  102dca:	00 00                	add    %al,(%rax)
  102dcc:	24 eb                	and    $0xeb,%al
  102dce:	ff                   	(bad)  
  102dcf:	ff                   	(bad)  
  102dd0:	ec                   	in     (%dx),%al
  102dd1:	00 00                	add    %al,(%rax)
  102dd3:	00 00                	add    %al,(%rax)
  102dd5:	46 0e                	rex.RX (bad) 
  102dd7:	10 8f 02 52 0e 18    	adc    %cl,0x180e5202(%rdi)
  102ddd:	8e 03                	mov    (%rbx),%es
  102ddf:	48 0e                	rex.W (bad) 
  102de1:	20 8d 04 42 0e 28    	and    %cl,0x280e4204(%rbp)
  102de7:	8c 05 41 0e 30 86    	mov    %es,-0x79cff1bf(%rip)        # ffffffff86403c2e <Not_implemented_yet+0xffffffff85fefc0e>
  102ded:	06                   	(bad)  
  102dee:	41 0e                	rex.B (bad) 
  102df0:	38 83 07 44 0e 48    	cmp    %al,0x480e4407(%rbx)
  102df6:	02 b9 0e 38 41 c3    	add    -0x3cbec7f2(%rcx),%bh
  102dfc:	0e                   	(bad)  
  102dfd:	30 41 c6             	xor    %al,-0x3a(%rcx)
  102e00:	0e                   	(bad)  
  102e01:	28 42 cc             	sub    %al,-0x34(%rdx)
  102e04:	0e                   	(bad)  
  102e05:	20 42 cd             	and    %al,-0x33(%rdx)
  102e08:	0e                   	(bad)  
  102e09:	18 42 ce             	sbb    %al,-0x32(%rdx)
  102e0c:	0e                   	(bad)  
  102e0d:	10 42 cf             	adc    %al,-0x31(%rdx)
  102e10:	0e                   	(bad)  
  102e11:	08 00                	or     %al,(%rax)
  102e13:	00 10                	add    %dl,(%rax)
  102e15:	00 00                	add    %al,(%rax)
  102e17:	00 b0 03 00 00 c4    	add    %dh,-0x3bfffffd(%rax)
  102e1d:	eb ff                	jmp    102e1e <dump_vmem+0x72e>
  102e1f:	ff 62 00             	jmp    *0x0(%rdx)
  102e22:	00 00                	add    %al,(%rax)
  102e24:	00 00                	add    %al,(%rax)
  102e26:	00 00                	add    %al,(%rax)
  102e28:	18 00                	sbb    %al,(%rax)
  102e2a:	00 00                	add    %al,(%rax)
  102e2c:	c4 03 00 00          	(bad)
  102e30:	20 ec                	and    %ch,%ah
  102e32:	ff                   	(bad)  
  102e33:	ff 59 00             	lcall  *0x0(%rcx)
  102e36:	00 00                	add    %al,(%rax)
  102e38:	00 4c 0e 10          	add    %cl,0x10(%rsi,%rcx,1)
  102e3c:	83 02 02             	addl   $0x2,(%rdx)
  102e3f:	44 c3                	rex.R ret 
  102e41:	0e                   	(bad)  
  102e42:	08 00                	or     %al,(%rax)
  102e44:	20 00                	and    %al,(%rax)
  102e46:	00 00                	add    %al,(%rax)
  102e48:	e0 03                	loopne 102e4d <dump_vmem+0x75d>
  102e4a:	00 00                	add    %al,(%rax)
  102e4c:	64 ec                	fs in  (%dx),%al
  102e4e:	ff                   	(bad)  
  102e4f:	ff 97 00 00 00 00    	call   *0x0(%rdi)
  102e55:	45 0e                	rex.RB (bad) 
  102e57:	10 86 02 49 0e 18    	adc    %al,0x180e4902(%rsi)
  102e5d:	83 03 02             	addl   $0x2,(%rbx)
  102e60:	87 c3                	xchg   %eax,%ebx
  102e62:	0e                   	(bad)  
  102e63:	10 41 c6             	adc    %al,-0x3a(%rcx)
  102e66:	0e                   	(bad)  
  102e67:	08 20                	or     %ah,(%rax)
  102e69:	00 00                	add    %al,(%rax)
  102e6b:	00 04 04             	add    %al,(%rsp,%rax,1)
  102e6e:	00 00                	add    %al,(%rax)
  102e70:	e0 ec                	loopne 102e5e <dump_vmem+0x76e>
  102e72:	ff                   	(bad)  
  102e73:	ff                   	(bad)  
  102e74:	7b 00                	jnp    102e76 <dump_vmem+0x786>
  102e76:	00 00                	add    %al,(%rax)
  102e78:	00 45 0e             	add    %al,0xe(%rbp)
  102e7b:	10 86 02 49 0e 18    	adc    %al,0x180e4902(%rsi)
  102e81:	83 03 02             	addl   $0x2,(%rbx)
  102e84:	6b c3 0e             	imul   $0xe,%ebx,%eax
  102e87:	10 41 c6             	adc    %al,-0x3a(%rcx)
  102e8a:	0e                   	(bad)  
  102e8b:	08 10                	or     %dl,(%rax)
  102e8d:	00 00                	add    %al,(%rax)
  102e8f:	00 28                	add    %ch,(%rax)
  102e91:	04 00                	add    $0x0,%al
  102e93:	00 3c ed ff ff 17 00 	add    %bh,0x17ffff(,%rbp,8)
  102e9a:	00 00                	add    %al,(%rax)
  102e9c:	00 00                	add    %al,(%rax)
  102e9e:	00 00                	add    %al,(%rax)
  102ea0:	10 00                	adc    %al,(%rax)
  102ea2:	00 00                	add    %al,(%rax)
  102ea4:	3c 04                	cmp    $0x4,%al
  102ea6:	00 00                	add    %al,(%rax)
  102ea8:	48 ed                	rex.W in (%dx),%eax
  102eaa:	ff                   	(bad)  
  102eab:	ff ad 00 00 00 00    	ljmp   *0x0(%rbp)
  102eb1:	00 00                	add    %al,(%rax)
  102eb3:	00 38                	add    %bh,(%rax)
  102eb5:	00 00                	add    %al,(%rax)
  102eb7:	00 50 04             	add    %dl,0x4(%rax)
  102eba:	00 00                	add    %al,(%rax)
  102ebc:	e4 ed                	in     $0xed,%al
  102ebe:	ff                   	(bad)  
  102ebf:	ff 92 00 00 00 00    	call   *0x0(%rdx)
  102ec5:	46 0e                	rex.RX (bad) 
  102ec7:	10 8c 02 41 0e 18 86 	adc    %cl,-0x79e7f1bf(%rdx,%rax,1)
  102ece:	03 44 0e 20          	add    0x20(%rsi,%rcx,1),%eax
  102ed2:	83 04 02 74          	addl   $0x74,(%rdx,%rax,1)
  102ed6:	0a c3                	or     %bl,%al
  102ed8:	0e                   	(bad)  
  102ed9:	18 41 c6             	sbb    %al,-0x3a(%rcx)
  102edc:	0e                   	(bad)  
  102edd:	10 42 cc             	adc    %al,-0x34(%rdx)
  102ee0:	0e                   	(bad)  
  102ee1:	08 46 0b             	or     %al,0xb(%rsi)
  102ee4:	46 c3                	rex.RX ret 
  102ee6:	0e                   	(bad)  
  102ee7:	18 41 c6             	sbb    %al,-0x3a(%rcx)
  102eea:	0e                   	(bad)  
  102eeb:	10 42 cc             	adc    %al,-0x34(%rdx)
  102eee:	0e                   	(bad)  
  102eef:	08 10                	or     %dl,(%rax)
  102ef1:	00 00                	add    %al,(%rax)
  102ef3:	00 8c 04 00 00 48 ee 	add    %cl,-0x11b80000(%rsp,%rax,1)
  102efa:	ff                   	(bad)  
  102efb:	ff 0d 00 00 00 00    	decl   0x0(%rip)        # 102f01 <dump_vmem+0x811>
  102f01:	00 00                	add    %al,(%rax)
  102f03:	00 10                	add    %dl,(%rax)
  102f05:	00 00                	add    %al,(%rax)
  102f07:	00 a0 04 00 00 44    	add    %ah,0x44000004(%rax)
  102f0d:	ee                   	out    %al,(%dx)
  102f0e:	ff                   	(bad)  
  102f0f:	ff 25 00 00 00 00    	jmp    *0x0(%rip)        # 102f15 <dump_vmem+0x825>
  102f15:	00 00                	add    %al,(%rax)
  102f17:	00 14 00             	add    %dl,(%rax,%rax,1)
  102f1a:	00 00                	add    %al,(%rax)
  102f1c:	b4 04                	mov    $0x4,%ah
  102f1e:	00 00                	add    %al,(%rax)
  102f20:	60                   	(bad)  
  102f21:	ee                   	out    %al,(%dx)
  102f22:	ff                   	(bad)  
  102f23:	ff 57 00             	call   *0x0(%rdi)
	...
  102f2e:	00 00                	add    %al,(%rax)
  102f30:	10 00                	adc    %al,(%rax)
  102f32:	00 00                	add    %al,(%rax)
  102f34:	cc                   	int3   
  102f35:	04 00                	add    $0x0,%al
  102f37:	00 a8 ee ff ff 41    	add    %ch,0x41ffffee(%rax)
  102f3d:	00 00                	add    %al,(%rax)
  102f3f:	00 00                	add    %al,(%rax)
  102f41:	6c                   	insb   (%dx),%es:(%rdi)
  102f42:	0e                   	(bad)  
  102f43:	10 18                	adc    %bl,(%rax)
  102f45:	00 00                	add    %al,(%rax)
  102f47:	00 e0                	add    %ah,%al
  102f49:	04 00                	add    $0x0,%al
  102f4b:	00 e4                	add    %ah,%ah
  102f4d:	ee                   	out    %al,(%dx)
  102f4e:	ff                   	(bad)  
  102f4f:	ff                   	(bad)  
  102f50:	7a 00                	jp     102f52 <dump_vmem+0x862>
  102f52:	00 00                	add    %al,(%rax)
  102f54:	00 48 0e             	add    %cl,0xe(%rax)
  102f57:	10 7b 0a             	adc    %bh,0xa(%rbx)
  102f5a:	0e                   	(bad)  
  102f5b:	08 41 0b             	or     %al,0xb(%rcx)
  102f5e:	00 00                	add    %al,(%rax)
  102f60:	10 00                	adc    %al,(%rax)
  102f62:	00 00                	add    %al,(%rax)
  102f64:	fc                   	cld    
  102f65:	04 00                	add    $0x0,%al
  102f67:	00 48 ef             	add    %cl,-0x11(%rax)
  102f6a:	ff                   	(bad)  
  102f6b:	ff 4e 00             	decl   0x0(%rsi)
  102f6e:	00 00                	add    %al,(%rax)
  102f70:	00 79 0e             	add    %bh,0xe(%rcx)
  102f73:	10 10                	adc    %dl,(%rax)
  102f75:	00 00                	add    %al,(%rax)
  102f77:	00 10                	add    %dl,(%rax)
  102f79:	05 00 00 84 ef       	add    $0xef840000,%eax
  102f7e:	ff                   	(bad)  
  102f7f:	ff 2e                	ljmp   *(%rsi)
  102f81:	00 00                	add    %al,(%rax)
  102f83:	00 00                	add    %al,(%rax)
  102f85:	00 00                	add    %al,(%rax)
  102f87:	00 20                	add    %ah,(%rax)
  102f89:	00 00                	add    %al,(%rax)
  102f8b:	00 24 05 00 00 a0 ef 	add    %ah,-0x10600000(,%rax,1)
  102f92:	ff                   	(bad)  
  102f93:	ff 71 00             	push   0x0(%rcx)
  102f96:	00 00                	add    %al,(%rax)
  102f98:	00 4d 0e             	add    %cl,0xe(%rbp)
  102f9b:	10 83 02 7e 0a c3    	adc    %al,-0x3cf581fe(%rbx)
  102fa1:	0e                   	(bad)  
  102fa2:	08 41 0b             	or     %al,0xb(%rcx)
  102fa5:	64 0e                	fs (bad) 
  102fa7:	08 c3                	or     %al,%bl
  102fa9:	00 00                	add    %al,(%rax)
  102fab:	00 10                	add    %dl,(%rax)
  102fad:	00 00                	add    %al,(%rax)
  102faf:	00 48 05             	add    %cl,0x5(%rax)
  102fb2:	00 00                	add    %al,(%rax)
  102fb4:	fc                   	cld    
  102fb5:	ef                   	out    %eax,(%dx)
  102fb6:	ff                   	(bad)  
  102fb7:	ff 05 00 00 00 00    	incl   0x0(%rip)        # 102fbd <dump_vmem+0x8cd>
  102fbd:	00 00                	add    %al,(%rax)
  102fbf:	00 4c 00 00          	add    %cl,0x0(%rax,%rax,1)
  102fc3:	00 5c 05 00          	add    %bl,0x0(%rbp,%rax,1)
  102fc7:	00 f8                	add    %bh,%al
  102fc9:	ef                   	out    %eax,(%dx)
  102fca:	ff                   	(bad)  
  102fcb:	ff 4c 01 00          	decl   0x0(%rcx,%rax,1)
  102fcf:	00 00                	add    %al,(%rax)
  102fd1:	46 0e                	rex.RX (bad) 
  102fd3:	10 8f 02 42 0e 18    	adc    %cl,0x180e4202(%rdi)
  102fd9:	8e 03                	mov    (%rbx),%es
  102fdb:	42 0e                	rex.X (bad) 
  102fdd:	20 8d 04 42 0e 28    	and    %cl,0x280e4204(%rbp)
  102fe3:	8c 05 41 0e 30 86    	mov    %es,-0x79cff1bf(%rip)        # ffffffff86403e2a <Not_implemented_yet+0xffffffff85fefe0a>
  102fe9:	06                   	(bad)  
  102fea:	41 0e                	rex.B (bad) 
  102fec:	38 83 07 44 0e 60    	cmp    %al,0x600e4407(%rbx)
  102ff2:	03 2f                	add    (%rdi),%ebp
  102ff4:	01 0e                	add    %ecx,(%rsi)
  102ff6:	38 41 c3             	cmp    %al,-0x3d(%rcx)
  102ff9:	0e                   	(bad)  
  102ffa:	30 41 c6             	xor    %al,-0x3a(%rcx)
  102ffd:	0e                   	(bad)  
  102ffe:	28 42 cc             	sub    %al,-0x34(%rdx)
  103001:	0e                   	(bad)  
  103002:	20 42 cd             	and    %al,-0x33(%rdx)
  103005:	0e                   	(bad)  
  103006:	18 42 ce             	sbb    %al,-0x32(%rdx)
  103009:	0e                   	(bad)  
  10300a:	10 42 cf             	adc    %al,-0x31(%rdx)
  10300d:	0e                   	(bad)  
  10300e:	08 00                	or     %al,(%rax)
  103010:	54                   	push   %rsp
  103011:	00 00                	add    %al,(%rax)
  103013:	00 ac 05 00 00 f8 f0 	add    %ch,-0xf080000(%rbp,%rax,1)
  10301a:	ff                   	(bad)  
  10301b:	ff                   	(bad)  
  10301c:	3e 01 00             	ds add %eax,(%rax)
  10301f:	00 00                	add    %al,(%rax)
  103021:	46 0e                	rex.RX (bad) 
  103023:	10 8f 02 42 0e 18    	adc    %cl,0x180e4202(%rdi)
  103029:	8e 03                	mov    (%rbx),%es
  10302b:	42 0e                	rex.X (bad) 
  10302d:	20 8d 04 42 0e 28    	and    %cl,0x280e4204(%rbp)
  103033:	8c 05 41 0e 30 86    	mov    %es,-0x79cff1bf(%rip)        # ffffffff86403e7a <Not_implemented_yet+0xffffffff85fefe5a>
  103039:	06                   	(bad)  
  10303a:	41 0e                	rex.B (bad) 
  10303c:	38 83 07 44 0e 40    	cmp    %al,0x400e4407(%rbx)
  103042:	02 91 0a 0e 38 41    	add    0x41380e0a(%rcx),%dl
  103048:	c3                   	ret    
  103049:	0e                   	(bad)  
  10304a:	30 41 c6             	xor    %al,-0x3a(%rcx)
  10304d:	0e                   	(bad)  
  10304e:	28 42 cc             	sub    %al,-0x34(%rdx)
  103051:	0e                   	(bad)  
  103052:	20 42 cd             	and    %al,-0x33(%rdx)
  103055:	0e                   	(bad)  
  103056:	18 42 ce             	sbb    %al,-0x32(%rdx)
  103059:	0e                   	(bad)  
  10305a:	10 42 cf             	adc    %al,-0x31(%rdx)
  10305d:	0e                   	(bad)  
  10305e:	08 43 0b             	or     %al,0xb(%rbx)
  103061:	00 00                	add    %al,(%rax)
  103063:	00 00                	add    %al,(%rax)
  103065:	00 00                	add    %al,(%rax)
  103067:	00 18                	add    %bl,(%rax)
  103069:	00 00                	add    %al,(%rax)
  10306b:	00 04 06             	add    %al,(%rsi,%rax,1)
  10306e:	00 00                	add    %al,(%rax)
  103070:	e0 f1                	loopne 103063 <dump_vmem+0x973>
  103072:	ff                   	(bad)  
  103073:	ff 4a 00             	decl   0x0(%rdx)
  103076:	00 00                	add    %al,(%rax)
  103078:	00 48 0e             	add    %cl,0xe(%rax)
  10307b:	10 61 0a             	adc    %ah,0xa(%rcx)
  10307e:	0e                   	(bad)  
  10307f:	08 45 0b             	or     %al,0xb(%rbp)
  103082:	00 00                	add    %al,(%rax)
  103084:	18 00                	sbb    %al,(%rax)
  103086:	00 00                	add    %al,(%rax)
  103088:	20 06                	and    %al,(%rsi)
  10308a:	00 00                	add    %al,(%rax)
  10308c:	14 f2                	adc    $0xf2,%al
  10308e:	ff                   	(bad)  
  10308f:	ff                   	(bad)  
  103090:	79 00                	jns    103092 <dump_vmem+0x9a2>
  103092:	00 00                	add    %al,(%rax)
  103094:	00 4d 0e             	add    %cl,0xe(%rbp)
  103097:	10 02                	adc    %al,(%rdx)
  103099:	4f 0a 0e             	rex.WRXB or (%r14),%r9b
  10309c:	08 41 0b             	or     %al,0xb(%rcx)
  10309f:	00 10                	add    %dl,(%rax)
  1030a1:	00 00                	add    %al,(%rax)
  1030a3:	00 3c 06             	add    %bh,(%rsi,%rax,1)
  1030a6:	00 00                	add    %al,(%rax)
  1030a8:	78 f2                	js     10309c <dump_vmem+0x9ac>
  1030aa:	ff                   	(bad)  
  1030ab:	ff 28                	ljmp   *(%rax)
  1030ad:	00 00                	add    %al,(%rax)
  1030af:	00 00                	add    %al,(%rax)
  1030b1:	00 00                	add    %al,(%rax)
  1030b3:	00 10                	add    %dl,(%rax)
  1030b5:	00 00                	add    %al,(%rax)
  1030b7:	00 50 06             	add    %dl,0x6(%rax)
  1030ba:	00 00                	add    %al,(%rax)
  1030bc:	94                   	xchg   %eax,%esp
  1030bd:	f2 ff                	repnz (bad) 
  1030bf:	ff 24 00             	jmp    *(%rax,%rax,1)
  1030c2:	00 00                	add    %al,(%rax)
  1030c4:	00 00                	add    %al,(%rax)
  1030c6:	00 00                	add    %al,(%rax)
  1030c8:	10 00                	adc    %al,(%rax)
  1030ca:	00 00                	add    %al,(%rax)
  1030cc:	64 06                	fs (bad) 
  1030ce:	00 00                	add    %al,(%rax)
  1030d0:	b0 f2                	mov    $0xf2,%al
  1030d2:	ff                   	(bad)  
  1030d3:	ff 21                	jmp    *(%rcx)
  1030d5:	01 00                	add    %eax,(%rax)
  1030d7:	00 00                	add    %al,(%rax)
  1030d9:	00 00                	add    %al,(%rax)
  1030db:	00 10                	add    %dl,(%rax)
  1030dd:	00 00                	add    %al,(%rax)
  1030df:	00 78 06             	add    %bh,0x6(%rax)
  1030e2:	00 00                	add    %al,(%rax)
  1030e4:	cc                   	int3   
  1030e5:	f3 ff                	repz (bad) 
  1030e7:	ff 51 00             	call   *0x0(%rcx)
  1030ea:	00 00                	add    %al,(%rax)
  1030ec:	00 00                	add    %al,(%rax)
  1030ee:	00 00                	add    %al,(%rax)
  1030f0:	14 00                	adc    $0x0,%al
  1030f2:	00 00                	add    %al,(%rax)
  1030f4:	8c 06                	mov    %es,(%rsi)
  1030f6:	00 00                	add    %al,(%rax)
  1030f8:	18 f4                	sbb    %dh,%ah
  1030fa:	ff                   	(bad)  
  1030fb:	ff 6e 00             	ljmp   *0x0(%rsi)
  1030fe:	00 00                	add    %al,(%rax)
  103100:	00 02                	add    %al,(%rdx)
  103102:	4d 0e                	rex.WRB (bad) 
  103104:	10 00                	adc    %al,(%rax)
  103106:	00 00                	add    %al,(%rax)
  103108:	18 00                	sbb    %al,(%rax)
  10310a:	00 00                	add    %al,(%rax)
  10310c:	a4                   	movsb  %ds:(%rsi),%es:(%rdi)
  10310d:	06                   	(bad)  
  10310e:	00 00                	add    %al,(%rax)
  103110:	70 f4                	jo     103106 <dump_vmem+0xa16>
  103112:	ff                   	(bad)  
  103113:	ff d1                	call   *%rcx
  103115:	00 00                	add    %al,(%rax)
  103117:	00 00                	add    %al,(%rax)
  103119:	48 0e                	rex.W (bad) 
  10311b:	10 02                	adc    %al,(%rdx)
  10311d:	7f 0a                	jg     103129 <dump_vmem+0xa39>
  10311f:	0e                   	(bad)  
  103120:	08 41 0b             	or     %al,0xb(%rcx)
  103123:	00 14 00             	add    %dl,(%rax,%rax,1)
  103126:	00 00                	add    %al,(%rax)
  103128:	c0 06 00             	rolb   $0x0,(%rsi)
  10312b:	00 34 f5 ff ff 85 00 	add    %dh,0x85ffff(,%rsi,8)
  103132:	00 00                	add    %al,(%rax)
  103134:	00 02                	add    %al,(%rdx)
  103136:	68 0e 10 58 0e       	push   $0xe58100e
  10313b:	08 28                	or     %ch,(%rax)
  10313d:	00 00                	add    %al,(%rax)
  10313f:	00 d8                	add    %bl,%al
  103141:	06                   	(bad)  
  103142:	00 00                	add    %al,(%rax)
  103144:	ac                   	lods   %ds:(%rsi),%al
  103145:	f5                   	cmc    
  103146:	ff                   	(bad)  
  103147:	ff                   	(bad)  
  103148:	3e 00 00             	ds add %al,(%rax)
  10314b:	00 00                	add    %al,(%rax)
  10314d:	46 0e                	rex.RX (bad) 
  10314f:	10 8c 02 41 0e 18 86 	adc    %cl,-0x79e7f1bf(%rdx,%rax,1)
  103156:	03 48 0e             	add    0xe(%rax),%ecx
  103159:	20 83 04 6b c3 0e    	and    %al,0xec36b04(%rbx)
  10315f:	18 41 c6             	sbb    %al,-0x3a(%rcx)
  103162:	0e                   	(bad)  
  103163:	10 42 cc             	adc    %al,-0x34(%rdx)
  103166:	0e                   	(bad)  
  103167:	08                   	.byte 0x8

Disassembly of section .rodata.str1.8:

0000000000103168 <.rodata.str1.8>:
  103168:	0a 20                	or     (%rax),%ah
  10316a:	43                   	rex.XB
  10316b:	4f 50                	rex.WRXB push %r8
  10316d:	52                   	push   %rdx
  10316e:	4f                   	rex.WRXB
  10316f:	43                   	rex.XB
  103170:	45 53                	rex.RB push %r11
  103172:	53                   	push   %rbx
  103173:	4f 52                	rex.WRXB push %r10
  103175:	20 53 45             	and    %dl,0x45(%rbx)
  103178:	47                   	rex.RXB
  103179:	4d                   	rex.WRB
  10317a:	45                   	rex.RB
  10317b:	4e 54                	rex.WRX push %rsp
  10317d:	20 4f 56             	and    %cl,0x56(%rdi)
  103180:	45 52                	rex.RB push %r10
  103182:	52                   	push   %rdx
  103183:	55                   	push   %rbp
  103184:	4e 0a 00             	rex.WRX or (%rax),%r8b
  103187:	00 0a                	add    %cl,(%rdx)
  103189:	20 58 38             	and    %bl,0x38(%rax)
  10318c:	37                   	(bad)  
  10318d:	20 46 4c             	and    %al,0x4c(%rsi)
  103190:	4f                   	rex.WRXB
  103191:	41 54                	push   %r12
  103193:	49                   	rex.WB
  103194:	4e                   	rex.WRX
  103195:	47 20 50 4f          	rex.RXB and %r10b,0x4f(%r8)
  103199:	49                   	rex.WB
  10319a:	4e 54                	rex.WRX push %rsp
  10319c:	20 45 58             	and    %al,0x58(%rbp)
  10319f:	43                   	rex.XB
  1031a0:	45 50                	rex.RB push %r8
  1031a2:	54                   	push   %rsp
  1031a3:	49                   	rex.WB
  1031a4:	4f                   	rex.WRXB
  1031a5:	4e 0a 00             	rex.WRX or (%rax),%r8b
  1031a8:	0a 20                	or     (%rax),%ah
  1031aa:	53                   	push   %rbx
  1031ab:	49                   	rex.WB
  1031ac:	4d                   	rex.WRB
  1031ad:	44 20 46 4c          	and    %r8b,0x4c(%rsi)
  1031b1:	4f                   	rex.WRXB
  1031b2:	41 54                	push   %r12
  1031b4:	49                   	rex.WB
  1031b5:	4e                   	rex.WRX
  1031b6:	47 20 50 4f          	rex.RXB and %r10b,0x4f(%r8)
  1031ba:	49                   	rex.WB
  1031bb:	4e 54                	rex.WRX push %rsp
  1031bd:	20 45 58             	and    %al,0x58(%rbp)
  1031c0:	43                   	rex.XB
  1031c1:	45 50                	rex.RB push %r8
  1031c3:	54                   	push   %rsp
  1031c4:	49                   	rex.WB
  1031c5:	4f                   	rex.WRXB
  1031c6:	4e 0a 00             	rex.WRX or (%rax),%r8b
  1031c9:	00 00                	add    %al,(%rax)
  1031cb:	00 00                	add    %al,(%rax)
  1031cd:	00 00                	add    %al,(%rax)
  1031cf:	00 0a                	add    %cl,(%rdx)
  1031d1:	20 48 59             	and    %cl,0x59(%rax)
  1031d4:	50                   	push   %rax
  1031d5:	45 52                	rex.RB push %r10
  1031d7:	56                   	push   %rsi
  1031d8:	49 53                	rex.WB push %r11
  1031da:	4f 52                	rex.WRXB push %r10
  1031dc:	20 49 4e             	and    %cl,0x4e(%rcx)
  1031df:	4a                   	rex.WX
  1031e0:	45                   	rex.RB
  1031e1:	43 54                	rex.XB push %r12
  1031e3:	49                   	rex.WB
  1031e4:	4f                   	rex.WRXB
  1031e5:	4e 20 45 58          	rex.WRX and %r8b,0x58(%rbp)
  1031e9:	43                   	rex.XB
  1031ea:	45 50                	rex.RB push %r8
  1031ec:	54                   	push   %rsp
  1031ed:	49                   	rex.WB
  1031ee:	4f                   	rex.WRXB
  1031ef:	4e 0a 00             	rex.WRX or (%rax),%r8b
  1031f2:	00 00                	add    %al,(%rax)
  1031f4:	00 00                	add    %al,(%rax)
  1031f6:	00 00                	add    %al,(%rax)
  1031f8:	0a 20                	or     (%rax),%ah
  1031fa:	56                   	push   %rsi
  1031fb:	4d                   	rex.WRB
  1031fc:	4d 20 43 4f          	rex.WRB and %r8b,0x4f(%r11)
  103200:	4d                   	rex.WRB
  103201:	4d 55                	rex.WRB push %r13
  103203:	4e                   	rex.WRX
  103204:	49                   	rex.WB
  103205:	43                   	rex.XB
  103206:	41 54                	push   %r12
  103208:	49                   	rex.WB
  103209:	4f                   	rex.WRXB
  10320a:	4e 20 45 58          	rex.WRX and %r8b,0x58(%rbp)
  10320e:	43                   	rex.XB
  10320f:	45 50                	rex.RB push %r8
  103211:	54                   	push   %rsp
  103212:	49                   	rex.WB
  103213:	4f                   	rex.WRXB
  103214:	4e 0a 00             	rex.WRX or (%rax),%r8b
  103217:	00 45 52             	add    %al,0x52(%rbp)
  10321a:	52                   	push   %rdx
  10321b:	4f 52                	rex.WRXB push %r10
  10321d:	3a 20                	cmp    (%rax),%ah
  10321f:	52                   	push   %rdx
  103220:	53                   	push   %rbx
  103221:	44 50                	rex.R push %rax
  103223:	5f                   	pop    %rdi
  103224:	74 20                	je     103246 <dump_vmem+0xb56>
  103226:	63 68 65             	movsxd 0x65(%rax),%ebp
  103229:	63 6b 73             	movsxd 0x73(%rbx),%ebp
  10322c:	75 6d                	jne    10329b <dump_vmem+0xbab>
  10322e:	20 69 73             	and    %ch,0x73(%rcx)
  103231:	20 6e 6f             	and    %ch,0x6f(%rsi)
  103234:	74 20                	je     103256 <dump_vmem+0xb66>
  103236:	76 61                	jbe    103299 <dump_vmem+0xba9>
  103238:	6c                   	insb   (%dx),%es:(%rdi)
  103239:	69 64 00 00 00 00 00 	imul   $0x45000000,0x0(%rax,%rax,1),%esp
  103240:	45 
  103241:	52                   	push   %rdx
  103242:	52                   	push   %rdx
  103243:	4f 52                	rex.WRXB push %r10
  103245:	3a 20                	cmp    (%rax),%ah
  103247:	58                   	pop    %rax
  103248:	53                   	push   %rbx
  103249:	44 50                	rex.R push %rax
  10324b:	5f                   	pop    %rdi
  10324c:	74 20                	je     10326e <dump_vmem+0xb7e>
  10324e:	63 68 65             	movsxd 0x65(%rax),%ebp
  103251:	63 6b 73             	movsxd 0x73(%rbx),%ebp
  103254:	75 6d                	jne    1032c3 <dump_vmem+0xbd3>
  103256:	20 69 73             	and    %ch,0x73(%rcx)
  103259:	20 6e 6f             	and    %ch,0x6f(%rsi)
  10325c:	74 20                	je     10327e <dump_vmem+0xb8e>
  10325e:	76 61                	jbe    1032c1 <dump_vmem+0xbd1>
  103260:	6c                   	insb   (%dx),%es:(%rdi)
  103261:	69 64 00 00 00 00 00 	imul   $0x45000000,0x0(%rax,%rax,1),%esp
  103268:	45 
  103269:	52                   	push   %rdx
  10326a:	52                   	push   %rdx
  10326b:	4f 52                	rex.WRXB push %r10
  10326d:	3a 20                	cmp    (%rax),%ah
  10326f:	58                   	pop    %rax
  103270:	53                   	push   %rbx
  103271:	44 54                	rex.R push %rsp
  103273:	20 63 68             	and    %ah,0x68(%rbx)
  103276:	65 63 6b 73          	movsxd %gs:0x73(%rbx),%ebp
  10327a:	75 6d                	jne    1032e9 <dump_vmem+0xbf9>
  10327c:	20 69 73             	and    %ch,0x73(%rcx)
  10327f:	20 6e 6f             	and    %ch,0x6f(%rsi)
  103282:	74 20                	je     1032a4 <dump_vmem+0xbb4>
  103284:	76 61                	jbe    1032e7 <dump_vmem+0xbf7>
  103286:	6c                   	insb   (%dx),%es:(%rdi)
  103287:	69 64 00 00 00 00 00 	imul   $0x0,0x0(%rax,%rax,1),%esp
  10328e:	00 
  10328f:	00 0a                	add    %cl,(%rdx)
  103291:	45 52                	rex.RB push %r10
  103293:	52                   	push   %rdx
  103294:	4f 52                	rex.WRXB push %r10
  103296:	3a 20                	cmp    (%rax),%ah
  103298:	63 61 6e             	movsxd 0x6e(%rcx),%esp
  10329b:	6e                   	outsb  %ds:(%rsi),(%dx)
  10329c:	6f                   	outsl  %ds:(%rsi),(%dx)
  10329d:	74 20                	je     1032bf <dump_vmem+0xbcf>
  10329f:	70 61                	jo     103302 <dump_vmem+0xc12>
  1032a1:	72 73                	jb     103316 <dump_vmem+0xc26>
  1032a3:	65 20 4d 41          	and    %cl,%gs:0x41(%rbp)
  1032a7:	44 54                	rex.R push %rsp
  1032a9:	20 65 6e             	and    %ah,0x6e(%rbp)
  1032ac:	74 72                	je     103320 <end_ctors>
  1032ae:	79 20                	jns    1032d0 <dump_vmem+0xbe0>
  1032b0:	6f                   	outsl  %ds:(%rsi),(%dx)
  1032b1:	66 20 74 79 70       	data16 and %dh,0x70(%rcx,%rdi,2)
  1032b6:	65 3a 20             	cmp    %gs:(%rax),%ah
  1032b9:	00 00                	add    %al,(%rax)
  1032bb:	00 00                	add    %al,(%rax)
  1032bd:	00 00                	add    %al,(%rax)
  1032bf:	00 45 52             	add    %al,0x52(%rbp)
  1032c2:	52                   	push   %rdx
  1032c3:	4f 52                	rex.WRXB push %r10
  1032c5:	3a 20                	cmp    (%rax),%ah
  1032c7:	76 69                	jbe    103332 <GDT.Code+0xa>
  1032c9:	72 74                	jb     10333f <GDT.Pointer+0x5>
  1032cb:	75 61                	jne    10332e <GDT.Code+0x6>
  1032cd:	6c                   	insb   (%dx),%es:(%rdi)
  1032ce:	20 61 64             	and    %ah,0x64(%rcx)
  1032d1:	64 72 65             	fs jb  103339 <GDT.Code+0x11>
  1032d4:	73 73                	jae    103349 <IDTP+0x9>
  1032d6:	20 6d 75             	and    %ch,0x75(%rbp)
  1032d9:	73 74                	jae    10334f <IDTP+0xf>
  1032db:	20 62 65             	and    %ah,0x65(%rdx)
  1032de:	20 70 61             	and    %dh,0x61(%rax)
  1032e1:	67 65 20 61 6c       	and    %ah,%gs:0x6c(%ecx)
  1032e6:	69 67 6e 65 64 00 00 	imul   $0x6465,0x6e(%rdi),%esp
  1032ed:	00 00                	add    %al,(%rax)
  1032ef:	00 45 52             	add    %al,0x52(%rbp)
  1032f2:	52                   	push   %rdx
  1032f3:	4f 52                	rex.WRXB push %r10
  1032f5:	3a 20                	cmp    (%rax),%ah
  1032f7:	70 68                	jo     103361 <point_char+0x1>
  1032f9:	79 73                	jns    10336e <point_char+0xe>
  1032fb:	69 63 61 6c 20 61 64 	imul   $0x6461206c,0x61(%rbx),%esp
  103302:	64 72 65             	fs jb  10336a <point_char+0xa>
  103305:	73 73                	jae    10337a <semicolon_char+0xa>
  103307:	20 6d 75             	and    %ch,0x75(%rbp)
  10330a:	73 74                	jae    103380 <colon_char>
  10330c:	20 62 65             	and    %ah,0x65(%rdx)
  10330f:	20 70 61             	and    %dh,0x61(%rax)
  103312:	67 65 20 61 6c       	and    %ah,%gs:0x6c(%ecx)
  103317:	69                   	.byte 0x69
  103318:	67 6e                	outsb  %ds:(%esi),(%dx)
  10331a:	65                   	gs
  10331b:	64                   	fs
	...

Disassembly of section .data:

0000000000103320 <end_ctors>:
	...

0000000000103328 <GDT.Code>:
  103328:	00 00                	add    %al,(%rax)
  10332a:	00 00                	add    %al,(%rax)
  10332c:	00 9a 20 00 00 00    	add    %bl,0x20(%rdx)
  103332:	00 00                	add    %al,(%rax)
  103334:	00 92 00 00 00 00    	add    %dl,0x0(%rdx)

000000000010333a <GDT.Pointer>:
  10333a:	19 00                	sbb    %eax,(%rax)
  10333c:	20 33                	and    %dh,(%rbx)
  10333e:	10 00                	adc    %al,(%rax)

0000000000103340 <IDTP>:
  103340:	ff 0f                	decl   (%rdi)
  103342:	08 30                	or     %dh,(%rax)
  103344:	41 00 00             	add    %al,(%r8)
	...

0000000000103350 <hyphen_char>:
  103350:	00 00                	add    %al,(%rax)
  103352:	00 00                	add    %al,(%rax)
  103354:	00 00                	add    %al,(%rax)
  103356:	00 7c 00 00          	add    %bh,0x0(%rax,%rax,1)
  10335a:	00 00                	add    %al,(%rax)
  10335c:	00 00                	add    %al,(%rax)
	...

0000000000103360 <point_char>:
	...
  103368:	00 00                	add    %al,(%rax)
  10336a:	18 18                	sbb    %bl,(%rax)
  10336c:	00 00                	add    %al,(%rax)
	...

0000000000103370 <semicolon_char>:
  103370:	00 00                	add    %al,(%rax)
  103372:	00 00                	add    %al,(%rax)
  103374:	00 00                	add    %al,(%rax)
  103376:	06                   	(bad)  
  103377:	06                   	(bad)  
  103378:	00 00                	add    %al,(%rax)
  10337a:	06                   	(bad)  
  10337b:	06                   	(bad)  
  10337c:	0c 00                	or     $0x0,%al
	...

0000000000103380 <colon_char>:
  103380:	00 00                	add    %al,(%rax)
  103382:	00 00                	add    %al,(%rax)
  103384:	00 00                	add    %al,(%rax)
  103386:	06                   	(bad)  
  103387:	06                   	(bad)  
  103388:	00 00                	add    %al,(%rax)
  10338a:	06                   	(bad)  
  10338b:	06                   	(bad)  
  10338c:	00 00                	add    %al,(%rax)
	...

0000000000103390 <nine_char>:
  103390:	00 00                	add    %al,(%rax)
  103392:	00 7c c6 c6          	add    %bh,-0x3a(%rsi,%rax,8)
  103396:	c6                   	(bad)  
  103397:	7c 06                	jl     10339f <nine_char+0xf>
  103399:	06                   	(bad)  
  10339a:	06                   	(bad)  
  10339b:	0c 78                	or     $0x78,%al
  10339d:	00 00                	add    %al,(%rax)
	...

00000000001033a0 <eight_char>:
  1033a0:	00 00                	add    %al,(%rax)
  1033a2:	00 7c c6 c6          	add    %bh,-0x3a(%rsi,%rax,8)
  1033a6:	c6                   	(bad)  
  1033a7:	7c c6                	jl     10336f <point_char+0xf>
  1033a9:	c6 c6 c6             	mov    $0xc6,%dh
  1033ac:	7c 00                	jl     1033ae <eight_char+0xe>
	...

00000000001033b0 <seven_char>:
  1033b0:	00 00                	add    %al,(%rax)
  1033b2:	00 fe                	add    %bh,%dh
  1033b4:	c6 06 06             	movb   $0x6,(%rsi)
  1033b7:	0c 18                	or     $0x18,%al
  1033b9:	30 30                	xor    %dh,(%rax)
  1033bb:	30 30                	xor    %dh,(%rax)
  1033bd:	00 00                	add    %al,(%rax)
	...

00000000001033c0 <six_char>:
  1033c0:	00 00                	add    %al,(%rax)
  1033c2:	00 38                	add    %bh,(%rax)
  1033c4:	60                   	(bad)  
  1033c5:	c0 c0 fc             	rol    $0xfc,%al
  1033c8:	c6 c6 c6             	mov    $0xc6,%dh
  1033cb:	c6                   	(bad)  
  1033cc:	7c 00                	jl     1033ce <six_char+0xe>
	...

00000000001033d0 <five_char>:
  1033d0:	00 00                	add    %al,(%rax)
  1033d2:	00 fe                	add    %bh,%dh
  1033d4:	c0 c0 c0             	rol    $0xc0,%al
  1033d7:	fc                   	cld    
  1033d8:	06                   	(bad)  
  1033d9:	06                   	(bad)  
  1033da:	06                   	(bad)  
  1033db:	c6                   	(bad)  
  1033dc:	7c 00                	jl     1033de <five_char+0xe>
	...

00000000001033e0 <four_char>:
  1033e0:	00 00                	add    %al,(%rax)
  1033e2:	00 0c 1c             	add    %cl,(%rsp,%rbx,1)
  1033e5:	3c 6c                	cmp    $0x6c,%al
  1033e7:	cc                   	int3   
  1033e8:	cc                   	int3   
  1033e9:	fe 0c 0c             	decb   (%rsp,%rcx,1)
  1033ec:	1e                   	(bad)  
  1033ed:	00 00                	add    %al,(%rax)
	...

00000000001033f0 <three_char>:
  1033f0:	00 00                	add    %al,(%rax)
  1033f2:	00 7c c6 06          	add    %bh,0x6(%rsi,%rax,8)
  1033f6:	06                   	(bad)  
  1033f7:	3c 06                	cmp    $0x6,%al
  1033f9:	06                   	(bad)  
  1033fa:	06                   	(bad)  
  1033fb:	c6                   	(bad)  
  1033fc:	7c 00                	jl     1033fe <three_char+0xe>
	...

0000000000103400 <two_char>:
  103400:	00 00                	add    %al,(%rax)
  103402:	00 7c c6 06          	add    %bh,0x6(%rsi,%rax,8)
  103406:	0c 18                	or     $0x18,%al
  103408:	30 60 c0             	xor    %ah,-0x40(%rax)
  10340b:	c6                   	(bad)  
  10340c:	fe 00                	incb   (%rax)
	...

0000000000103410 <one_char>:
  103410:	00 00                	add    %al,(%rax)
  103412:	00 18                	add    %bl,(%rax)
  103414:	38 78 18             	cmp    %bh,0x18(%rax)
  103417:	18 18                	sbb    %bl,(%rax)
  103419:	18 18                	sbb    %bl,(%rax)
  10341b:	18 7e 00             	sbb    %bh,0x0(%rsi)
	...

0000000000103420 <zero_char>:
  103420:	00 00                	add    %al,(%rax)
  103422:	00 38                	add    %bh,(%rax)
  103424:	6c                   	insb   (%dx),%es:(%rdi)
  103425:	c6 c6 d6             	mov    $0xd6,%dh
  103428:	d6                   	(bad)  
  103429:	c6 c6 6c             	mov    $0x6c,%dh
  10342c:	38 00                	cmp    %al,(%rax)
	...

0000000000103430 <z_char>:
  103430:	00 00                	add    %al,(%rax)
  103432:	00 00                	add    %al,(%rax)
  103434:	00 00                	add    %al,(%rax)
  103436:	fe cc                	dec    %ah
  103438:	18 30                	sbb    %dh,(%rax)
  10343a:	60                   	(bad)  
  10343b:	c6                   	(bad)  
  10343c:	fe 00                	incb   (%rax)
	...

0000000000103440 <y_char>:
  103440:	00 00                	add    %al,(%rax)
  103442:	00 00                	add    %al,(%rax)
  103444:	00 00                	add    %al,(%rax)
  103446:	c6 c6 c6             	mov    $0xc6,%dh
  103449:	c6 c6 c6             	mov    $0xc6,%dh
  10344c:	7e 06                	jle    103454 <x_char+0x4>
  10344e:	0c f8                	or     $0xf8,%al

0000000000103450 <x_char>:
  103450:	00 00                	add    %al,(%rax)
  103452:	00 00                	add    %al,(%rax)
  103454:	00 00                	add    %al,(%rax)
  103456:	c6                   	(bad)  
  103457:	6c                   	insb   (%dx),%es:(%rdi)
  103458:	38 38                	cmp    %bh,(%rax)
  10345a:	38 6c c6 00          	cmp    %ch,0x0(%rsi,%rax,8)
	...

0000000000103460 <w_char>:
  103460:	00 00                	add    %al,(%rax)
  103462:	00 00                	add    %al,(%rax)
  103464:	00 00                	add    %al,(%rax)
  103466:	c6 c6 d6             	mov    $0xd6,%dh
  103469:	d6                   	(bad)  
  10346a:	d6                   	(bad)  
  10346b:	fe                   	(bad)  
  10346c:	6c                   	insb   (%dx),%es:(%rdi)
  10346d:	00 00                	add    %al,(%rax)
	...

0000000000103470 <v_char>:
  103470:	00 00                	add    %al,(%rax)
  103472:	00 00                	add    %al,(%rax)
  103474:	00 00                	add    %al,(%rax)
  103476:	c6 c6 c6             	mov    $0xc6,%dh
  103479:	c6 c6 6c             	mov    $0x6c,%dh
  10347c:	38 00                	cmp    %al,(%rax)
	...

0000000000103480 <u_char>:
  103480:	00 00                	add    %al,(%rax)
  103482:	00 00                	add    %al,(%rax)
  103484:	00 00                	add    %al,(%rax)
  103486:	cc                   	int3   
  103487:	cc                   	int3   
  103488:	cc                   	int3   
  103489:	cc                   	int3   
  10348a:	cc                   	int3   
  10348b:	cc                   	int3   
  10348c:	76 00                	jbe    10348e <u_char+0xe>
	...

0000000000103490 <t_char>:
  103490:	00 00                	add    %al,(%rax)
  103492:	00 10                	add    %dl,(%rax)
  103494:	30 30                	xor    %dh,(%rax)
  103496:	fc                   	cld    
  103497:	30 30                	xor    %dh,(%rax)
  103499:	30 30                	xor    %dh,(%rax)
  10349b:	36 1c 00             	ss sbb $0x0,%al
	...

00000000001034a0 <s_char>:
  1034a0:	00 00                	add    %al,(%rax)
  1034a2:	00 00                	add    %al,(%rax)
  1034a4:	00 00                	add    %al,(%rax)
  1034a6:	7c c6                	jl     10346e <w_char+0xe>
  1034a8:	60                   	(bad)  
  1034a9:	38 0c c6             	cmp    %cl,(%rsi,%rax,8)
  1034ac:	7c 00                	jl     1034ae <s_char+0xe>
	...

00000000001034b0 <r_char>:
  1034b0:	00 00                	add    %al,(%rax)
  1034b2:	00 00                	add    %al,(%rax)
  1034b4:	00 00                	add    %al,(%rax)
  1034b6:	dc 76 66             	fdivl  0x66(%rsi)
  1034b9:	60                   	(bad)  
  1034ba:	60                   	(bad)  
  1034bb:	60                   	(bad)  
  1034bc:	f0 00 00             	lock add %al,(%rax)
	...

00000000001034c0 <q_char>:
  1034c0:	00 00                	add    %al,(%rax)
  1034c2:	00 00                	add    %al,(%rax)
  1034c4:	00 00                	add    %al,(%rax)
  1034c6:	76 cc                	jbe    103494 <t_char+0x4>
  1034c8:	cc                   	int3   
  1034c9:	cc                   	int3   
  1034ca:	cc                   	int3   
  1034cb:	cc                   	int3   
  1034cc:	7c 0c                	jl     1034da <p_char+0xa>
  1034ce:	0c 1e                	or     $0x1e,%al

00000000001034d0 <p_char>:
  1034d0:	00 00                	add    %al,(%rax)
  1034d2:	00 00                	add    %al,(%rax)
  1034d4:	00 00                	add    %al,(%rax)
  1034d6:	dc 66 66             	fsubl  0x66(%rsi)
  1034d9:	66 66 66 7c 60       	data16 data16 data16 jl 10353e <j_char+0xe>
  1034de:	60                   	(bad)  
  1034df:	f0               	lock add %al,(%rax)

00000000001034e0 <o_char>:
  1034e0:	00 00                	add    %al,(%rax)
  1034e2:	00 00                	add    %al,(%rax)
  1034e4:	00 00                	add    %al,(%rax)
  1034e6:	7c c6                	jl     1034ae <s_char+0xe>
  1034e8:	c6 c6 c6             	mov    $0xc6,%dh
  1034eb:	c6                   	(bad)  
  1034ec:	7c 00                	jl     1034ee <o_char+0xe>
	...

00000000001034f0 <n_char>:
  1034f0:	00 00                	add    %al,(%rax)
  1034f2:	00 00                	add    %al,(%rax)
  1034f4:	00 00                	add    %al,(%rax)
  1034f6:	dc 66 66             	fsubl  0x66(%rsi)
  1034f9:	66 66 66 66 00 00    	data16 data16 data16 data16 add %al,(%rax)
	...

0000000000103500 <m_char>:
  103500:	00 00                	add    %al,(%rax)
  103502:	00 00                	add    %al,(%rax)
  103504:	00 00                	add    %al,(%rax)
  103506:	ec                   	in     (%dx),%al
  103507:	fe                   	(bad)  
  103508:	d6                   	(bad)  
  103509:	d6                   	(bad)  
  10350a:	d6                   	(bad)  
  10350b:	d6                   	(bad)  
  10350c:	c6 00 00             	movb   $0x0,(%rax)
	...

0000000000103510 <l_char>:
  103510:	00 00                	add    %al,(%rax)
  103512:	00 38                	add    %bh,(%rax)
  103514:	18 18                	sbb    %bl,(%rax)
  103516:	18 18                	sbb    %bl,(%rax)
  103518:	18 18                	sbb    %bl,(%rax)
  10351a:	18 18                	sbb    %bl,(%rax)
  10351c:	3c 00                	cmp    $0x0,%al
	...

0000000000103520 <k_char>:
  103520:	00 00                	add    %al,(%rax)
  103522:	00 e0                	add    %ah,%al
  103524:	60                   	(bad)  
  103525:	60                   	(bad)  
  103526:	66 6c                	data16 insb (%dx),%es:(%rdi)
  103528:	78 78                	js     1035a2 <c_char+0x2>
  10352a:	6c                   	insb   (%dx),%es:(%rdi)
  10352b:	66 e6 00             	data16 out %al,$0x0
	...

0000000000103530 <j_char>:
  103530:	00 00                	add    %al,(%rax)
  103532:	00 06                	add    %al,(%rsi)
  103534:	06                   	(bad)  
  103535:	00 0e                	add    %cl,(%rsi)
  103537:	06                   	(bad)  
  103538:	06                   	(bad)  
  103539:	06                   	(bad)  
  10353a:	06                   	(bad)  
  10353b:	06                   	(bad)  
  10353c:	06                   	(bad)  
  10353d:	c6 c6 7c             	mov    $0x7c,%dh

0000000000103540 <i_char>:
  103540:	00 00                	add    %al,(%rax)
  103542:	00 18                	add    %bl,(%rax)
  103544:	18 00                	sbb    %al,(%rax)
  103546:	38 18                	cmp    %bl,(%rax)
  103548:	18 18                	sbb    %bl,(%rax)
  10354a:	18 18                	sbb    %bl,(%rax)
  10354c:	3c 00                	cmp    $0x0,%al
	...

0000000000103550 <h_char>:
  103550:	00 00                	add    %al,(%rax)
  103552:	00 e0                	add    %ah,%al
  103554:	60                   	(bad)  
  103555:	60                   	(bad)  
  103556:	6c                   	insb   (%dx),%es:(%rdi)
  103557:	76 66                	jbe    1035bf <b_char+0xf>
  103559:	66 66 66 e6 00       	data16 data16 data16 out %al,$0x0
	...

0000000000103560 <g_char>:
  103560:	00 00                	add    %al,(%rax)
  103562:	00 00                	add    %al,(%rax)
  103564:	00 00                	add    %al,(%rax)
  103566:	76 cc                	jbe    103534 <j_char+0x4>
  103568:	cc                   	int3   
  103569:	cc                   	int3   
  10356a:	cc                   	int3   
  10356b:	cc                   	int3   
  10356c:	7c 0c                	jl     10357a <f_char+0xa>
  10356e:	cc                   	int3   
  10356f:	78                 	js     103571 <f_char+0x1>

0000000000103570 <f_char>:
  103570:	00 00                	add    %al,(%rax)
  103572:	00 1c 36             	add    %bl,(%rsi,%rsi,1)
  103575:	32 30                	xor    (%rax),%dh
  103577:	78 30                	js     1035a9 <c_char+0x9>
  103579:	30 30                	xor    %dh,(%rax)
  10357b:	30 78 00             	xor    %bh,0x0(%rax)
	...

0000000000103580 <e_char>:
  103580:	00 00                	add    %al,(%rax)
  103582:	00 00                	add    %al,(%rax)
  103584:	00 00                	add    %al,(%rax)
  103586:	7c c6                	jl     10354e <i_char+0xe>
  103588:	fe c0                	inc    %al
  10358a:	c0 c6 7c             	rol    $0x7c,%dh
  10358d:	00 00                	add    %al,(%rax)
	...

0000000000103590 <d_char>:
  103590:	00 00                	add    %al,(%rax)
  103592:	00 1c 0c             	add    %bl,(%rsp,%rcx,1)
  103595:	0c 3c                	or     $0x3c,%al
  103597:	6c                   	insb   (%dx),%es:(%rdi)
  103598:	cc                   	int3   
  103599:	cc                   	int3   
  10359a:	cc                   	int3   
  10359b:	cc                   	int3   
  10359c:	76 00                	jbe    10359e <d_char+0xe>
	...

00000000001035a0 <c_char>:
  1035a0:	00 00                	add    %al,(%rax)
  1035a2:	00 00                	add    %al,(%rax)
  1035a4:	00 00                	add    %al,(%rax)
  1035a6:	7c c6                	jl     10356e <g_char+0xe>
  1035a8:	c0 c0 c0             	rol    $0xc0,%al
  1035ab:	c6                   	(bad)  
  1035ac:	7c 00                	jl     1035ae <c_char+0xe>
	...

00000000001035b0 <b_char>:
  1035b0:	00 00                	add    %al,(%rax)
  1035b2:	00 e0                	add    %ah,%al
  1035b4:	60                   	(bad)  
  1035b5:	60                   	(bad)  
  1035b6:	78 6c                	js     103624 <U_char+0x4>
  1035b8:	66 66 66 66 7c 00    	data16 data16 data16 data16 jl 1035be <b_char+0xe>
	...

00000000001035c0 <a_char>:
  1035c0:	00 00                	add    %al,(%rax)
  1035c2:	00 00                	add    %al,(%rax)
  1035c4:	00 00                	add    %al,(%rax)
  1035c6:	78 0c                	js     1035d4 <Z_char+0x4>
  1035c8:	7c cc                	jl     103596 <d_char+0x6>
  1035ca:	cc                   	int3   
  1035cb:	cc                   	int3   
  1035cc:	76 00                	jbe    1035ce <a_char+0xe>
	...

00000000001035d0 <Z_char>:
  1035d0:	00 00                	add    %al,(%rax)
  1035d2:	00 fe                	add    %bh,%dh
  1035d4:	c6 86 0c 18 30 60 c2 	movb   $0xc2,0x6030180c(%rsi)
  1035db:	c6                   	(bad)  
  1035dc:	fe 00                	incb   (%rax)
	...

00000000001035e0 <Y_char>:
  1035e0:	00 00                	add    %al,(%rax)
  1035e2:	00 c6                	add    %al,%dh
  1035e4:	c6 c6 c6             	mov    $0xc6,%dh
  1035e7:	c6                   	(bad)  
  1035e8:	7c 30                	jl     10361a <V_char+0xa>
  1035ea:	30 30                	xor    %dh,(%rax)
  1035ec:	78 00                	js     1035ee <Y_char+0xe>
	...

00000000001035f0 <X_char>:
  1035f0:	00 00                	add    %al,(%rax)
  1035f2:	00 c6                	add    %al,%dh
  1035f4:	c6                   	(bad)  
  1035f5:	6c                   	insb   (%dx),%es:(%rdi)
  1035f6:	7c 38                	jl     103630 <T_char>
  1035f8:	38 7c 6c c6          	cmp    %bh,-0x3a(%rsp,%rbp,2)
  1035fc:	c6 00 00             	movb   $0x0,(%rax)
	...

0000000000103600 <W_char>:
  103600:	00 00                	add    %al,(%rax)
  103602:	00 c6                	add    %al,%dh
  103604:	c6 c6 c6             	mov    $0xc6,%dh
  103607:	d6                   	(bad)  
  103608:	d6                   	(bad)  
  103609:	d6                   	(bad)  
  10360a:	fe                   	(bad)  
  10360b:	ee                   	out    %al,(%dx)
  10360c:	6c                   	insb   (%dx),%es:(%rdi)
  10360d:	00 00                	add    %al,(%rax)
	...

0000000000103610 <V_char>:
  103610:	00 00                	add    %al,(%rax)
  103612:	00 c6                	add    %al,%dh
  103614:	c6 c6 c6             	mov    $0xc6,%dh
  103617:	c6 c6 c6             	mov    $0xc6,%dh
  10361a:	6c                   	insb   (%dx),%es:(%rdi)
  10361b:	38 10                	cmp    %dl,(%rax)
  10361d:	00 00                	add    %al,(%rax)
	...

0000000000103620 <U_char>:
  103620:	00 00                	add    %al,(%rax)
  103622:	00 c6                	add    %al,%dh
  103624:	c6 c6 c6             	mov    $0xc6,%dh
  103627:	c6 c6 c6             	mov    $0xc6,%dh
  10362a:	c6 c6 7c             	mov    $0x7c,%dh
  10362d:	00 00                	add    %al,(%rax)
	...

0000000000103630 <T_char>:
  103630:	00 00                	add    %al,(%rax)
  103632:	00 7e 7e             	add    %bh,0x7e(%rsi)
  103635:	5a                   	pop    %rdx
  103636:	18 18                	sbb    %bl,(%rax)
  103638:	18 18                	sbb    %bl,(%rax)
  10363a:	18 18                	sbb    %bl,(%rax)
  10363c:	3c 00                	cmp    $0x0,%al
	...

0000000000103640 <S_char>:
  103640:	00 00                	add    %al,(%rax)
  103642:	00 7c c6 c6          	add    %bh,-0x3a(%rsi,%rax,8)
  103646:	60                   	(bad)  
  103647:	38 0c 06             	cmp    %cl,(%rsi,%rax,1)
  10364a:	c6 c6 7c             	mov    $0x7c,%dh
  10364d:	00 00                	add    %al,(%rax)
	...

0000000000103650 <R_char>:
  103650:	00 00                	add    %al,(%rax)
  103652:	00 fc                	add    %bh,%ah
  103654:	66 66 66 7c 6c       	data16 data16 data16 jl 1036c5 <K_char+0x5>
  103659:	66 66 66 f6 00 00    	data16 data16 data16 testb $0x0,(%rax)
	...

0000000000103660 <Q_char>:
  103660:	00 00                	add    %al,(%rax)
  103662:	00 7c c6 c6          	add    %bh,-0x3a(%rsi,%rax,8)
  103666:	c6 c6 c6             	mov    $0xc6,%dh
  103669:	c6                   	(bad)  
  10366a:	d6                   	(bad)  
  10366b:	de 7c 0c 0e          	fidivrs 0xe(%rsp,%rcx,1)
	...

0000000000103670 <P_char>:
  103670:	00 00                	add    %al,(%rax)
  103672:	00 fc                	add    %bh,%ah
  103674:	66 66 66 7c 60       	data16 data16 data16 jl 1036d9 <J_char+0x9>
  103679:	60                   	(bad)  
  10367a:	60                   	(bad)  
  10367b:	60                   	(bad)  
  10367c:	f0 00 00             	lock add %al,(%rax)
	...

0000000000103680 <O_char>:
  103680:	00 00                	add    %al,(%rax)
  103682:	00 7c c6 c6          	add    %bh,-0x3a(%rsi,%rax,8)
  103686:	c6 c6 c6             	mov    $0xc6,%dh
  103689:	c6 c6 c6             	mov    $0xc6,%dh
  10368c:	7c 00                	jl     10368e <O_char+0xe>
	...

0000000000103690 <N_char>:
  103690:	00 00                	add    %al,(%rax)
  103692:	00 c6                	add    %al,%dh
  103694:	e6 f6                	out    %al,$0xf6
  103696:	fe                   	(bad)  
  103697:	de ce                	fmulp  %st,%st(6)
  103699:	c6 c6 c6             	mov    $0xc6,%dh
  10369c:	c6 00 00             	movb   $0x0,(%rax)
	...

00000000001036a0 <M_char>:
  1036a0:	00 00                	add    %al,(%rax)
  1036a2:	00 c6                	add    %al,%dh
  1036a4:	ee                   	out    %al,(%dx)
  1036a5:	fe                   	(bad)  
  1036a6:	fe                   	(bad)  
  1036a7:	d6                   	(bad)  
  1036a8:	c6 c6 c6             	mov    $0xc6,%dh
  1036ab:	c6 c6 00             	mov    $0x0,%dh
	...

00000000001036b0 <L_char>:
  1036b0:	00 00                	add    %al,(%rax)
  1036b2:	00 78 60             	add    %bh,0x60(%rax)
  1036b5:	60                   	(bad)  
  1036b6:	60                   	(bad)  
  1036b7:	60                   	(bad)  
  1036b8:	60                   	(bad)  
  1036b9:	60                   	(bad)  
  1036ba:	62 66 fe 00 00       	(bad)  
	...

00000000001036c0 <K_char>:
  1036c0:	00 00                	add    %al,(%rax)
  1036c2:	00 e6                	add    %ah,%dh
  1036c4:	66 64 6c             	data16 fs insb (%dx),%es:(%rdi)
  1036c7:	78 78                	js     103741 <C_char+0x1>
  1036c9:	6c                   	insb   (%dx),%es:(%rdi)
  1036ca:	66 66 e6 00          	data16 data16 out %al,$0x0
	...

00000000001036d0 <J_char>:
  1036d0:	00 00                	add    %al,(%rax)
  1036d2:	00 1e                	add    %bl,(%rsi)
  1036d4:	0c 0c                	or     $0xc,%al
  1036d6:	0c 0c                	or     $0xc,%al
  1036d8:	0c cc                	or     $0xcc,%al
  1036da:	cc                   	int3   
  1036db:	cc                   	int3   
  1036dc:	78 00                	js     1036de <J_char+0xe>
	...

00000000001036e0 <I_char>:
  1036e0:	00 00                	add    %al,(%rax)
  1036e2:	00 3c 18             	add    %bh,(%rax,%rbx,1)
  1036e5:	18 18                	sbb    %bl,(%rax)
  1036e7:	18 18                	sbb    %bl,(%rax)
  1036e9:	18 18                	sbb    %bl,(%rax)
  1036eb:	18 3c 00             	sbb    %bh,(%rax,%rax,1)
	...

00000000001036f0 <H_char>:
  1036f0:	00 00                	add    %al,(%rax)
  1036f2:	00 c6                	add    %al,%dh
  1036f4:	c6 c6 c6             	mov    $0xc6,%dh
  1036f7:	fe c6                	inc    %dh
  1036f9:	c6 c6 c6             	mov    $0xc6,%dh
  1036fc:	c6 00 00             	movb   $0x0,(%rax)
	...

0000000000103700 <G_char>:
  103700:	00 00                	add    %al,(%rax)
  103702:	00 3c 66             	add    %bh,(%rsi,%riz,2)
  103705:	c2 c0 c0             	ret    $0xc0c0
  103708:	de c6                	faddp  %st,%st(6)
  10370a:	c6                   	(bad)  
  10370b:	66 3a 00             	data16 cmp (%rax),%al
	...

0000000000103710 <F_char>:
  103710:	00 00                	add    %al,(%rax)
  103712:	00 fe                	add    %bh,%dh
  103714:	66 62                	data16 (bad) 
  103716:	68 78 68 60 60       	push   $0x60606878
  10371b:	60                   	(bad)  
  10371c:	f0 00 00             	lock add %al,(%rax)
	...

0000000000103720 <E_char>:
  103720:	00 00                	add    %al,(%rax)
  103722:	00 fe                	add    %bh,%dh
  103724:	66 62                	data16 (bad) 
  103726:	68 78 68 60 62       	push   $0x62606878
  10372b:	66 fe 00             	data16 incb (%rax)
	...

0000000000103730 <D_char>:
  103730:	00 00                	add    %al,(%rax)
  103732:	00 f8                	add    %bh,%al
  103734:	6c                   	insb   (%dx),%es:(%rdi)
  103735:	66 66 66 66 66 66 6c 	data16 data16 data16 data16 data16 data16 insb (%dx),%es:(%rdi)
  10373c:	f8                   	clc    
  10373d:	00 00                	add    %al,(%rax)
	...

0000000000103740 <C_char>:
  103740:	00 00                	add    %al,(%rax)
  103742:	00 3c 66             	add    %bh,(%rsi,%riz,2)
  103745:	c2 c0 c0             	ret    $0xc0c0
  103748:	c0 c0 c2             	rol    $0xc2,%al
  10374b:	66 3c 00             	data16 cmp $0x0,%al
	...

0000000000103750 <B_char>:
  103750:	00 00                	add    %al,(%rax)
  103752:	00 fc                	add    %bh,%ah
  103754:	66 66 66 7c 66       	data16 data16 data16 jl 1037bf <ascii_chars+0x3f>
  103759:	66 66 66 fc          	data16 data16 data16 cld 
  10375d:	00 00                	add    %al,(%rax)
	...

0000000000103760 <A_char>:
  103760:	00 00                	add    %al,(%rax)
  103762:	00 10                	add    %dl,(%rax)
  103764:	38 6c c6 c6          	cmp    %ch,-0x3a(%rsi,%rax,8)
  103768:	fe c6                	inc    %dh
  10376a:	c6 c6 c6             	mov    $0xc6,%dh
  10376d:	00 00                	add    %al,(%rax)
	...

Disassembly of section .data.rel.local:

0000000000103780 <ascii_chars>:
  103780:	20 40 41             	and    %al,0x41(%rax)
  103783:	00 00                	add    %al,(%rax)
  103785:	00 00                	add    %al,(%rax)
  103787:	00 20                	add    %ah,(%rax)
  103789:	40                   	rex
  10378a:	41 00 00             	add    %al,(%r8)
  10378d:	00 00                	add    %al,(%rax)
  10378f:	00 20                	add    %ah,(%rax)
  103791:	40                   	rex
  103792:	41 00 00             	add    %al,(%r8)
  103795:	00 00                	add    %al,(%rax)
  103797:	00 20                	add    %ah,(%rax)
  103799:	40                   	rex
  10379a:	41 00 00             	add    %al,(%r8)
  10379d:	00 00                	add    %al,(%rax)
  10379f:	00 20                	add    %ah,(%rax)
  1037a1:	40                   	rex
  1037a2:	41 00 00             	add    %al,(%r8)
  1037a5:	00 00                	add    %al,(%rax)
  1037a7:	00 20                	add    %ah,(%rax)
  1037a9:	40                   	rex
  1037aa:	41 00 00             	add    %al,(%r8)
  1037ad:	00 00                	add    %al,(%rax)
  1037af:	00 20                	add    %ah,(%rax)
  1037b1:	40                   	rex
  1037b2:	41 00 00             	add    %al,(%r8)
  1037b5:	00 00                	add    %al,(%rax)
  1037b7:	00 20                	add    %ah,(%rax)
  1037b9:	40                   	rex
  1037ba:	41 00 00             	add    %al,(%r8)
  1037bd:	00 00                	add    %al,(%rax)
  1037bf:	00 20                	add    %ah,(%rax)
  1037c1:	40                   	rex
  1037c2:	41 00 00             	add    %al,(%r8)
  1037c5:	00 00                	add    %al,(%rax)
  1037c7:	00 20                	add    %ah,(%rax)
  1037c9:	40                   	rex
  1037ca:	41 00 00             	add    %al,(%r8)
  1037cd:	00 00                	add    %al,(%rax)
  1037cf:	00 20                	add    %ah,(%rax)
  1037d1:	40                   	rex
  1037d2:	41 00 00             	add    %al,(%r8)
  1037d5:	00 00                	add    %al,(%rax)
  1037d7:	00 20                	add    %ah,(%rax)
  1037d9:	40                   	rex
  1037da:	41 00 00             	add    %al,(%r8)
  1037dd:	00 00                	add    %al,(%rax)
  1037df:	00 20                	add    %ah,(%rax)
  1037e1:	40                   	rex
  1037e2:	41 00 00             	add    %al,(%r8)
  1037e5:	00 00                	add    %al,(%rax)
  1037e7:	00 20                	add    %ah,(%rax)
  1037e9:	40                   	rex
  1037ea:	41 00 00             	add    %al,(%r8)
  1037ed:	00 00                	add    %al,(%rax)
  1037ef:	00 20                	add    %ah,(%rax)
  1037f1:	40                   	rex
  1037f2:	41 00 00             	add    %al,(%r8)
  1037f5:	00 00                	add    %al,(%rax)
  1037f7:	00 20                	add    %ah,(%rax)
  1037f9:	40                   	rex
  1037fa:	41 00 00             	add    %al,(%r8)
  1037fd:	00 00                	add    %al,(%rax)
  1037ff:	00 20                	add    %ah,(%rax)
  103801:	40                   	rex
  103802:	41 00 00             	add    %al,(%r8)
  103805:	00 00                	add    %al,(%rax)
  103807:	00 20                	add    %ah,(%rax)
  103809:	40                   	rex
  10380a:	41 00 00             	add    %al,(%r8)
  10380d:	00 00                	add    %al,(%rax)
  10380f:	00 20                	add    %ah,(%rax)
  103811:	40                   	rex
  103812:	41 00 00             	add    %al,(%r8)
  103815:	00 00                	add    %al,(%rax)
  103817:	00 20                	add    %ah,(%rax)
  103819:	40                   	rex
  10381a:	41 00 00             	add    %al,(%r8)
  10381d:	00 00                	add    %al,(%rax)
  10381f:	00 20                	add    %ah,(%rax)
  103821:	40                   	rex
  103822:	41 00 00             	add    %al,(%r8)
  103825:	00 00                	add    %al,(%rax)
  103827:	00 20                	add    %ah,(%rax)
  103829:	40                   	rex
  10382a:	41 00 00             	add    %al,(%r8)
  10382d:	00 00                	add    %al,(%rax)
  10382f:	00 20                	add    %ah,(%rax)
  103831:	40                   	rex
  103832:	41 00 00             	add    %al,(%r8)
  103835:	00 00                	add    %al,(%rax)
  103837:	00 20                	add    %ah,(%rax)
  103839:	40                   	rex
  10383a:	41 00 00             	add    %al,(%r8)
  10383d:	00 00                	add    %al,(%rax)
  10383f:	00 20                	add    %ah,(%rax)
  103841:	40                   	rex
  103842:	41 00 00             	add    %al,(%r8)
  103845:	00 00                	add    %al,(%rax)
  103847:	00 20                	add    %ah,(%rax)
  103849:	40                   	rex
  10384a:	41 00 00             	add    %al,(%r8)
  10384d:	00 00                	add    %al,(%rax)
  10384f:	00 20                	add    %ah,(%rax)
  103851:	40                   	rex
  103852:	41 00 00             	add    %al,(%r8)
  103855:	00 00                	add    %al,(%rax)
  103857:	00 20                	add    %ah,(%rax)
  103859:	40                   	rex
  10385a:	41 00 00             	add    %al,(%r8)
  10385d:	00 00                	add    %al,(%rax)
  10385f:	00 20                	add    %ah,(%rax)
  103861:	40                   	rex
  103862:	41 00 00             	add    %al,(%r8)
  103865:	00 00                	add    %al,(%rax)
  103867:	00 20                	add    %ah,(%rax)
  103869:	40                   	rex
  10386a:	41 00 00             	add    %al,(%r8)
  10386d:	00 00                	add    %al,(%rax)
  10386f:	00 20                	add    %ah,(%rax)
  103871:	40                   	rex
  103872:	41 00 00             	add    %al,(%r8)
  103875:	00 00                	add    %al,(%rax)
  103877:	00 20                	add    %ah,(%rax)
  103879:	40                   	rex
  10387a:	41 00 00             	add    %al,(%r8)
  10387d:	00 00                	add    %al,(%rax)
  10387f:	00 20                	add    %ah,(%rax)
  103881:	40                   	rex
  103882:	41 00 00             	add    %al,(%r8)
  103885:	00 00                	add    %al,(%rax)
  103887:	00 20                	add    %ah,(%rax)
  103889:	40                   	rex
  10388a:	41 00 00             	add    %al,(%r8)
  10388d:	00 00                	add    %al,(%rax)
  10388f:	00 20                	add    %ah,(%rax)
  103891:	40                   	rex
  103892:	41 00 00             	add    %al,(%r8)
  103895:	00 00                	add    %al,(%rax)
  103897:	00 20                	add    %ah,(%rax)
  103899:	40                   	rex
  10389a:	41 00 00             	add    %al,(%r8)
  10389d:	00 00                	add    %al,(%rax)
  10389f:	00 20                	add    %ah,(%rax)
  1038a1:	40                   	rex
  1038a2:	41 00 00             	add    %al,(%r8)
  1038a5:	00 00                	add    %al,(%rax)
  1038a7:	00 20                	add    %ah,(%rax)
  1038a9:	40                   	rex
  1038aa:	41 00 00             	add    %al,(%r8)
  1038ad:	00 00                	add    %al,(%rax)
  1038af:	00 20                	add    %ah,(%rax)
  1038b1:	40                   	rex
  1038b2:	41 00 00             	add    %al,(%r8)
  1038b5:	00 00                	add    %al,(%rax)
  1038b7:	00 20                	add    %ah,(%rax)
  1038b9:	40                   	rex
  1038ba:	41 00 00             	add    %al,(%r8)
  1038bd:	00 00                	add    %al,(%rax)
  1038bf:	00 20                	add    %ah,(%rax)
  1038c1:	40                   	rex
  1038c2:	41 00 00             	add    %al,(%r8)
  1038c5:	00 00                	add    %al,(%rax)
  1038c7:	00 20                	add    %ah,(%rax)
  1038c9:	40                   	rex
  1038ca:	41 00 00             	add    %al,(%r8)
  1038cd:	00 00                	add    %al,(%rax)
  1038cf:	00 20                	add    %ah,(%rax)
  1038d1:	40                   	rex
  1038d2:	41 00 00             	add    %al,(%r8)
  1038d5:	00 00                	add    %al,(%rax)
  1038d7:	00 20                	add    %ah,(%rax)
  1038d9:	40                   	rex
  1038da:	41 00 00             	add    %al,(%r8)
  1038dd:	00 00                	add    %al,(%rax)
  1038df:	00 20                	add    %ah,(%rax)
  1038e1:	40                   	rex
  1038e2:	41 00 00             	add    %al,(%r8)
  1038e5:	00 00                	add    %al,(%rax)
  1038e7:	00 50 33             	add    %dl,0x33(%rax)
  1038ea:	10 00                	adc    %al,(%rax)
  1038ec:	00 00                	add    %al,(%rax)
  1038ee:	00 00                	add    %al,(%rax)
  1038f0:	60                   	(bad)  
  1038f1:	33 10                	xor    (%rax),%edx
  1038f3:	00 00                	add    %al,(%rax)
  1038f5:	00 00                	add    %al,(%rax)
  1038f7:	00 20                	add    %ah,(%rax)
  1038f9:	40                   	rex
  1038fa:	41 00 00             	add    %al,(%r8)
  1038fd:	00 00                	add    %al,(%rax)
  1038ff:	00 20                	add    %ah,(%rax)
  103901:	34 10                	xor    $0x10,%al
  103903:	00 00                	add    %al,(%rax)
  103905:	00 00                	add    %al,(%rax)
  103907:	00 10                	add    %dl,(%rax)
  103909:	34 10                	xor    $0x10,%al
  10390b:	00 00                	add    %al,(%rax)
  10390d:	00 00                	add    %al,(%rax)
  10390f:	00 00                	add    %al,(%rax)
  103911:	34 10                	xor    $0x10,%al
  103913:	00 00                	add    %al,(%rax)
  103915:	00 00                	add    %al,(%rax)
  103917:	00 f0                	add    %dh,%al
  103919:	33 10                	xor    (%rax),%edx
  10391b:	00 00                	add    %al,(%rax)
  10391d:	00 00                	add    %al,(%rax)
  10391f:	00 e0                	add    %ah,%al
  103921:	33 10                	xor    (%rax),%edx
  103923:	00 00                	add    %al,(%rax)
  103925:	00 00                	add    %al,(%rax)
  103927:	00 d0                	add    %dl,%al
  103929:	33 10                	xor    (%rax),%edx
  10392b:	00 00                	add    %al,(%rax)
  10392d:	00 00                	add    %al,(%rax)
  10392f:	00 c0                	add    %al,%al
  103931:	33 10                	xor    (%rax),%edx
  103933:	00 00                	add    %al,(%rax)
  103935:	00 00                	add    %al,(%rax)
  103937:	00 b0 33 10 00 00    	add    %dh,0x1033(%rax)
  10393d:	00 00                	add    %al,(%rax)
  10393f:	00 a0 33 10 00 00    	add    %ah,0x1033(%rax)
  103945:	00 00                	add    %al,(%rax)
  103947:	00 90 33 10 00 00    	add    %dl,0x1033(%rax)
  10394d:	00 00                	add    %al,(%rax)
  10394f:	00 80 33 10 00 00    	add    %al,0x1033(%rax)
  103955:	00 00                	add    %al,(%rax)
  103957:	00 70 33             	add    %dh,0x33(%rax)
  10395a:	10 00                	adc    %al,(%rax)
  10395c:	00 00                	add    %al,(%rax)
  10395e:	00 00                	add    %al,(%rax)
  103960:	20 40 41             	and    %al,0x41(%rax)
  103963:	00 00                	add    %al,(%rax)
  103965:	00 00                	add    %al,(%rax)
  103967:	00 20                	add    %ah,(%rax)
  103969:	40                   	rex
  10396a:	41 00 00             	add    %al,(%r8)
  10396d:	00 00                	add    %al,(%rax)
  10396f:	00 20                	add    %ah,(%rax)
  103971:	40                   	rex
  103972:	41 00 00             	add    %al,(%r8)
  103975:	00 00                	add    %al,(%rax)
  103977:	00 20                	add    %ah,(%rax)
  103979:	40                   	rex
  10397a:	41 00 00             	add    %al,(%r8)
  10397d:	00 00                	add    %al,(%rax)
  10397f:	00 20                	add    %ah,(%rax)
  103981:	40                   	rex
  103982:	41 00 00             	add    %al,(%r8)
  103985:	00 00                	add    %al,(%rax)
  103987:	00 60 37             	add    %ah,0x37(%rax)
  10398a:	10 00                	adc    %al,(%rax)
  10398c:	00 00                	add    %al,(%rax)
  10398e:	00 00                	add    %al,(%rax)
  103990:	50                   	push   %rax
  103991:	37                   	(bad)  
  103992:	10 00                	adc    %al,(%rax)
  103994:	00 00                	add    %al,(%rax)
  103996:	00 00                	add    %al,(%rax)
  103998:	40 37                	rex (bad) 
  10399a:	10 00                	adc    %al,(%rax)
  10399c:	00 00                	add    %al,(%rax)
  10399e:	00 00                	add    %al,(%rax)
  1039a0:	30 37                	xor    %dh,(%rdi)
  1039a2:	10 00                	adc    %al,(%rax)
  1039a4:	00 00                	add    %al,(%rax)
  1039a6:	00 00                	add    %al,(%rax)
  1039a8:	20 37                	and    %dh,(%rdi)
  1039aa:	10 00                	adc    %al,(%rax)
  1039ac:	00 00                	add    %al,(%rax)
  1039ae:	00 00                	add    %al,(%rax)
  1039b0:	10 37                	adc    %dh,(%rdi)
  1039b2:	10 00                	adc    %al,(%rax)
  1039b4:	00 00                	add    %al,(%rax)
  1039b6:	00 00                	add    %al,(%rax)
  1039b8:	00 37                	add    %dh,(%rdi)
  1039ba:	10 00                	adc    %al,(%rax)
  1039bc:	00 00                	add    %al,(%rax)
  1039be:	00 00                	add    %al,(%rax)
  1039c0:	f0 36 10 00          	lock ss adc %al,(%rax)
  1039c4:	00 00                	add    %al,(%rax)
  1039c6:	00 00                	add    %al,(%rax)
  1039c8:	e0 36                	loopne 103a00 <ascii_chars+0x280>
  1039ca:	10 00                	adc    %al,(%rax)
  1039cc:	00 00                	add    %al,(%rax)
  1039ce:	00 00                	add    %al,(%rax)
  1039d0:	d0 36                	shlb   (%rsi)
  1039d2:	10 00                	adc    %al,(%rax)
  1039d4:	00 00                	add    %al,(%rax)
  1039d6:	00 00                	add    %al,(%rax)
  1039d8:	c0 36 10             	shlb   $0x10,(%rsi)
  1039db:	00 00                	add    %al,(%rax)
  1039dd:	00 00                	add    %al,(%rax)
  1039df:	00 b0 36 10 00 00    	add    %dh,0x1036(%rax)
  1039e5:	00 00                	add    %al,(%rax)
  1039e7:	00 a0 36 10 00 00    	add    %ah,0x1036(%rax)
  1039ed:	00 00                	add    %al,(%rax)
  1039ef:	00 90 36 10 00 00    	add    %dl,0x1036(%rax)
  1039f5:	00 00                	add    %al,(%rax)
  1039f7:	00 80 36 10 00 00    	add    %al,0x1036(%rax)
  1039fd:	00 00                	add    %al,(%rax)
  1039ff:	00 70 36             	add    %dh,0x36(%rax)
  103a02:	10 00                	adc    %al,(%rax)
  103a04:	00 00                	add    %al,(%rax)
  103a06:	00 00                	add    %al,(%rax)
  103a08:	60                   	(bad)  
  103a09:	36 10 00             	ss adc %al,(%rax)
  103a0c:	00 00                	add    %al,(%rax)
  103a0e:	00 00                	add    %al,(%rax)
  103a10:	50                   	push   %rax
  103a11:	36 10 00             	ss adc %al,(%rax)
  103a14:	00 00                	add    %al,(%rax)
  103a16:	00 00                	add    %al,(%rax)
  103a18:	40                   	rex
  103a19:	36 10 00             	ss adc %al,(%rax)
  103a1c:	00 00                	add    %al,(%rax)
  103a1e:	00 00                	add    %al,(%rax)
  103a20:	30 36                	xor    %dh,(%rsi)
  103a22:	10 00                	adc    %al,(%rax)
  103a24:	00 00                	add    %al,(%rax)
  103a26:	00 00                	add    %al,(%rax)
  103a28:	20 36                	and    %dh,(%rsi)
  103a2a:	10 00                	adc    %al,(%rax)
  103a2c:	00 00                	add    %al,(%rax)
  103a2e:	00 00                	add    %al,(%rax)
  103a30:	10 36                	adc    %dh,(%rsi)
  103a32:	10 00                	adc    %al,(%rax)
  103a34:	00 00                	add    %al,(%rax)
  103a36:	00 00                	add    %al,(%rax)
  103a38:	00 36                	add    %dh,(%rsi)
  103a3a:	10 00                	adc    %al,(%rax)
  103a3c:	00 00                	add    %al,(%rax)
  103a3e:	00 00                	add    %al,(%rax)
  103a40:	f0 35 10 00 00 00    	lock xor $0x10,%eax
  103a46:	00 00                	add    %al,(%rax)
  103a48:	e0 35                	loopne 103a7f <ascii_chars+0x2ff>
  103a4a:	10 00                	adc    %al,(%rax)
  103a4c:	00 00                	add    %al,(%rax)
  103a4e:	00 00                	add    %al,(%rax)
  103a50:	d0 35 10 00 00 00    	shlb   0x10(%rip)        # 103a66 <ascii_chars+0x2e6>
  103a56:	00 00                	add    %al,(%rax)
  103a58:	20 40 41             	and    %al,0x41(%rax)
  103a5b:	00 00                	add    %al,(%rax)
  103a5d:	00 00                	add    %al,(%rax)
  103a5f:	00 20                	add    %ah,(%rax)
  103a61:	40                   	rex
  103a62:	41 00 00             	add    %al,(%r8)
  103a65:	00 00                	add    %al,(%rax)
  103a67:	00 20                	add    %ah,(%rax)
  103a69:	40                   	rex
  103a6a:	41 00 00             	add    %al,(%r8)
  103a6d:	00 00                	add    %al,(%rax)
  103a6f:	00 20                	add    %ah,(%rax)
  103a71:	40                   	rex
  103a72:	41 00 00             	add    %al,(%r8)
  103a75:	00 00                	add    %al,(%rax)
  103a77:	00 20                	add    %ah,(%rax)
  103a79:	40                   	rex
  103a7a:	41 00 00             	add    %al,(%r8)
  103a7d:	00 00                	add    %al,(%rax)
  103a7f:	00 20                	add    %ah,(%rax)
  103a81:	40                   	rex
  103a82:	41 00 00             	add    %al,(%r8)
  103a85:	00 00                	add    %al,(%rax)
  103a87:	00 c0                	add    %al,%al
  103a89:	35 10 00 00 00       	xor    $0x10,%eax
  103a8e:	00 00                	add    %al,(%rax)
  103a90:	b0 35                	mov    $0x35,%al
  103a92:	10 00                	adc    %al,(%rax)
  103a94:	00 00                	add    %al,(%rax)
  103a96:	00 00                	add    %al,(%rax)
  103a98:	a0 35 10 00 00 00 00 	movabs 0x9000000000001035,%al
  103a9f:	00 90 
  103aa1:	35 10 00 00 00       	xor    $0x10,%eax
  103aa6:	00 00                	add    %al,(%rax)
  103aa8:	80 35 10 00 00 00 00 	xorb   $0x0,0x10(%rip)        # 103abf <ascii_chars+0x33f>
  103aaf:	00 70 35             	add    %dh,0x35(%rax)
  103ab2:	10 00                	adc    %al,(%rax)
  103ab4:	00 00                	add    %al,(%rax)
  103ab6:	00 00                	add    %al,(%rax)
  103ab8:	60                   	(bad)  
  103ab9:	35 10 00 00 00       	xor    $0x10,%eax
  103abe:	00 00                	add    %al,(%rax)
  103ac0:	50                   	push   %rax
  103ac1:	35 10 00 00 00       	xor    $0x10,%eax
  103ac6:	00 00                	add    %al,(%rax)
  103ac8:	40 35 10 00 00 00    	rex xor $0x10,%eax
  103ace:	00 00                	add    %al,(%rax)
  103ad0:	30 35 10 00 00 00    	xor    %dh,0x10(%rip)        # 103ae6 <ascii_chars+0x366>
  103ad6:	00 00                	add    %al,(%rax)
  103ad8:	20 35 10 00 00 00    	and    %dh,0x10(%rip)        # 103aee <ascii_chars+0x36e>
  103ade:	00 00                	add    %al,(%rax)
  103ae0:	10 35 10 00 00 00    	adc    %dh,0x10(%rip)        # 103af6 <ascii_chars+0x376>
  103ae6:	00 00                	add    %al,(%rax)
  103ae8:	00 35 10 00 00 00    	add    %dh,0x10(%rip)        # 103afe <ascii_chars+0x37e>
  103aee:	00 00                	add    %al,(%rax)
  103af0:	f0 34 10             	lock xor $0x10,%al
  103af3:	00 00                	add    %al,(%rax)
  103af5:	00 00                	add    %al,(%rax)
  103af7:	00 e0                	add    %ah,%al
  103af9:	34 10                	xor    $0x10,%al
  103afb:	00 00                	add    %al,(%rax)
  103afd:	00 00                	add    %al,(%rax)
  103aff:	00 d0                	add    %dl,%al
  103b01:	34 10                	xor    $0x10,%al
  103b03:	00 00                	add    %al,(%rax)
  103b05:	00 00                	add    %al,(%rax)
  103b07:	00 c0                	add    %al,%al
  103b09:	34 10                	xor    $0x10,%al
  103b0b:	00 00                	add    %al,(%rax)
  103b0d:	00 00                	add    %al,(%rax)
  103b0f:	00 b0 34 10 00 00    	add    %dh,0x1034(%rax)
  103b15:	00 00                	add    %al,(%rax)
  103b17:	00 a0 34 10 00 00    	add    %ah,0x1034(%rax)
  103b1d:	00 00                	add    %al,(%rax)
  103b1f:	00 90 34 10 00 00    	add    %dl,0x1034(%rax)
  103b25:	00 00                	add    %al,(%rax)
  103b27:	00 80 34 10 00 00    	add    %al,0x1034(%rax)
  103b2d:	00 00                	add    %al,(%rax)
  103b2f:	00 70 34             	add    %dh,0x34(%rax)
  103b32:	10 00                	adc    %al,(%rax)
  103b34:	00 00                	add    %al,(%rax)
  103b36:	00 00                	add    %al,(%rax)
  103b38:	60                   	(bad)  
  103b39:	34 10                	xor    $0x10,%al
  103b3b:	00 00                	add    %al,(%rax)
  103b3d:	00 00                	add    %al,(%rax)
  103b3f:	00 50 34             	add    %dl,0x34(%rax)
  103b42:	10 00                	adc    %al,(%rax)
  103b44:	00 00                	add    %al,(%rax)
  103b46:	00 00                	add    %al,(%rax)
  103b48:	40 34 10             	rex xor $0x10,%al
  103b4b:	00 00                	add    %al,(%rax)
  103b4d:	00 00                	add    %al,(%rax)
  103b4f:	00 30                	add    %dh,(%rax)
  103b51:	34 10                	xor    $0x10,%al
  103b53:	00 00                	add    %al,(%rax)
  103b55:	00 00                	add    %al,(%rax)
  103b57:	00 20                	add    %ah,(%rax)
  103b59:	40                   	rex
  103b5a:	41 00 00             	add    %al,(%r8)
  103b5d:	00 00                	add    %al,(%rax)
  103b5f:	00 20                	add    %ah,(%rax)
  103b61:	40                   	rex
  103b62:	41 00 00             	add    %al,(%r8)
  103b65:	00 00                	add    %al,(%rax)
  103b67:	00 20                	add    %ah,(%rax)
  103b69:	40                   	rex
  103b6a:	41 00 00             	add    %al,(%r8)
  103b6d:	00 00                	add    %al,(%rax)
  103b6f:	00 20                	add    %ah,(%rax)
  103b71:	40                   	rex
  103b72:	41 00 00             	add    %al,(%r8)
  103b75:	00 00                	add    %al,(%rax)
  103b77:	00 20                	add    %ah,(%rax)
  103b79:	40                   	rex
  103b7a:	41 00 00             	add    %al,(%r8)
  103b7d:	00 00                	add    %al,(%rax)
	...

Disassembly of section .bss:

0000000000200000 <p4_table>:
	...

0000000000201000 <p3_table>:
	...

0000000000202000 <p2_table>:
	...

0000000000402000 <page_stack_bottom>:
	...

0000000000412000 <page_stack_ptr>:
	...

0000000000412008 <stack_bottom>:
	...

0000000000413008 <IDT>:
	...

0000000000414008 <framebuffer>:
  414008:	00 00                	add    %al,(%rax)
	...

000000000041400c <magic>:
  41400c:	00 00                	add    %al,(%rax)
	...

0000000000414010 <boot_info>:
	...

0000000000414020 <Not_implemented_yet>:
	...
